(dp0
S'SS-A'
p1
(dp2
S'evals'
p3
(lp4
I50
asS'igd'
p5
(lp6
cnumpy.core.multiarray
scalar
p7
(cnumpy
dtype
p8
(S'f8'
p9
I0
I1
tp10
Rp11
(I3
S'<'
p12
NNNI-1
I-1
I0
tp13
bS'\xbf\xdd\xe2\\T\xa0\x1b?'
p14
tp15
Rp16
asS'gen_dist'
p17
(lp18
g7
(g11
S'\xb8\x88\xf5\x10\xac\xadD?'
p19
tp20
Rp21
asS'time'
p22
F0.9744081497192383
ss.