(dp0
S'SS-A'
p1
(dp2
S'evals'
p3
(lp4
I50
asS'igd'
p5
(lp6
cnumpy.core.multiarray
scalar
p7
(cnumpy
dtype
p8
(S'f8'
p9
I0
I1
tp10
Rp11
(I3
S'<'
p12
NNNI-1
I-1
I0
tp13
bS'@\x1d\xac\x8eI\xe4\x06?'
p14
tp15
Rp16
asS'gen_dist'
p17
(lp18
g7
(g11
S'\xb3\xa7\xb6\xa5\xdf\x9a\x16?'
p19
tp20
Rp21
asS'time'
p22
F3.2867159843444824
ss.