(dp0
S'SS-K'
p1
(dp2
S'evals'
p3
(lp4
I50
asS'igd'
p5
(lp6
cnumpy.core.multiarray
scalar
p7
(cnumpy
dtype
p8
(S'f8'
p9
I0
I1
tp10
Rp11
(I3
S'<'
p12
NNNI-1
I-1
I0
tp13
bS'\x9f\xbe\xcc\xa3\x8f\x83\x90?'
p14
tp15
Rp16
asS'gen_dist'
p17
(lp18
g7
(g11
S'E\xf1\xb4\xa4H\xcdb?'
p19
tp20
Rp21
asS'time'
p22
F7.64277195930481
ss.