(dp0
S'SS-L'
p1
(dp2
S'evals'
p3
(lp4
I50
asS'igd'
p5
(lp6
cnumpy.core.multiarray
scalar
p7
(cnumpy
dtype
p8
(S'f8'
p9
I0
I1
tp10
Rp11
(I3
S'<'
p12
NNNI-1
I-1
I0
tp13
bS'\xf7\xd4\x9a.\x8cK{?'
p14
tp15
Rp16
asS'gen_dist'
p17
(lp18
g7
(g11
S'h\x88I\x1bZQ\x92?'
p19
tp20
Rp21
asS'time'
p22
F2.165802001953125
ss.