(dp0
S'xomo_ground'
p1
(lp2
(lp3
I93
aI47
aa(lp4
I87
aI44
aa(lp5
I145
aI73
aa(lp6
I115
aI58
aa(lp7
I99
aI50
aa(lp8
I115
aI58
aa(lp9
I111
aI56
aa(lp10
I99
aI50
aa(lp11
I141
aI71
aa(lp12
I125
aI63
aa(lp13
I103
aI52
aa(lp14
I135
aI68
aa(lp15
I93
aI47
aa(lp16
I103
aI52
aa(lp17
I95
aI48
aa(lp18
I93
aI47
aa(lp19
I115
aI58
aa(lp20
I115
aI58
aa(lp21
I137
aI69
aa(lp22
I115
aI58
aasS'MONRP_50_4_5_0_90'
p23
(lp24
(lp25
I221
aI111
aa(lp26
I189
aI95
aa(lp27
I175
aI88
aa(lp28
I217
aI109
aa(lp29
I233
aI117
aa(lp30
I185
aI93
aa(lp31
I255
aI128
aa(lp32
I227
aI114
aa(lp33
I239
aI120
aa(lp34
I191
aI96
aa(lp35
I263
aI132
aa(lp36
I109
aI55
aa(lp37
I201
aI101
aa(lp38
I247
aI124
aa(lp39
I231
aI116
aa(lp40
I139
aI70
aa(lp41
I135
aI68
aa(lp42
I247
aI124
aa(lp43
I213
aI107
aa(lp44
I139
aI70
aasS'pom3d'
p45
(lp46
(lp47
I61
aI31
aa(lp48
I103
aI52
aa(lp49
I87
aI44
aa(lp50
I27
aI14
aa(lp51
I93
aI47
aa(lp52
I95
aI48
aa(lp53
I75
aI38
aa(lp54
I45
aI23
aa(lp55
I33
aI17
aa(lp56
I93
aI47
aa(lp57
I81
aI41
aa(lp58
I33
aI17
aa(lp59
I107
aI54
aa(lp60
I87
aI44
aa(lp61
I83
aI42
aa(lp62
I83
aI42
aa(lp63
I91
aI46
aa(lp64
I87
aI44
aa(lp65
I75
aI38
aa(lp66
I77
aI39
aasS'xomo_flight'
p67
(lp68
(lp69
I125
aI63
aa(lp70
I111
aI56
aa(lp71
I95
aI48
aa(lp72
I105
aI53
aa(lp73
I105
aI53
aa(lp74
I91
aI46
aa(lp75
I107
aI54
aa(lp76
I101
aI51
aa(lp77
I105
aI53
aa(lp78
I115
aI58
aa(lp79
I107
aI54
aa(lp80
I117
aI59
aa(lp81
I101
aI51
aa(lp82
I125
aI63
aa(lp83
I105
aI53
aa(lp84
I141
aI71
aa(lp85
I121
aI61
aa(lp86
I117
aI59
aa(lp87
I93
aI47
aa(lp88
I85
aI43
aasS'MONRP_50_4_5_4_90'
p89
(lp90
(lp91
I111
aI56
aa(lp92
I123
aI62
aa(lp93
I77
aI39
aa(lp94
I75
aI38
aa(lp95
I99
aI50
aa(lp96
I71
aI36
aa(lp97
I125
aI63
aa(lp98
I131
aI66
aa(lp99
I45
aI23
aa(lp100
I135
aI68
aa(lp101
I77
aI39
aa(lp102
I69
aI35
aa(lp103
I53
aI27
aa(lp104
I149
aI75
aa(lp105
I81
aI41
aa(lp106
I81
aI41
aa(lp107
I45
aI23
aa(lp108
I69
aI35
aa(lp109
I79
aI40
aa(lp110
I59
aI30
aasS'pom3b'
p111
(lp112
(lp113
I85
aI43
aa(lp114
I71
aI36
aa(lp115
I111
aI56
aa(lp116
I71
aI36
aa(lp117
I101
aI51
aa(lp118
I99
aI50
aa(lp119
I119
aI60
aa(lp120
I91
aI46
aa(lp121
I79
aI40
aa(lp122
I89
aI45
aa(lp123
I119
aI60
aa(lp124
I49
aI25
aa(lp125
I89
aI45
aa(lp126
I93
aI47
aa(lp127
I95
aI48
aa(lp128
I93
aI47
aa(lp129
I93
aI47
aa(lp130
I59
aI30
aa(lp131
I95
aI48
aa(lp132
I101
aI51
aasS'pom3a'
p133
(lp134
(lp135
I63
aI32
aa(lp136
I73
aI37
aa(lp137
I59
aI30
aa(lp138
I61
aI31
aa(lp139
I97
aI49
aa(lp140
I83
aI42
aa(lp141
I99
aI50
aa(lp142
I93
aI47
aa(lp143
I99
aI50
aa(lp144
I47
aI24
aa(lp145
I89
aI45
aa(lp146
I83
aI42
aa(lp147
I99
aI50
aa(lp148
I97
aI49
aa(lp149
I81
aI41
aa(lp150
I107
aI54
aa(lp151
I91
aI46
aa(lp152
I93
aI47
aa(lp153
I83
aI42
aa(lp154
I87
aI44
aasS'xomo_all'
p155
(lp156
(lp157
I93
aI47
aa(lp158
I85
aI43
aa(lp159
I127
aI64
aa(lp160
I149
aI75
aa(lp161
I117
aI59
aa(lp162
I127
aI64
aa(lp163
I91
aI46
aa(lp164
I97
aI49
aa(lp165
I101
aI51
aa(lp166
I129
aI65
aa(lp167
I107
aI54
aa(lp168
I103
aI52
aa(lp169
I99
aI50
aa(lp170
I125
aI63
aa(lp171
I109
aI55
aa(lp172
I79
aI40
aa(lp173
I109
aI55
aa(lp174
I123
aI62
aa(lp175
I81
aI41
aa(lp176
I93
aI47
aasS'xomo_osp'
p177
(lp178
(lp179
I75
aI38
aa(lp180
I109
aI55
aa(lp181
I111
aI56
aa(lp182
I97
aI49
aa(lp183
I131
aI66
aa(lp184
I119
aI60
aa(lp185
I101
aI51
aa(lp186
I119
aI60
aa(lp187
I99
aI50
aa(lp188
I105
aI53
aa(lp189
I99
aI50
aa(lp190
I115
aI58
aa(lp191
I109
aI55
aa(lp192
I111
aI56
aa(lp193
I111
aI56
aa(lp194
I103
aI52
aa(lp195
I145
aI73
aa(lp196
I113
aI57
aa(lp197
I111
aI56
aa(lp198
I135
aI68
aasS'MONRP_50_4_5_0_110'
p199
(lp200
(lp201
I203
aI102
aa(lp202
I159
aI80
aa(lp203
I157
aI79
aa(lp204
I251
aI126
aa(lp205
I169
aI85
aa(lp206
I187
aI94
aa(lp207
I247
aI124
aa(lp208
I257
aI129
aa(lp209
I195
aI98
aa(lp210
I181
aI91
aa(lp211
I231
aI116
aa(lp212
I201
aI101
aa(lp213
I231
aI116
aa(lp214
I125
aI63
aa(lp215
I203
aI102
aa(lp216
I227
aI114
aa(lp217
I203
aI102
aa(lp218
I227
aI114
aa(lp219
I145
aI73
aa(lp220
I193
aI97
aasS'xomoo2'
p221
(lp222
(lp223
I97
aI49
aa(lp224
I95
aI48
aa(lp225
I119
aI60
aa(lp226
I105
aI53
aa(lp227
I115
aI58
aa(lp228
I97
aI49
aa(lp229
I99
aI50
aa(lp230
I97
aI49
aa(lp231
I97
aI49
aa(lp232
I93
aI47
aa(lp233
I97
aI49
aa(lp234
I109
aI55
aa(lp235
I97
aI49
aa(lp236
I105
aI53
aa(lp237
I125
aI63
aa(lp238
I105
aI53
aa(lp239
I83
aI42
aa(lp240
I105
aI53
aa(lp241
I83
aI42
aa(lp242
I89
aI45
aasS'pom3c'
p243
(lp244
(lp245
I93
aI47
aa(lp246
I111
aI56
aa(lp247
I103
aI52
aa(lp248
I141
aI71
aa(lp249
I91
aI46
aa(lp250
I103
aI52
aa(lp251
I93
aI47
aa(lp252
I79
aI40
aa(lp253
I131
aI66
aa(lp254
I91
aI46
aa(lp255
I123
aI62
aa(lp256
I75
aI38
aa(lp257
I139
aI70
aa(lp258
I137
aI69
aa(lp259
I157
aI79
aa(lp260
I119
aI60
aa(lp261
I135
aI68
aa(lp262
I105
aI53
aa(lp263
I113
aI57
aa(lp264
I145
aI73
aasS'MONRP_50_4_5_4_110'
p265
(lp266
(lp267
I181
aI91
aa(lp268
I215
aI108
aa(lp269
I169
aI85
aa(lp270
I205
aI103
aa(lp271
I151
aI76
aa(lp272
I167
aI84
aa(lp273
I233
aI117
aa(lp274
I145
aI73
aa(lp275
I227
aI114
aa(lp276
I171
aI86
aa(lp277
I173
aI87
aa(lp278
I235
aI118
aa(lp279
I231
aI116
aa(lp280
I195
aI98
aa(lp281
I215
aI108
aa(lp282
I163
aI82
aa(lp283
I233
aI117
aa(lp284
I213
aI107
aa(lp285
I211
aI106
aa(lp286
I261
aI131
aas.