(dp0
S'SS-B'
p1
(dp2
S'evals'
p3
(lp4
I101
asS'igd'
p5
(lp6
cnumpy.core.multiarray
scalar
p7
(cnumpy
dtype
p8
(S'f8'
p9
I0
I1
tp10
Rp11
(I3
S'<'
p12
NNNI-1
I-1
I0
tp13
bS's\x9e\x15\x12\t\x03n?'
p14
tp15
Rp16
asS'gen_dist'
p17
(lp18
g7
(g11
S'S;&\xf6\xda\xe8m?'
p19
tp20
Rp21
asS'time'
p22
F1.0580029487609863
ss.