(dp0
S'SS-E'
p1
(dp2
S'evals'
p3
(lp4
I101
asS'igd'
p5
(lp6
cnumpy.core.multiarray
scalar
p7
(cnumpy
dtype
p8
(S'f8'
p9
I0
I1
tp10
Rp11
(I3
S'<'
p12
NNNI-1
I-1
I0
tp13
bS',3\xb7p_\x05\xad?'
p14
tp15
Rp16
asS'gen_dist'
p17
(lp18
g7
(g11
S"\x86\x17\x99'\xc4\x1c\x1b?"
p19
tp20
Rp21
asS'time'
p22
F4.7468650341033936
ss.