(dp0
S'SS-E'
p1
(dp2
S'evals'
p3
(lp4
I101
asS'igd'
p5
(lp6
cnumpy.core.multiarray
scalar
p7
(cnumpy
dtype
p8
(S'f8'
p9
I0
I1
tp10
Rp11
(I3
S'<'
p12
NNNI-1
I-1
I0
tp13
bS'7\x99X\xd5\xe1\x84\x97?'
p14
tp15
Rp16
asS'gen_dist'
p17
(lp18
g7
(g11
S'\xb3\xb3\x93i\xab\xb7s?'
p19
tp20
Rp21
asS'time'
p22
F4.4314799308776855
ss.