(dp0
S'SS-G'
p1
(dp2
S'evals'
p3
(lp4
I101
asS'igd'
p5
(lp6
cnumpy.core.multiarray
scalar
p7
(cnumpy
dtype
p8
(S'f8'
p9
I0
I1
tp10
Rp11
(I3
S'<'
p12
NNNI-1
I-1
I0
tp13
bS'\x15\xd9\xb9\xb3g\x9b\xa6?'
p14
tp15
Rp16
asS'gen_dist'
p17
(lp18
g7
(g11
S'\xb0\xcf\x80\xd1\x90\xef\x8b?'
p19
tp20
Rp21
asS'time'
p22
F1.222506046295166
ss.