(dp0
S'SS-L'
p1
(dp2
S'evals'
p3
(lp4
I101
asS'igd'
p5
(lp6
cnumpy.core.multiarray
scalar
p7
(cnumpy
dtype
p8
(S'f8'
p9
I0
I1
tp10
Rp11
(I3
S'<'
p12
NNNI-1
I-1
I0
tp13
bS'\x1f\xe5\x8f+\xc1\xbad?'
p14
tp15
Rp16
asS'gen_dist'
p17
(lp18
g7
(g11
S'J\xf6\xc3\x97\x07\xe9o?'
p19
tp20
Rp21
asS'time'
p22
F6.608274936676025
ss.