(dp0
S'SS-L'
p1
(dp2
S'evals'
p3
(lp4
I101
asS'igd'
p5
(lp6
cnumpy.core.multiarray
scalar
p7
(cnumpy
dtype
p8
(S'f8'
p9
I0
I1
tp10
Rp11
(I3
S'<'
p12
NNNI-1
I-1
I0
tp13
bS'k$\x97\xee\x18\x0fo?'
p14
tp15
Rp16
asS'gen_dist'
p17
(lp18
g7
(g11
S'\x00\x05\xb5\xed:\xae\xa4?'
p19
tp20
Rp21
asS'time'
p22
F6.570968151092529
ss.