(dp0
S'SS-M'
p1
(dp2
S'evals'
p3
(lp4
I102
asS'igd'
p5
(lp6
cnumpy.core.multiarray
scalar
p7
(cnumpy
dtype
p8
(S'f8'
p9
I0
I1
tp10
Rp11
(I3
S'<'
p12
NNNI-1
I-1
I0
tp13
bS'DE\x10e\xc0\xc9\xdc>'
p14
tp15
Rp16
asS'gen_dist'
p17
(lp18
g7
(g11
S'\x9dq@\xd3\x10\xae\xf5>'
p19
tp20
Rp21
asS'time'
p22
F758.7256979942322
ss.