(dp0
S'SS-M'
p1
(dp2
S'evals'
p3
(lp4
I102
asS'igd'
p5
(lp6
cnumpy.core.multiarray
scalar
p7
(cnumpy
dtype
p8
(S'f8'
p9
I0
I1
tp10
Rp11
(I3
S'<'
p12
NNNI-1
I-1
I0
tp13
bS'\xe6\xb2\x0bk\x06\x8f\xd9>'
p14
tp15
Rp16
asS'gen_dist'
p17
(lp18
g7
(g11
S'\xf8\xee\xf3\x9f \xf3\xe7>'
p19
tp20
Rp21
asS'time'
p22
F787.5316331386566
ss.