(dp0
S'SS-M'
p1
(dp2
S'evals'
p3
(lp4
I102
asS'igd'
p5
(lp6
cnumpy.core.multiarray
scalar
p7
(cnumpy
dtype
p8
(S'f8'
p9
I0
I1
tp10
Rp11
(I3
S'<'
p12
NNNI-1
I-1
I0
tp13
bS'\xc3\x92\xc2\x13\xfc\xf4\xe2>'
p14
tp15
Rp16
asS'gen_dist'
p17
(lp18
g7
(g11
S'\x18\xeb\x92j\x9e\x97\xea>'
p19
tp20
Rp21
asS'time'
p22
F628.3942220211029
ss.