(dp0
S'SS-N'
p1
(dp2
S'evals'
p3
(lp4
I103
asS'igd'
p5
(lp6
cnumpy.core.multiarray
scalar
p7
(cnumpy
dtype
p8
(S'f8'
p9
I0
I1
tp10
Rp11
(I3
S'<'
p12
NNNI-1
I-1
I0
tp13
bS'\xc6_\r\xb1\xea\xa1r?'
p14
tp15
Rp16
asS'gen_dist'
p17
(lp18
g7
(g11
S'D\xcc\xe2\xfe\n-\xd2?'
p19
tp20
Rp21
asS'time'
p22
F174.98432397842407
ss.