(dp0
S'SS-E'
p1
(dp2
S'evals'
p3
(lp4
I51
asS'igd'
p5
(lp6
cnumpy.core.multiarray
scalar
p7
(cnumpy
dtype
p8
(S'f8'
p9
I0
I1
tp10
Rp11
(I3
S'<'
p12
NNNI-1
I-1
I0
tp13
bS'\xc5Y\xc2\x80\xfaM\xa2?'
p14
tp15
Rp16
asS'gen_dist'
p17
(lp18
g7
(g11
S'\xf7\x8f\x10\xae\xd9[x?'
p19
tp20
Rp21
asS'time'
p22
F1.9892058372497559
ss.