(dp0
S'SS-L'
p1
(dp2
S'evals'
p3
(lp4
(lp5
I51
aag5
a(lp6
I51
aa(lp7
I51
aa(lp8
I51
aa(lp9
I51
aa(lp10
I51
aa(lp11
I51
aa(lp12
I51
aa(lp13
I51
aa(lp14
I51
aa(lp15
I51
aa(lp16
I51
aa(lp17
I51
aa(lp18
I51
aa(lp19
I51
aa(lp20
I51
aa(lp21
I51
aa(lp22
I51
aa(lp23
I51
aa(lp24
I51
aasS'igd'
p25
(lp26
(lp27
cnumpy.core.multiarray
scalar
p28
(cnumpy
dtype
p29
(S'f8'
p30
I0
I1
tp31
Rp32
(I3
S'<'
p33
NNNI-1
I-1
I0
tp34
bS'\xe6\x90\xf2\xbc9\xd3\x80?'
p35
tp36
Rp37
aag27
a(lp38
g28
(g32
S'`8"@\xc8\xe9\x83?'
p39
tp40
Rp41
aa(lp42
g28
(g32
S'\xc1\x92i\xfb\xc6\xcby?'
p43
tp44
Rp45
aa(lp46
g28
(g32
S'\x90\x9e\x86\xf7k{~?'
p47
tp48
Rp49
aa(lp50
g28
(g32
S'\xaf]Y\xa8)\xd0m?'
p51
tp52
Rp53
aa(lp54
g28
(g32
S'F\xf6\xfdGh\x00U?'
p55
tp56
Rp57
aa(lp58
g28
(g32
S'k\xa8\x18\x0b\xba\tW?'
p59
tp60
Rp61
aa(lp62
g28
(g32
S'#E\x9d,\xf4\r\x81?'
p63
tp64
Rp65
aa(lp66
g28
(g32
S'\xe6KS\xc5\x1d\x0e\x8a?'
p67
tp68
Rp69
aa(lp70
g28
(g32
S'\xab\xdbg\xc3O\x9a|?'
p71
tp72
Rp73
aa(lp74
g28
(g32
S'm"~\xf9\xf8\xd7z?'
p75
tp76
Rp77
aa(lp78
g28
(g32
S'G\xe0xE\x8d\xb9\x85?'
p79
tp80
Rp81
aa(lp82
g28
(g32
S'\xf4\xa3C\x98\x8a\xc4\x80?'
p83
tp84
Rp85
aa(lp86
g28
(g32
S'\x88"\'\x06\xb4\xc5\x81?'
p87
tp88
Rp89
aa(lp90
g28
(g32
S'\xf2\xeaN\xa9\xaa\xccn?'
p91
tp92
Rp93
aa(lp94
g28
(g32
S'\xef}\xe9\xce\xa0\xa6\x81?'
p95
tp96
Rp97
aa(lp98
g28
(g32
S'G\x07\xf1Y\xa0\x83o?'
p99
tp100
Rp101
aa(lp102
g28
(g32
S'\xfd\x9b\x98\x96\x0c*z?'
p103
tp104
Rp105
aa(lp106
g28
(g32
S'\xc5\xef\xe0g\xd5Iw?'
p107
tp108
Rp109
aa(lp110
g28
(g32
S'\xd3/\x87\xb2C\xa8i?'
p111
tp112
Rp113
aasS'gen_dist'
p114
(lp115
(lp116
g28
(g32
S'\x81WE\x1b_F\x8e?'
p117
tp118
Rp119
aag116
a(lp120
g28
(g32
S'\x1b\xf9)\x8d\x151\xa8?'
p121
tp122
Rp123
aa(lp124
g28
(g32
S'\xae\x12\xfd/\xc4\xf6y?'
p125
tp126
Rp127
aa(lp128
g28
(g32
S'\x10%\x13&\xae\xfe\x80?'
p129
tp130
Rp131
aa(lp132
g28
(g32
S'i\xa0\x07I{\xa7t?'
p133
tp134
Rp135
aa(lp136
g28
(g32
S'\x0b.\x801<\x048?'
p137
tp138
Rp139
aa(lp140
g28
(g32
S'\xa1\x16\xfb\xe0-\xd7o?'
p141
tp142
Rp143
aa(lp144
g28
(g32
S'Y\xb0\xf4\xfdU\x9a\x8f?'
p145
tp146
Rp147
aa(lp148
g28
(g32
S'\xe2R\xab\xc7\x98\x98\xaa?'
p149
tp150
Rp151
aa(lp152
g28
(g32
S'\xe0\x97\xd7\xb4j\xea\x91?'
p153
tp154
Rp155
aa(lp156
g28
(g32
S'I\x8e\xda\x17>\xbd\x97?'
p157
tp158
Rp159
aa(lp160
g28
(g32
S'\x10\xbe{\xf8\x16e\x95?'
p161
tp162
Rp163
aa(lp164
g28
(g32
S'\xbb\x0f;\x1cF\xc0\x98?'
p165
tp166
Rp167
aa(lp168
g28
(g32
S'\xd9\xd3\t\xa3i]\xa2?'
p169
tp170
Rp171
aa(lp172
g28
(g32
S'\x05\x18\x92\x15\xe1@\xa1?'
p173
tp174
Rp175
aa(lp176
g28
(g32
S'\x94R\x18\r{\x19\x86?'
p177
tp178
Rp179
aa(lp180
g28
(g32
S'\xcd\xbe\x9b~\xfd\xedy?'
p181
tp182
Rp183
aa(lp184
g28
(g32
S'\xc7\x04 ^\xdd\xa9\x89?'
p185
tp186
Rp187
aa(lp188
g28
(g32
S'\xc5\xef\xe0g\xd5Iw?'
p189
tp190
Rp191
aa(lp192
g28
(g32
S'2\xe7\xfd\x0f\xed\xb4s?'
p193
tp194
Rp195
aasS'time'
p196
(lp197
F2.5022060871124268
aF2.5022060871124268
aF2.507936954498291
aF2.513227939605713
aF2.529167890548706
aF2.504551887512207
aF2.5300350189208984
aF2.500068187713623
aF2.5645828247070312
aF2.5548348426818848
aF2.577052116394043
aF2.6226370334625244
aF2.7177131175994873
aF2.509154796600342
aF2.619074821472168
aF2.4994921684265137
aF2.508739948272705
aF2.514862060546875
aF2.5552639961242676
aF2.524509906768799
aF2.586838960647583
assS'SS-I'
p198
(dp199
g3
(lp200
(lp201
I51
aag201
a(lp202
I51
aa(lp203
I51
aa(lp204
I51
aa(lp205
I51
aa(lp206
I51
aa(lp207
I51
aa(lp208
I51
aa(lp209
I51
aa(lp210
I51
aa(lp211
I51
aa(lp212
I51
aa(lp213
I51
aa(lp214
I51
aa(lp215
I51
aa(lp216
I51
aa(lp217
I51
aa(lp218
I51
aa(lp219
I51
aa(lp220
I51
aasg25
(lp221
(lp222
g28
(g32
S'\x00\x00\x00\x00\x00\x00\x00\x00'
p223
tp224
Rp225
aag222
a(lp226
g28
(g32
S'\x00\x00\x00\x00\x00\x00\x00\x00'
p227
tp228
Rp229
aa(lp230
g28
(g32
S'\x00\x00\x00\x00\x00\x00\x00\x00'
p231
tp232
Rp233
aa(lp234
g28
(g32
S'\x00\x00\x00\x00\x00\x00\x00\x00'
p235
tp236
Rp237
aa(lp238
g28
(g32
S'\x00\x00\x00\x00\x00\x00\x00\x00'
p239
tp240
Rp241
aa(lp242
g28
(g32
S'\x00\x00\x00\x00\x00\x00\x00\x00'
p243
tp244
Rp245
aa(lp246
g28
(g32
S'\x00\x00\x00\x00\x00\x00\x00\x00'
p247
tp248
Rp249
aa(lp250
g28
(g32
S'\x00\x00\x00\x00\x00\x00\x00\x00'
p251
tp252
Rp253
aa(lp254
g28
(g32
S'\x00\x00\x00\x00\x00\x00\x00\x00'
p255
tp256
Rp257
aa(lp258
g28
(g32
S'\x00\x00\x00\x00\x00\x00\x00\x00'
p259
tp260
Rp261
aa(lp262
g28
(g32
S'\x00\x00\x00\x00\x00\x00\x00\x00'
p263
tp264
Rp265
aa(lp266
g28
(g32
S'\x00\x00\x00\x00\x00\x00\x00\x00'
p267
tp268
Rp269
aa(lp270
g28
(g32
S'\x00\x00\x00\x00\x00\x00\x00\x00'
p271
tp272
Rp273
aa(lp274
g28
(g32
S'\x00\x00\x00\x00\x00\x00\x00\x00'
p275
tp276
Rp277
aa(lp278
g28
(g32
S'\x00\x00\x00\x00\x00\x00\x00\x00'
p279
tp280
Rp281
aa(lp282
g28
(g32
S'\x00\x00\x00\x00\x00\x00\x00\x00'
p283
tp284
Rp285
aa(lp286
g28
(g32
S'\x00\x00\x00\x00\x00\x00\x00\x00'
p287
tp288
Rp289
aa(lp290
g28
(g32
S'\x00\x00\x00\x00\x00\x00\x00\x00'
p291
tp292
Rp293
aa(lp294
g28
(g32
S'\x00\x00\x00\x00\x00\x00\x00\x00'
p295
tp296
Rp297
aa(lp298
g28
(g32
S'\x00\x00\x00\x00\x00\x00\x00\x00'
p299
tp300
Rp301
aasg114
(lp302
(lp303
g28
(g32
S'\x00\x00\x00\x00\x00\x00\x00\x00'
p304
tp305
Rp306
aag303
a(lp307
g28
(g32
S'\x00\x00\x00\x00\x00\x00\x00\x00'
p308
tp309
Rp310
aa(lp311
g28
(g32
S'\x00\x00\x00\x00\x00\x00\x00\x00'
p312
tp313
Rp314
aa(lp315
g28
(g32
S'\x00\x00\x00\x00\x00\x00\x00\x00'
p316
tp317
Rp318
aa(lp319
g28
(g32
S'\x00\x00\x00\x00\x00\x00\x00\x00'
p320
tp321
Rp322
aa(lp323
g28
(g32
S'\x00\x00\x00\x00\x00\x00\x00\x00'
p324
tp325
Rp326
aa(lp327
g28
(g32
S'\x00\x00\x00\x00\x00\x00\x00\x00'
p328
tp329
Rp330
aa(lp331
g28
(g32
S'\x00\x00\x00\x00\x00\x00\x00\x00'
p332
tp333
Rp334
aa(lp335
g28
(g32
S'\x00\x00\x00\x00\x00\x00\x00\x00'
p336
tp337
Rp338
aa(lp339
g28
(g32
S'\x00\x00\x00\x00\x00\x00\x00\x00'
p340
tp341
Rp342
aa(lp343
g28
(g32
S'\x00\x00\x00\x00\x00\x00\x00\x00'
p344
tp345
Rp346
aa(lp347
g28
(g32
S'\x00\x00\x00\x00\x00\x00\x00\x00'
p348
tp349
Rp350
aa(lp351
g28
(g32
S'\x00\x00\x00\x00\x00\x00\x00\x00'
p352
tp353
Rp354
aa(lp355
g28
(g32
S'\x00\x00\x00\x00\x00\x00\x00\x00'
p356
tp357
Rp358
aa(lp359
g28
(g32
S'\x00\x00\x00\x00\x00\x00\x00\x00'
p360
tp361
Rp362
aa(lp363
g28
(g32
S'\x00\x00\x00\x00\x00\x00\x00\x00'
p364
tp365
Rp366
aa(lp367
g28
(g32
S'\x00\x00\x00\x00\x00\x00\x00\x00'
p368
tp369
Rp370
aa(lp371
g28
(g32
S'\x00\x00\x00\x00\x00\x00\x00\x00'
p372
tp373
Rp374
aa(lp375
g28
(g32
S'\x00\x00\x00\x00\x00\x00\x00\x00'
p376
tp377
Rp378
aa(lp379
g28
(g32
S'\x00\x00\x00\x00\x00\x00\x00\x00'
p380
tp381
Rp382
aasg196
(lp383
F1.9094669818878174
aF1.9094669818878174
aF1.9223029613494873
aF2.2311999797821045
aF2.2343690395355225
aF2.4696969985961914
aF2.6080379486083984
aF2.747136116027832
aF2.8015530109405518
aF2.635068893432617
aF2.7617928981781006
aF2.8493478298187256
aF2.798854112625122
aF1.9225029945373535
aF1.9073500633239746
aF1.8293249607086182
aF1.8154850006103516
aF1.6980488300323486
aF1.8085300922393799
aF2.057286024093628
aF2.229279041290283
assS'SS-H'
p384
(dp385
g3
(lp386
(lp387
I51
aag387
a(lp388
I51
aa(lp389
I51
aa(lp390
I51
aa(lp391
I51
aa(lp392
I51
aa(lp393
I51
aa(lp394
I51
aa(lp395
I51
aa(lp396
I51
aa(lp397
I51
aa(lp398
I51
aa(lp399
I51
aa(lp400
I51
aa(lp401
I51
aa(lp402
I51
aa(lp403
I51
aa(lp404
I51
aa(lp405
I51
aa(lp406
I51
aasg25
(lp407
(lp408
g28
(g32
S'\xa8\xc0\xf2 .~\x1c?'
p409
tp410
Rp411
aag408
a(lp412
g28
(g32
S'\xaa\x0c\x074;\xac"?'
p413
tp414
Rp415
aa(lp416
g28
(g32
S'q_\xf2\xa9\xbc\xa1\xc6>'
p417
tp418
Rp419
aa(lp420
g28
(g32
S'\xe8~1\xd0z\xfc!?'
p421
tp422
Rp423
aa(lp424
g28
(g32
S'\xa3\xe6\x9c\xd9Zc\x13?'
p425
tp426
Rp427
aa(lp428
g28
(g32
S'\xa0\xef\xf7\xfd\x96\xe1N?'
p429
tp430
Rp431
aa(lp432
g28
(g32
S'\x04k\xa5\xdf.\xbb\x19?'
p433
tp434
Rp435
aa(lp436
g28
(g32
S'\xaa\x0c\x074;\xac"?'
p437
tp438
Rp439
aa(lp440
g28
(g32
S'\x12\xba\x0bH\xf2H*?'
p441
tp442
Rp443
aa(lp444
g28
(g32
S'x\rD(\xcb\xa3+?'
p445
tp446
Rp447
aa(lp448
g28
(g32
S'HY\x0c\xd1\xc4\x8fN?'
p449
tp450
Rp451
aa(lp452
g28
(g32
S'\x8a\xf0\xefmb\xd1\xfb>'
p453
tp454
Rp455
aa(lp456
g28
(g32
S'\x86_=\x00~\xde\x14?'
p457
tp458
Rp459
aa(lp460
g28
(g32
S'1\xdf\x11.B\x91\x15?'
p461
tp462
Rp463
aa(lp464
g28
(g32
S'\xdf\x1d;\x11*\xdb ?'
p465
tp466
Rp467
aa(lp468
g28
(g32
S'\xaa\x0c\x074;\xac"?'
p469
tp470
Rp471
aa(lp472
g28
(g32
S'O#[\xb1o:\x1b?'
p473
tp474
Rp475
aa(lp476
g28
(g32
S'\xb6\x87\xc9\x8f\xbd\r.?'
p477
tp478
Rp479
aa(lp480
g28
(g32
S'\x8ay\xed\xd0\x9dt\xc8>'
p481
tp482
Rp483
aa(lp484
g28
(g32
S'\x12\xba\x0bH\xf2H*?'
p485
tp486
Rp487
aasg114
(lp488
(lp489
g28
(g32
S'\xb5\xbd\x0e\x8b\xdco\x10?'
p490
tp491
Rp492
aag489
a(lp493
g28
(g32
S'\x00\x00\x00\x00\x00\x00\x00\x00'
p494
tp495
Rp496
aa(lp497
g28
(g32
S'\x00\x00\x00\x00\x00\x00\x00\x00'
p498
tp499
Rp500
aa(lp501
g28
(g32
S'\xb5\xbd\x0e\x8b\xdco\x10?'
p502
tp503
Rp504
aa(lp505
g28
(g32
S'\x95\xfb\xadk\xa7\x9d\xf5>'
p506
tp507
Rp508
aa(lp509
g28
(g32
S"Y'\xb4\x07~^\x0c?"
p510
tp511
Rp512
aa(lp513
g28
(g32
S'\x00\x00\x00\x00\x00\x00\x00\x00'
p514
tp515
Rp516
aa(lp517
g28
(g32
S'\x00\x00\x00\x00\x00\x00\x00\x00'
p518
tp519
Rp520
aa(lp521
g28
(g32
S'\x05\xa2\x16\xf7\xeb\x86\xec>'
p522
tp523
Rp524
aa(lp525
g28
(g32
S'\xe6<\xab\xcbH\xb4\xc2>'
p526
tp527
Rp528
aa(lp529
g28
(g32
S'\x00Wb\xfeg\xb8\xca>'
p530
tp531
Rp532
aa(lp533
g28
(g32
S'\x00\x00\x00\x00\x00\x00\x00\x00'
p534
tp535
Rp536
aa(lp537
g28
(g32
S"Y'\xb4\x07~^\x0c?"
p538
tp539
Rp540
aa(lp541
g28
(g32
S'\x00\x00\x00\x00\x00\x00\x00\x00'
p542
tp543
Rp544
aa(lp545
g28
(g32
S'\x00\x00\x00\x00\x00\x00\x00\x00'
p546
tp547
Rp548
aa(lp549
g28
(g32
S'\x00\x00\x00\x00\x00\x00\x00\x00'
p550
tp551
Rp552
aa(lp553
g28
(g32
S'\x83\x91\x18=\x1ae\x0b?'
p554
tp555
Rp556
aa(lp557
g28
(g32
S'\xb0|\xc2\x90=6\xf0>'
p558
tp559
Rp560
aa(lp561
g28
(g32
S' \x0c\x96\xfeZa\xc7>'
p562
tp563
Rp564
aa(lp565
g28
(g32
S']\xa8\xf9%\x05)\xf2>'
p566
tp567
Rp568
aasg196
(lp569
F0.4377930164337158
aF0.4377930164337158
aF0.44008302688598633
aF0.3914458751678467
aF0.4181039333343506
aF0.4106638431549072
aF0.40309619903564453
aF0.4158949851989746
aF0.3995530605316162
aF0.42508697509765625
aF0.44556498527526855
aF0.4329648017883301
aF0.4479680061340332
aF0.43741297721862793
aF0.4206719398498535
aF0.3925950527191162
aF0.39467597007751465
aF0.41417598724365234
aF0.40414881706237793
aF0.4191780090332031
aF0.41117405891418457
assS'SS-K'
p570
(dp571
g3
(lp572
(lp573
I51
aag573
a(lp574
I51
aa(lp575
I51
aa(lp576
I51
aa(lp577
I51
aa(lp578
I51
aa(lp579
I51
aa(lp580
I51
aa(lp581
I51
aa(lp582
I51
aa(lp583
I51
aa(lp584
I51
aa(lp585
I51
aa(lp586
I51
aa(lp587
I51
aa(lp588
I51
aa(lp589
I51
aa(lp590
I51
aa(lp591
I51
aa(lp592
I51
aasg25
(lp593
(lp594
g28
(g32
S'\xd9\x16\xfdF+\xf7\x93?'
p595
tp596
Rp597
aag594
a(lp598
g28
(g32
S'T\xc3\xef#\xecB\x9a?'
p599
tp600
Rp601
aa(lp602
g28
(g32
S'>\xf4-vV\xcf\x82?'
p603
tp604
Rp605
aa(lp606
g28
(g32
S'\xf7\xe4\xbc";\x0bu?'
p607
tp608
Rp609
aa(lp610
g28
(g32
S'/\xb1N#\xb8\xd5}?'
p611
tp612
Rp613
aa(lp614
g28
(g32
S'L2\x91]\x9d\xa8d?'
p615
tp616
Rp617
aa(lp618
g28
(g32
S'\x81\xdeh\xff\x10\xf3\x95?'
p619
tp620
Rp621
aa(lp622
g28
(g32
S'\xe0\xe7\xe7\xf6:rk?'
p623
tp624
Rp625
aa(lp626
g28
(g32
S'\x91\xfaMJn\x90\x8e?'
p627
tp628
Rp629
aa(lp630
g28
(g32
S'\xb1\x12\x9b\xbbV\xbbl?'
p631
tp632
Rp633
aa(lp634
g28
(g32
S'N\xda\xe3\x98\xc8\x03d?'
p635
tp636
Rp637
aa(lp638
g28
(g32
S'\x96\xf8l({\xbe\x85?'
p639
tp640
Rp641
aa(lp642
g28
(g32
S'\xf8-\xc1\x9c\xf2\xdbb?'
p643
tp644
Rp645
aa(lp646
g28
(g32
S'\xa6\t\x85\xca\xc8\x9a\x98?'
p647
tp648
Rp649
aa(lp650
g28
(g32
S'\xb9\x8e\x15\xa6\x94\xdf\x87?'
p651
tp652
Rp653
aa(lp654
g28
(g32
S'\xc4\xee;]u\x8a\x89?'
p655
tp656
Rp657
aa(lp658
g28
(g32
S'5X\xce\xda\xb5\x06\x80?'
p659
tp660
Rp661
aa(lp662
g28
(g32
S'\x01\x1a\xa2\x1bf_j?'
p663
tp664
Rp665
aa(lp666
g28
(g32
S'\xf7\x17\xc1\xbd\x94Zz?'
p667
tp668
Rp669
aa(lp670
g28
(g32
S'\x7f\x13\xa7\x8e_\xc8p?'
p671
tp672
Rp673
aasg114
(lp674
(lp675
g28
(g32
S'\xf6\xcd\xc6 J\xf3%?'
p676
tp677
Rp678
aag675
a(lp679
g28
(g32
S'SMQ\x03\xd1$B?'
p680
tp681
Rp682
aa(lp683
g28
(g32
S'b\xf9\xb8\x96$\x8eT?'
p684
tp685
Rp686
aa(lp687
g28
(g32
S'vY\x8e\xdd\xf3\xebD?'
p688
tp689
Rp690
aa(lp691
g28
(g32
S'e\xdcu\xeb\xdf\xb5W?'
p692
tp693
Rp694
aa(lp695
g28
(g32
S'\x9fl\xe0\xfbx\xdfG?'
p696
tp697
Rp698
aa(lp699
g28
(g32
S'\x9b\x94\xfb\x87o\xef\r?'
p700
tp701
Rp702
aa(lp703
g28
(g32
S'l\xba+\xd9\xc7\x14W?'
p704
tp705
Rp706
aa(lp707
g28
(g32
S'\xb4\xac\x80\xfen\xd18?'
p708
tp709
Rp710
aa(lp711
g28
(g32
S'Gx\x9d\xa0\xf2\xb8<?'
p712
tp713
Rp714
aa(lp715
g28
(g32
S'\x8b/\tN\xf4\xad=?'
p716
tp717
Rp718
aa(lp719
g28
(g32
S'(\x0b\xb8D\x89\x9f6?'
p720
tp721
Rp722
aa(lp723
g28
(g32
S'\xb4b}^\xbc\xc1H?'
p724
tp725
Rp726
aa(lp727
g28
(g32
S'\x12\x18>\x9e\x89\xd2E?'
p728
tp729
Rp730
aa(lp731
g28
(g32
S'f\x8e\x06[Q K?'
p732
tp733
Rp734
aa(lp735
g28
(g32
S'2t\xcfC\x12_1?'
p736
tp737
Rp738
aa(lp739
g28
(g32
S'\xf2\xd7\xc9\xbd#\x8be?'
p740
tp741
Rp742
aa(lp743
g28
(g32
S'fM|@\xc3\x0eE?'
p744
tp745
Rp746
aa(lp747
g28
(g32
S'\xdd\\W0\xf5\x1ag?'
p748
tp749
Rp750
aa(lp751
g28
(g32
S'\x9eg\x81i\xa9\x82\\?'
p752
tp753
Rp754
aasg196
(lp755
F6.889775037765503
aF6.889775037765503
aF6.852134943008423
aF6.8307318687438965
aF6.948889970779419
aF6.726948976516724
aF6.706216096878052
aF6.641021013259888
aF6.873208999633789
aF7.102683067321777
aF6.846019983291626
aF6.701152801513672
aF6.929615020751953
aF6.855169057846069
aF7.03103494644165
aF6.785458087921143
aF7.10536789894104
aF6.886570930480957
aF6.884634971618652
aF6.803816080093384
aF6.946945905685425
assS'SS-J'
p756
(dp757
g3
(lp758
(lp759
I51
aag759
a(lp760
I51
aa(lp761
I51
aa(lp762
I51
aa(lp763
I51
aa(lp764
I51
aa(lp765
I51
aa(lp766
I51
aa(lp767
I51
aa(lp768
I51
aa(lp769
I51
aa(lp770
I51
aa(lp771
I51
aa(lp772
I51
aa(lp773
I51
aa(lp774
I51
aa(lp775
I51
aa(lp776
I51
aa(lp777
I51
aa(lp778
I51
aasg25
(lp779
(lp780
g28
(g32
S'\xdeC\x9c\xf0t\xfft?'
p781
tp782
Rp783
aag780
a(lp784
g28
(g32
S'\xe7\xb3*\xe2\x89v\xa1?'
p785
tp786
Rp787
aa(lp788
g28
(g32
S"&j\xf1'\xac\xe2\x8d?"
p789
tp790
Rp791
aa(lp792
g28
(g32
S'\x82\xe5e\x0b\xee\x0ei?'
p793
tp794
Rp795
aa(lp796
g28
(g32
S'FcAI\xce\xfd\x97?'
p797
tp798
Rp799
aa(lp800
g28
(g32
S'\xa9\xff\x99\xf0\xbc\x80d?'
p801
tp802
Rp803
aa(lp804
g28
(g32
S'jV1\x0e(\xe0d?'
p805
tp806
Rp807
aa(lp808
g28
(g32
S'\xa3WYy\x89\xa2\x85?'
p809
tp810
Rp811
aa(lp812
g28
(g32
S'\xbcu\x8b\x01[\xff\x91?'
p813
tp814
Rp815
aa(lp816
g28
(g32
S'-\x1d\xad7\x80\xe1g?'
p817
tp818
Rp819
aa(lp820
g28
(g32
S'~\x88\xcdB\x93L\x81?'
p821
tp822
Rp823
aa(lp824
g28
(g32
S'\xe2\x82\x83?\xa4-\x87?'
p825
tp826
Rp827
aa(lp828
g28
(g32
S'\xe1\xc3a\x11q\xdcy?'
p829
tp830
Rp831
aa(lp832
g28
(g32
S'\xb6\xb1\x02_nIs?'
p833
tp834
Rp835
aa(lp836
g28
(g32
S'*\n\x96vB|j?'
p837
tp838
Rp839
aa(lp840
g28
(g32
S'\x9f\xe6\xdd\xae\xfelL?'
p841
tp842
Rp843
aa(lp844
g28
(g32
S'\x83\x00\xeb4\x18\x1a\x97?'
p845
tp846
Rp847
aa(lp848
g28
(g32
S"8B>,\x89'l?"
p849
tp850
Rp851
aa(lp852
g28
(g32
S'U\x97\x04\xbb54d?'
p853
tp854
Rp855
aa(lp856
g28
(g32
S'\xcb\x17\xc5\xde\xd2"\x98?'
p857
tp858
Rp859
aasg114
(lp860
(lp861
g28
(g32
S't\xec{=\xd1\x12G?'
p862
tp863
Rp864
aag861
a(lp865
g28
(g32
S'C\xe2y\x0bi\x02C?'
p866
tp867
Rp868
aa(lp869
g28
(g32
S'\xe7\x8f\xbd\x1c\xe6\xc7:?'
p870
tp871
Rp872
aa(lp873
g28
(g32
S'@n`+G\xd8@?'
p874
tp875
Rp876
aa(lp877
g28
(g32
S'\x9d\xe2\x9d\xaag\x8d\x12?'
p878
tp879
Rp880
aa(lp881
g28
(g32
S'j\x1f\ng\x12B8?'
p882
tp883
Rp884
aa(lp885
g28
(g32
S'\xfc\xc97\xcb\xb2\xd7\x0b?'
p886
tp887
Rp888
aa(lp889
g28
(g32
S'\xd1\xf0\xb1\x04S\xa0R?'
p890
tp891
Rp892
aa(lp893
g28
(g32
S'\x05G%\xebul6?'
p894
tp895
Rp896
aa(lp897
g28
(g32
S'\x8b\x0b\rW\x00\x8b$?'
p898
tp899
Rp900
aa(lp901
g28
(g32
S'Z\x83\xc0\xacwQP?'
p902
tp903
Rp904
aa(lp905
g28
(g32
S'|)9d\x89\xf9\xe1>'
p906
tp907
Rp908
aa(lp909
g28
(g32
S'\xbe\x93\x1a\xc8\x1f\x806?'
p910
tp911
Rp912
aa(lp913
g28
(g32
S'^\x02%\xd6\x8a\xfd2?'
p914
tp915
Rp916
aa(lp917
g28
(g32
S'/?VM\xf9\xac\xf3>'
p918
tp919
Rp920
aa(lp921
g28
(g32
S'[o\x14\xb8\x19\xac0?'
p922
tp923
Rp924
aa(lp925
g28
(g32
S'\x92\xe6\xa1Z\xf8\x91\xfb>'
p926
tp927
Rp928
aa(lp929
g28
(g32
S'\x92\xb1l\x01\xf6\x914?'
p930
tp931
Rp932
aa(lp933
g28
(g32
S'c.\xc5\xf5\xe2(@?'
p934
tp935
Rp936
aa(lp937
g28
(g32
S'\x8d\xe3\x9eV@\xce0?'
p938
tp939
Rp940
aasg196
(lp941
F8.765237092971802
aF8.765237092971802
aF8.932277917861938
aF9.122289896011353
aF8.853462934494019
aF10.97773003578186
aF11.659311056137085
aF11.718048810958862
aF11.873664855957031
aF11.34831690788269
aF11.335608005523682
aF11.191703081130981
aF10.917739868164062
aF8.974004983901978
aF8.89642882347107
aF8.844377994537354
aF8.909492015838623
aF9.616185903549194
aF8.774444818496704
aF8.88992714881897
aF8.983652114868164
assS'SS-E'
p942
(dp943
g3
(lp944
(lp945
I51
aag945
a(lp946
I51
aa(lp947
I51
aa(lp948
I51
aa(lp949
I51
aa(lp950
I51
aa(lp951
I51
aa(lp952
I51
aa(lp953
I51
aa(lp954
I51
aa(lp955
I51
aa(lp956
I51
aa(lp957
I51
aa(lp958
I51
aa(lp959
I51
aa(lp960
I51
aa(lp961
I51
aa(lp962
I51
aa(lp963
I51
aa(lp964
I51
aasg25
(lp965
(lp966
g28
(g32
S'\x9a\x857\xd1~\x87\xa4?'
p967
tp968
Rp969
aag966
a(lp970
g28
(g32
S'\xa5\xcf/>x\xf3\xa0?'
p971
tp972
Rp973
aa(lp974
g28
(g32
S'\xfc\xdeZ\x1a\x03\xfc\xa3?'
p975
tp976
Rp977
aa(lp978
g28
(g32
S'\xc5Y\xc2\x80\xfaM\xa2?'
p979
tp980
Rp981
aa(lp982
g28
(g32
S'B\xc5(\xbb\x94\x0c\x8f?'
p983
tp984
Rp985
aa(lp986
g28
(g32
S'\x12\x11\xde\xa9\x80&\x84?'
p987
tp988
Rp989
aa(lp990
g28
(g32
S'\xe8(\xcd\xdb\xd9\xdd\x7f?'
p991
tp992
Rp993
aa(lp994
g28
(g32
S'\x97u\xd7\xef\x90\xa7\x90?'
p995
tp996
Rp997
aa(lp998
g28
(g32
S'\xe1\xedC\xeeuJ\x95?'
p999
tp1000
Rp1001
aa(lp1002
g28
(g32
S'2c\x8c\xef\xec\xe0\xa6?'
p1003
tp1004
Rp1005
aa(lp1006
g28
(g32
S'\xd7\x1b {L3\x94?'
p1007
tp1008
Rp1009
aa(lp1010
g28
(g32
S'\x7f\xf1[q\xcec\x97?'
p1011
tp1012
Rp1013
aa(lp1014
g28
(g32
S'o\x12\xe3\x07\xc9\xf0\x99?'
p1015
tp1016
Rp1017
aa(lp1018
g28
(g32
S'ZJ\xad\x95\xcdi\xab?'
p1019
tp1020
Rp1021
aa(lp1022
g28
(g32
S'\xbd\xefY\xb0\xf6\xbe\x93?'
p1023
tp1024
Rp1025
aa(lp1026
g28
(g32
S'V\x08\xe1"w\xb2\x8e?'
p1027
tp1028
Rp1029
aa(lp1030
g28
(g32
S'6\x8b\x9a%\x1d\x9a\xa1?'
p1031
tp1032
Rp1033
aa(lp1034
g28
(g32
S'\xe9Y\xb0@K\xe9\x9f?'
p1035
tp1036
Rp1037
aa(lp1038
g28
(g32
S'G\xf1B\xc4k\xda\x8b?'
p1039
tp1040
Rp1041
aa(lp1042
g28
(g32
S'\x8a\x1d8\x9d4S\x9c?'
p1043
tp1044
Rp1045
aasg114
(lp1046
(lp1047
g28
(g32
S'7/5\xfc.q\xa7?'
p1048
tp1049
Rp1050
aag1047
a(lp1051
g28
(g32
S'\xc5\x01\x85i\x808}?'
p1052
tp1053
Rp1054
aa(lp1055
g28
(g32
S'\xd1O\x8fP\xca\x0cq?'
p1056
tp1057
Rp1058
aa(lp1059
g28
(g32
S'\xf7\x8f\x10\xae\xd9[x?'
p1060
tp1061
Rp1062
aa(lp1063
g28
(g32
S'\x85\xc9\x11b\x05\x9a9?'
p1064
tp1065
Rp1066
aa(lp1067
g28
(g32
S'?\x8b\x033\x1aL`?'
p1068
tp1069
Rp1070
aa(lp1071
g28
(g32
S'3\xffl\xb8\x8aLI?'
p1072
tp1073
Rp1074
aa(lp1075
g28
(g32
S'\xd2\x8a\x9dlF\xa6u?'
p1076
tp1077
Rp1078
aa(lp1079
g28
(g32
S'R\x8d\xd7\xdf\xdf,b?'
p1080
tp1081
Rp1082
aa(lp1083
g28
(g32
S'\xf7\x84\x7f\x14a\xe1\xa5?'
p1084
tp1085
Rp1086
aa(lp1087
g28
(g32
S'\x0c\x9a\x93\xf7\x11o\x19?'
p1088
tp1089
Rp1090
aa(lp1091
g28
(g32
S'\xef\xd5 \x18\x10\x16U?'
p1092
tp1093
Rp1094
aa(lp1095
g28
(g32
S'\x01K\xf0\xaeb\x0eC?'
p1096
tp1097
Rp1098
aa(lp1099
g28
(g32
S'\x9f\xe9\x9f\x7f\xe2\x8b1?'
p1100
tp1101
Rp1102
aa(lp1103
g28
(g32
S'\x8a*g3\xcb\x1fZ?'
p1104
tp1105
Rp1106
aa(lp1107
g28
(g32
S'\x9ew\x0e\x11O\x13u?'
p1108
tp1109
Rp1110
aa(lp1111
g28
(g32
S'g=\xcc\xe1Sc\xa9?'
p1112
tp1113
Rp1114
aa(lp1115
g28
(g32
S'R\xe8\x9d1w\xa6t?'
p1116
tp1117
Rp1118
aa(lp1119
g28
(g32
S']p\xc1VC\x02n?'
p1120
tp1121
Rp1122
aa(lp1123
g28
(g32
S'\xc0\x82/{\xb3\x11n?'
p1124
tp1125
Rp1126
aasg196
(lp1127
F2.7304420471191406
aF2.7304420471191406
aF2.745128870010376
aF1.9783189296722412
aF1.9892058372497559
aF1.6433939933776855
aF1.636362075805664
aF1.5940089225769043
aF1.6143391132354736
aF1.6559958457946777
aF1.6191229820251465
aF1.6731250286102295
aF1.7969930171966553
aF2.734071969985962
aF2.5173869132995605
aF2.062437057495117
aF2.053189992904663
aF1.951807975769043
aF1.8993618488311768
aF1.9983789920806885
aF1.934718132019043
assS'SS-D'
p1128
(dp1129
g3
(lp1130
(lp1131
I51
aag1131
a(lp1132
I51
aa(lp1133
I51
aa(lp1134
I51
aa(lp1135
I51
aa(lp1136
I51
aa(lp1137
I51
aa(lp1138
I51
aa(lp1139
I51
aa(lp1140
I51
aa(lp1141
I51
aa(lp1142
I51
aa(lp1143
I51
aa(lp1144
I51
aa(lp1145
I51
aa(lp1146
I51
aa(lp1147
I51
aa(lp1148
I51
aa(lp1149
I51
aa(lp1150
I51
aasg25
(lp1151
(lp1152
g28
(g32
S']\xab\xa9\xc4\xcfU\x81?'
p1153
tp1154
Rp1155
aag1152
a(lp1156
g28
(g32
S'\xb3\xc9\xe5\xf7u\x9d\xa4?'
p1157
tp1158
Rp1159
aa(lp1160
g28
(g32
S'\xf5\x9fr\x93Cw\x9d?'
p1161
tp1162
Rp1163
aa(lp1164
g28
(g32
S's\tlpO\xa2\xa9?'
p1165
tp1166
Rp1167
aa(lp1168
g28
(g32
S'Z\xa0\x96\xbf\xbd\x12\xa9?'
p1169
tp1170
Rp1171
aa(lp1172
g28
(g32
S'\xcb\xd7\x8d\xaf\xba\xdc\xa2?'
p1173
tp1174
Rp1175
aa(lp1176
g28
(g32
S'\t\xf957\xf5\xa0\xa4?'
p1177
tp1178
Rp1179
aa(lp1180
g28
(g32
S'\x16\xa1\x81eI\xbe\xaa?'
p1181
tp1182
Rp1183
aa(lp1184
g28
(g32
S'\xd1\xa9\xa1\xc9\xfcy\xa8?'
p1185
tp1186
Rp1187
aa(lp1188
g28
(g32
S's\x17\x1a|\xd8\x18\xa9?'
p1189
tp1190
Rp1191
aa(lp1192
g28
(g32
S'\x0b\x8as\xd6S\xb3\x92?'
p1193
tp1194
Rp1195
aa(lp1196
g28
(g32
S'\x91\xaf\x87\xde;\xc5\xa6?'
p1197
tp1198
Rp1199
aa(lp1200
g28
(g32
S'`\xae\xfcZ4\xec\xab?'
p1201
tp1202
Rp1203
aa(lp1204
g28
(g32
S'dME\tl#\xaa?'
p1205
tp1206
Rp1207
aa(lp1208
g28
(g32
S'\xa0\x06V;\xe0}\x94?'
p1209
tp1210
Rp1211
aa(lp1212
g28
(g32
S'V\xf3K\x8d)\xf7\xa7?'
p1213
tp1214
Rp1215
aa(lp1216
g28
(g32
S'\x13\xacA \xfb/\x96?'
p1217
tp1218
Rp1219
aa(lp1220
g28
(g32
S'>\xf8\x19\x96\x90\x16\x97?'
p1221
tp1222
Rp1223
aa(lp1224
g28
(g32
S'\r\x87\xe4v\x93;\x9c?'
p1225
tp1226
Rp1227
aa(lp1228
g28
(g32
S'\xb2\xb9~=!\xc0\xb1?'
p1229
tp1230
Rp1231
aasg114
(lp1232
(lp1233
g28
(g32
S'!\xee!\x11\xa9\xd2~?'
p1234
tp1235
Rp1236
aag1233
a(lp1237
g28
(g32
S'\xeb\x9e1\xae\xfc{\xec>'
p1238
tp1239
Rp1240
aa(lp1241
g28
(g32
S'k]\xde\x96A1k?'
p1242
tp1243
Rp1244
aa(lp1245
g28
(g32
S'\xaa\xf7\xfc\x99\xf48\x17?'
p1246
tp1247
Rp1248
aa(lp1249
g28
(g32
S'\x95\xf1\x8a\xea\xdd9\x07?'
p1250
tp1251
Rp1252
aa(lp1253
g28
(g32
S'\xba\\\x05\xf4\xd1\xf2v?'
p1254
tp1255
Rp1256
aa(lp1257
g28
(g32
S'T\x18/\x10Y\x9d\xf4>'
p1258
tp1259
Rp1260
aa(lp1261
g28
(g32
S'\xf2\x94c\x87\xd3\x909?'
p1262
tp1263
Rp1264
aa(lp1265
g28
(g32
S'\x00\x00\x00\x00\x00\x00\x00\x00'
p1266
tp1267
Rp1268
aa(lp1269
g28
(g32
S']\x83{\x82\x93\x18\xf5>'
p1270
tp1271
Rp1272
aa(lp1273
g28
(g32
S'sB9\xba\x0c\x8a\x85?'
p1274
tp1275
Rp1276
aa(lp1277
g28
(g32
S'T\xdb\xd9%\x0c\xd6S?'
p1278
tp1279
Rp1280
aa(lp1281
g28
(g32
S'\xb8s\xb2\xc8H9\xaa?'
p1282
tp1283
Rp1284
aa(lp1285
g28
(g32
S'\xd3\xe8\x80\xd1W}I?'
p1286
tp1287
Rp1288
aa(lp1289
g28
(g32
S'u\x88\xf4\xc9\xd1\xdf\x94?'
p1290
tp1291
Rp1292
aa(lp1293
g28
(g32
S"{\xd5\x8cB\xd3'8?"
p1294
tp1295
Rp1296
aa(lp1297
g28
(g32
S'-1\xe9K\x8f\x8e\x8e?'
p1298
tp1299
Rp1300
aa(lp1301
g28
(g32
S'\xc0a^\x18[\xee\x8c?'
p1302
tp1303
Rp1304
aa(lp1305
g28
(g32
S'\xe2\xa5H\xba\xb01\x8d?'
p1306
tp1307
Rp1308
aa(lp1309
g28
(g32
S'\xac4;\x87\xf1p\x01?'
p1310
tp1311
Rp1312
aasg196
(lp1313
F0.44597887992858887
aF0.44597887992858887
aF0.44016098976135254
aF0.4467620849609375
aF0.4550020694732666
aF0.4739201068878174
aF0.444443941116333
aF0.47527289390563965
aF0.4679861068725586
aF0.43616700172424316
aF0.41944217681884766
aF0.4488859176635742
aF0.4596271514892578
aF0.4548299312591553
aF0.4179270267486572
aF0.45496201515197754
aF0.4456050395965576
aF0.4447050094604492
aF0.45197510719299316
aF0.44890499114990234
aF0.4562869071960449
assS'SS-G'
p1314
(dp1315
g3
(lp1316
(lp1317
I51
aag1317
a(lp1318
I51
aa(lp1319
I51
aa(lp1320
I51
aa(lp1321
I51
aa(lp1322
I51
aa(lp1323
I51
aa(lp1324
I51
aa(lp1325
I51
aa(lp1326
I51
aa(lp1327
I51
aa(lp1328
I51
aa(lp1329
I51
aa(lp1330
I51
aa(lp1331
I51
aa(lp1332
I51
aa(lp1333
I51
aa(lp1334
I51
aa(lp1335
I51
aa(lp1336
I51
aasg25
(lp1337
(lp1338
g28
(g32
S'\xd5AGSg\x8fm?'
p1339
tp1340
Rp1341
aag1338
a(lp1342
g28
(g32
S'\xa9 >\xa0\xa7>\x95?'
p1343
tp1344
Rp1345
aa(lp1346
g28
(g32
S'\xe7\x0f\t\xfe\x85\xd2\xab?'
p1347
tp1348
Rp1349
aa(lp1350
g28
(g32
S'\x808:*fK\xbc?'
p1351
tp1352
Rp1353
aa(lp1354
g28
(g32
S'\xab\xe3Q{\xe8\x1c\x98?'
p1355
tp1356
Rp1357
aa(lp1358
g28
(g32
S'\xaes\xaf19R\xaa?'
p1359
tp1360
Rp1361
aa(lp1362
g28
(g32
S'\x00$\xa4\x941\xec\xa5?'
p1363
tp1364
Rp1365
aa(lp1366
g28
(g32
S"\xff\xb3'|\x8a\xf5\x81?"
p1367
tp1368
Rp1369
aa(lp1370
g28
(g32
S'\x9fG\x13\xc1a)\x98?'
p1371
tp1372
Rp1373
aa(lp1374
g28
(g32
S'\x7f#\x08\xcd\xac_\x96?'
p1375
tp1376
Rp1377
aa(lp1378
g28
(g32
S'\xf1fx \t\x0b\xab?'
p1379
tp1380
Rp1381
aa(lp1382
g28
(g32
S'\xcf\xa8?\xba\xc4~\x81?'
p1383
tp1384
Rp1385
aa(lp1386
g28
(g32
S'\x9d\xa3t\xf9\xb7\xa0\xa2?'
p1387
tp1388
Rp1389
aa(lp1390
g28
(g32
S'\xb9}\xe6M^\x1b\xbd?'
p1391
tp1392
Rp1393
aa(lp1394
g28
(g32
S'O\xde\xb6\x99A\xaa\x94?'
p1395
tp1396
Rp1397
aa(lp1398
g28
(g32
S'\xe2:\x93\xc6\x8aS\xa5?'
p1399
tp1400
Rp1401
aa(lp1402
g28
(g32
S'kQ\x15\x83P\xbe\xaf?'
p1403
tp1404
Rp1405
aa(lp1406
g28
(g32
S'\xfe\xc9\xc4\xf4\xe5$\xbd?'
p1407
tp1408
Rp1409
aa(lp1410
g28
(g32
S'8\x1e\x81N\xc1v\xbd?'
p1411
tp1412
Rp1413
aa(lp1414
g28
(g32
S'\xe6-"\x00\xdf0\x9b?'
p1415
tp1416
Rp1417
aasg114
(lp1418
(lp1419
g28
(g32
S'[1\x08>=wF?'
p1420
tp1421
Rp1422
aag1419
a(lp1423
g28
(g32
S'S-g\t,\xe4\x94?'
p1424
tp1425
Rp1426
aa(lp1427
g28
(g32
S'\xe2\x85{\x8e\xd2\xbe\x8a?'
p1428
tp1429
Rp1430
aa(lp1431
g28
(g32
S'\x00\x00\x00\x00\x00\x00\x00\x00'
p1432
tp1433
Rp1434
aa(lp1435
g28
(g32
S'\x03\\\x19\x85\x83&\x91?'
p1436
tp1437
Rp1438
aa(lp1439
g28
(g32
S'\x96\xafC\xa8a\xd7\x92?'
p1440
tp1441
Rp1442
aa(lp1443
g28
(g32
S'\xfcM\xc9\xa4\xae:\x97?'
p1444
tp1445
Rp1446
aa(lp1447
g28
(g32
S'Q\xe4\xe5;\x81\xfbr?'
p1448
tp1449
Rp1450
aa(lp1451
g28
(g32
S'\xdb\xdc\x8e\x11)\xd2;?'
p1452
tp1453
Rp1454
aa(lp1455
g28
(g32
S'v\x7f\x01\x89\r@A?'
p1456
tp1457
Rp1458
aa(lp1459
g28
(g32
S'\x1e \x95P\xc8\xf4\x91?'
p1460
tp1461
Rp1462
aa(lp1463
g28
(g32
S'\x87\x12\xab\xec\x99\xddy?'
p1464
tp1465
Rp1466
aa(lp1467
g28
(g32
S'\xab-2Y\xad5}?'
p1468
tp1469
Rp1470
aa(lp1471
g28
(g32
S'\xe5\x8a\xd4w\xf5iE?'
p1472
tp1473
Rp1474
aa(lp1475
g28
(g32
S'\xaa\x1e\xedV\x96\xbaS?'
p1476
tp1477
Rp1478
aa(lp1479
g28
(g32
S'\x88\x89\xc1\x90l\x18\x98?'
p1480
tp1481
Rp1482
aa(lp1483
g28
(g32
S't\xe4\xf5COOk?'
p1484
tp1485
Rp1486
aa(lp1487
g28
(g32
S'e\xe4\xbe\x9d\x02\xe2-?'
p1488
tp1489
Rp1490
aa(lp1491
g28
(g32
S'8q\xea\x88\x861\x1a?'
p1492
tp1493
Rp1494
aa(lp1495
g28
(g32
S'0\x81\x9c\xd6\x16+\x98?'
p1496
tp1497
Rp1498
aasg196
(lp1499
F0.6415150165557861
aF0.6415150165557861
aF0.630972146987915
aF0.3453211784362793
aF0.33460211753845215
aF0.3447701930999756
aF0.35660791397094727
aF0.35822296142578125
aF0.3456399440765381
aF0.3227248191833496
aF0.3210139274597168
aF0.3202681541442871
aF0.33284807205200195
aF0.6353068351745605
aF0.4722139835357666
aF0.45160889625549316
aF0.4659268856048584
aF0.44344186782836914
aF0.428692102432251
aF0.33611488342285156
aF0.3497450351715088
assS'SS-F'
p1500
(dp1501
g3
(lp1502
(lp1503
I51
aag1503
a(lp1504
I51
aa(lp1505
I51
aa(lp1506
I51
aa(lp1507
I51
aa(lp1508
I51
aa(lp1509
I51
aa(lp1510
I51
aa(lp1511
I51
aa(lp1512
I51
aa(lp1513
I51
aa(lp1514
I51
aa(lp1515
I51
aa(lp1516
I51
aa(lp1517
I51
aa(lp1518
I51
aa(lp1519
I51
aa(lp1520
I51
aa(lp1521
I51
aa(lp1522
I51
aasg25
(lp1523
(lp1524
g28
(g32
S'\x9a\xb9\xeaY?\xab|?'
p1525
tp1526
Rp1527
aag1524
a(lp1528
g28
(g32
S'\xa4\x00\x84$w\xce\x91?'
p1529
tp1530
Rp1531
aa(lp1532
g28
(g32
S'\x1aw\x01E1\xcc\xb5?'
p1533
tp1534
Rp1535
aa(lp1536
g28
(g32
S'9D\xcc\xbf\xd4\x90\x8b?'
p1537
tp1538
Rp1539
aa(lp1540
g28
(g32
S'?\xe4\x14\xc0\xba\x81\x83?'
p1541
tp1542
Rp1543
aa(lp1544
g28
(g32
S'e\xe8\x98\x8cj\x8d\xb4?'
p1545
tp1546
Rp1547
aa(lp1548
g28
(g32
S'q\x15\x189\xf1\xfd\x91?'
p1549
tp1550
Rp1551
aa(lp1552
g28
(g32
S'\xf7\xa9;\xa4\x8b\x13\x97?'
p1553
tp1554
Rp1555
aa(lp1556
g28
(g32
S'e/\x19\xbf\x17\x85\x97?'
p1557
tp1558
Rp1559
aa(lp1560
g28
(g32
S':\x9b64T\x90\x9b?'
p1561
tp1562
Rp1563
aa(lp1564
g28
(g32
S'\xe6q\xdc\x1e\xec\xda\x84?'
p1565
tp1566
Rp1567
aa(lp1568
g28
(g32
S'\xc0\x99/c\xa2\xb1\xac?'
p1569
tp1570
Rp1571
aa(lp1572
g28
(g32
S'>\x83\x88S\xdc\x84\x96?'
p1573
tp1574
Rp1575
aa(lp1576
g28
(g32
S'\xb9\xf9\xc3"2\xf4y?'
p1577
tp1578
Rp1579
aa(lp1580
g28
(g32
S'\x0b:\xadn\x1b\xf3\x83?'
p1581
tp1582
Rp1583
aa(lp1584
g28
(g32
S'\xa3\x9e\x88\x9a-M\x8d?'
p1585
tp1586
Rp1587
aa(lp1588
g28
(g32
S'j\x94\x97\x9e\xef\xe3\x9d?'
p1589
tp1590
Rp1591
aa(lp1592
g28
(g32
S'b4\xfe\xcbA\x05\xb6?'
p1593
tp1594
Rp1595
aa(lp1596
g28
(g32
S'}\xecW\xcch\x05\x95?'
p1597
tp1598
Rp1599
aa(lp1600
g28
(g32
S'\x1a\xedq\xef\x92\x9e\x8d?'
p1601
tp1602
Rp1603
aasg114
(lp1604
(lp1605
g28
(g32
S'nr\xbf\xcdY\xd5.?'
p1606
tp1607
Rp1608
aag1605
a(lp1609
g28
(g32
S'[$>m\x1d\xb6\x93?'
p1610
tp1611
Rp1612
aa(lp1613
g28
(g32
S"\x0b'\xd8\xdb\xd0\x1a>?"
p1614
tp1615
Rp1616
aa(lp1617
g28
(g32
S'\xa6\xa1]M8|\x96?'
p1618
tp1619
Rp1620
aa(lp1621
g28
(g32
S'\xbd\x82Z-\xea\xb5\x9e?'
p1622
tp1623
Rp1624
aa(lp1625
g28
(g32
S'\x1f\xd1#Z.\xb6\x1d?'
p1626
tp1627
Rp1628
aa(lp1629
g28
(g32
S'T\rj\xe35\x04\xa2?'
p1630
tp1631
Rp1632
aa(lp1633
g28
(g32
S'*\xc0k\x03\x004\xa1?'
p1634
tp1635
Rp1636
aa(lp1637
g28
(g32
S'\x18\xd8\x15C}Q\xa2?'
p1638
tp1639
Rp1640
aa(lp1641
g28
(g32
S'\xe1\x95yu\xd0\x9f\xb2?'
p1642
tp1643
Rp1644
aa(lp1645
g28
(g32
S'0;&\xb4\xcc\xef\x93?'
p1646
tp1647
Rp1648
aa(lp1649
g28
(g32
S'\x85\xf2Q#\x9e\xf3\x88?'
p1650
tp1651
Rp1652
aa(lp1653
g28
(g32
S'\x8eIx\xfc\xfc\\\x8f?'
p1654
tp1655
Rp1656
aa(lp1657
g28
(g32
S'\xa9\x122\x81U\x85}?'
p1658
tp1659
Rp1660
aa(lp1661
g28
(g32
S'Y\xe00\xear\xab\x92?'
p1662
tp1663
Rp1664
aa(lp1665
g28
(g32
S'\x9f\xbf\x1f]im\xa1?'
p1666
tp1667
Rp1668
aa(lp1669
g28
(g32
S'\xa0:\xa8\xa2\xc9T\x9d?'
p1670
tp1671
Rp1672
aa(lp1673
g28
(g32
S';\xf0\x89\xbd\x95\xbc-?'
p1674
tp1675
Rp1676
aa(lp1677
g28
(g32
S'\x83\xe9[\xce\xa3\x1e\x95?'
p1678
tp1679
Rp1680
aa(lp1681
g28
(g32
S'\x8e\x1d\x12\xe70t\x8b?'
p1682
tp1683
Rp1684
aasg196
(lp1685
F0.32591986656188965
aF0.32591986656188965
aF0.31992197036743164
aF0.32227182388305664
aF0.3346707820892334
aF0.3180701732635498
aF0.29689812660217285
aF0.3128058910369873
aF0.32732415199279785
aF0.30812811851501465
aF0.31333303451538086
aF0.3145790100097656
aF0.3132948875427246
aF0.3240368366241455
aF0.3479878902435303
aF0.31099414825439453
aF0.3130671977996826
aF0.3171570301055908
aF0.32801198959350586
aF0.3401970863342285
aF0.3219258785247803
assS'SS-A'
p1686
(dp1687
g3
(lp1688
(lp1689
I51
aag1689
a(lp1690
I51
aa(lp1691
I51
aa(lp1692
I51
aa(lp1693
I51
aa(lp1694
I51
aa(lp1695
I51
aa(lp1696
I51
aa(lp1697
I51
aa(lp1698
I51
aa(lp1699
I51
aa(lp1700
I51
aa(lp1701
I51
aa(lp1702
I51
aa(lp1703
I51
aa(lp1704
I51
aa(lp1705
I51
aa(lp1706
I51
aa(lp1707
I51
aa(lp1708
I51
aasg25
(lp1709
(lp1710
g28
(g32
S'\x00\x00\x00\x00\x00\x00\x00\x00'
p1711
tp1712
Rp1713
aag1710
a(lp1714
g28
(g32
S'W\x8aD\xf8\xc9\x1cT?'
p1715
tp1716
Rp1717
aa(lp1718
g28
(g32
S'\x98U\xdbM\x95\xc7\xf8>'
p1719
tp1720
Rp1721
aa(lp1722
g28
(g32
S'\xd7c\xc0\xeb\x8e\xa5\t?'
p1723
tp1724
Rp1725
aa(lp1726
g28
(g32
S'\xd5x\x9cz\xca\xff\x14?'
p1727
tp1728
Rp1729
aa(lp1730
g28
(g32
S'\x00\x00\x00\x00\x00\x00\x00\x00'
p1731
tp1732
Rp1733
aa(lp1734
g28
(g32
S'x\x0e\x0cRG\xb27?'
p1735
tp1736
Rp1737
aa(lp1738
g28
(g32
S'\x98\x11\xf8\xca\x9b\xe5o?'
p1739
tp1740
Rp1741
aa(lp1742
g28
(g32
S'`|&\x13\xc7\x9cN?'
p1743
tp1744
Rp1745
aa(lp1746
g28
(g32
S'@\x1d\xac\x8eI\xe4\x06?'
p1747
tp1748
Rp1749
aa(lp1750
g28
(g32
S'\x00\x00\x00\x00\x00\x00\x00\x00'
p1751
tp1752
Rp1753
aa(lp1754
g28
(g32
S'\x00\x00\x00\x00\x00\x00\x00\x00'
p1755
tp1756
Rp1757
aa(lp1758
g28
(g32
S'Y\x078\xb3*x\x87>'
p1759
tp1760
Rp1761
aa(lp1762
g28
(g32
S'\xb3|\xec1Y\xb98?'
p1763
tp1764
Rp1765
aa(lp1766
g28
(g32
S'\x97i\x06{\xff\xb8@?'
p1767
tp1768
Rp1769
aa(lp1770
g28
(g32
S'W\xb1\x9c\xb3\x92\x05\xff>'
p1771
tp1772
Rp1773
aa(lp1774
g28
(g32
S'\xd7c\xc0\xeb\x8e\xa5\t?'
p1775
tp1776
Rp1777
aa(lp1778
g28
(g32
S'\x82Y^ \xe4\x82\x10?'
p1779
tp1780
Rp1781
aa(lp1782
g28
(g32
S'\xf4c/\x04\x11\xdf5?'
p1783
tp1784
Rp1785
aa(lp1786
g28
(g32
S'\xd7c\xc0\xeb\x8e\xa5\t?'
p1787
tp1788
Rp1789
aasg114
(lp1790
(lp1791
g28
(g32
S'\x00\x00\x00\x00\x00\x00\x00\x00'
p1792
tp1793
Rp1794
aag1791
a(lp1795
g28
(g32
S'\xd4\xf5\xb2\x1e\xe9j\x06?'
p1796
tp1797
Rp1798
aa(lp1799
g28
(g32
S'\xc4S\xb7\xdb&\x07\xf0>'
p1800
tp1801
Rp1802
aa(lp1803
g28
(g32
S'\x00\x00\x00\x00\x00\x00\x00\x00'
p1804
tp1805
Rp1806
aa(lp1807
g28
(g32
S'\x83*\n\xb5\xf3bI?'
p1808
tp1809
Rp1810
aa(lp1811
g28
(g32
S'\x00\x00\x00\x00\x00\x00\x00\x00'
p1812
tp1813
Rp1814
aa(lp1815
g28
(g32
S'M\x93W\xf5X\xe8M?'
p1816
tp1817
Rp1818
aa(lp1819
g28
(g32
S'2\xe5\xc4T\xbb\xd0g?'
p1820
tp1821
Rp1822
aa(lp1823
g28
(g32
S"\xf5\x1f\x8c\x9dw'P?"
p1824
tp1825
Rp1826
aa(lp1827
g28
(g32
S':k\xdb\xb1l\x83\x19?'
p1828
tp1829
Rp1830
aa(lp1831
g28
(g32
S'\x00\x00\x00\x00\x00\x00\x00\x00'
p1832
tp1833
Rp1834
aa(lp1835
g28
(g32
S'\x00\x00\x00\x00\x00\x00\x00\x00'
p1836
tp1837
Rp1838
aa(lp1839
g28
(g32
S'\xea\x9d\xcc\x9eQ\xb1\xe6>'
p1840
tp1841
Rp1842
aa(lp1843
g28
(g32
S'\xb0\xea+3\xfd\xa9^?'
p1844
tp1845
Rp1846
aa(lp1847
g28
(g32
S'B\x14,m\xe8\xc7\x05?'
p1848
tp1849
Rp1850
aa(lp1851
g28
(g32
S'\x17\xad^\xe1A?U?'
p1852
tp1853
Rp1854
aa(lp1855
g28
(g32
S'\x00\x00\x00\x00\x00\x00\x00\x00'
p1856
tp1857
Rp1858
aa(lp1859
g28
(g32
S'\xcc\xf2\xc2\x15S\xbeD?'
p1860
tp1861
Rp1862
aa(lp1863
g28
(g32
S'(\xe9\x02\xe4\xf3\x88#?'
p1864
tp1865
Rp1866
aa(lp1867
g28
(g32
S'\x00\x00\x00\x00\x00\x00\x00\x00'
p1868
tp1869
Rp1870
aasg196
(lp1871
F2.890631914138794
aF2.890631914138794
aF2.9445409774780273
aF2.740358829498291
aF2.814289093017578
aF3.1967880725860596
aF3.1635420322418213
aF3.217750072479248
aF3.1023590564727783
aF2.5836710929870605
aF2.564539909362793
aF2.5559020042419434
aF2.53262996673584
aF2.8731460571289062
aF2.861747980117798
aF2.1232540607452393
aF2.099963903427124
aF2.0611720085144043
aF2.0972020626068115
aF2.7595129013061523
aF2.731492042541504
assS'SS-C'
p1872
(dp1873
g3
(lp1874
(lp1875
I51
aag1875
a(lp1876
I51
aa(lp1877
I51
aa(lp1878
I51
aa(lp1879
I51
aa(lp1880
I51
aa(lp1881
I51
aa(lp1882
I51
aa(lp1883
I51
aa(lp1884
I51
aa(lp1885
I51
aa(lp1886
I51
aa(lp1887
I51
aa(lp1888
I51
aa(lp1889
I51
aa(lp1890
I51
aa(lp1891
I51
aa(lp1892
I51
aa(lp1893
I51
aa(lp1894
I51
aasg25
(lp1895
(lp1896
g28
(g32
S'|\x08\r\xf6\xb9\x80p?'
p1897
tp1898
Rp1899
aag1896
a(lp1900
g28
(g32
S'0~\x93\x00\xf1Lj?'
p1901
tp1902
Rp1903
aa(lp1904
g28
(g32
S'0X\x83r\x0e\xe7\x19?'
p1905
tp1906
Rp1907
aa(lp1908
g28
(g32
S'\x8f\x85\x8e\xa1#\x18e?'
p1909
tp1910
Rp1911
aa(lp1912
g28
(g32
S'\xc2z"c\x07*g?'
p1913
tp1914
Rp1915
aa(lp1916
g28
(g32
S'\xeda\xbdD\xffYl?'
p1917
tp1918
Rp1919
aa(lp1920
g28
(g32
S'\xc4\xaa0|\x0e4i?'
p1921
tp1922
Rp1923
aa(lp1924
g28
(g32
S'{6\x14e\xb2\xecd?'
p1925
tp1926
Rp1927
aa(lp1928
g28
(g32
S'\xd0\xab\x06n\xe3He?'
p1929
tp1930
Rp1931
aa(lp1932
g28
(g32
S'\xb8\xbf1\xf9\xc3\x8a^?'
p1933
tp1934
Rp1935
aa(lp1936
g28
(g32
S'M\x01Cr\x8f\xc5g?'
p1937
tp1938
Rp1939
aa(lp1940
g28
(g32
S'\x00\x00\x00\x00\x00\x00\x00\x00'
p1941
tp1942
Rp1943
aa(lp1944
g28
(g32
S'\xfeH`_\xd44e?'
p1945
tp1946
Rp1947
aa(lp1948
g28
(g32
S'\x8ac\x92f\x01Yp?'
p1949
tp1950
Rp1951
aa(lp1952
g28
(g32
S'\xa9jX\xd2\xb2xp?'
p1953
tp1954
Rp1955
aa(lp1956
g28
(g32
S'_\x1a\xa5\t\xaaZb?'
p1957
tp1958
Rp1959
aa(lp1960
g28
(g32
S'\x00\x00\x00\x00\x00\x00\x00\x00'
p1961
tp1962
Rp1963
aa(lp1964
g28
(g32
S'\x8c$\xcft]\x01s?'
p1965
tp1966
Rp1967
aa(lp1968
g28
(g32
S'\xd0\xab\x06n\xe3He?'
p1969
tp1970
Rp1971
aa(lp1972
g28
(g32
S'*,\x8eW\xc2#f?'
p1973
tp1974
Rp1975
aasg114
(lp1976
(lp1977
g28
(g32
S'\xc8V\x15\x1fP\xa3\xf4>'
p1978
tp1979
Rp1980
aag1977
a(lp1981
g28
(g32
S'w>h\\Mo$?'
p1982
tp1983
Rp1984
aa(lp1985
g28
(g32
S'0X\x83r\x0e\xe7\x19?'
p1986
tp1987
Rp1988
aa(lp1989
g28
(g32
S'ED\x84\xd0\x8a\x042?'
p1990
tp1991
Rp1992
aa(lp1993
g28
(g32
S'\t\xc3N\x93\xc0L\x17?'
p1994
tp1995
Rp1996
aa(lp1997
g28
(g32
S'OF\xa8\x9e\xc3\xd8\x16?'
p1998
tp1999
Rp2000
aa(lp2001
g28
(g32
S'\x7f\xdf\xde\xeb\x9dR>?'
p2002
tp2003
Rp2004
aa(lp2005
g28
(g32
S'\xf2\x7f(\x85_\xba%?'
p2006
tp2007
Rp2008
aa(lp2009
g28
(g32
S'o \x9b\xaaiw+?'
p2010
tp2011
Rp2012
aa(lp2013
g28
(g32
S'\xe3zo\x1f\xd9\x19=?'
p2014
tp2015
Rp2016
aa(lp2017
g28
(g32
S'\x94\xbb\x12\xe3ySq?'
p2018
tp2019
Rp2020
aa(lp2021
g28
(g32
S'\x00\x00\x00\x00\x00\x00\x00\x00'
p2022
tp2023
Rp2024
aa(lp2025
g28
(g32
S'\xd1\x17bg\xdar*?'
p2026
tp2027
Rp2028
aa(lp2029
g28
(g32
S'xd+[\x05\xcf\xf5>'
p2030
tp2031
Rp2032
aa(lp2033
g28
(g32
S'\x00\x00\x00\x00\x00\x00\x00\x00'
p2034
tp2035
Rp2036
aa(lp2037
g28
(g32
S'\x93\r\xc1\xbc(\xae1?'
p2038
tp2039
Rp2040
aa(lp2041
g28
(g32
S'\x00\x00\x00\x00\x00\x00\x00\x00'
p2042
tp2043
Rp2044
aa(lp2045
g28
(g32
S'n&2v\xa0)0?'
p2046
tp2047
Rp2048
aa(lp2049
g28
(g32
S'\xfb\xd5\xbdW\xe5(0?'
p2050
tp2051
Rp2052
aa(lp2053
g28
(g32
S'5\xf3\x1e\x88\xc6\xa3\x1e?'
p2054
tp2055
Rp2056
aasg196
(lp2057
F5.823768138885498
aF5.823768138885498
aF5.823261976242065
aF4.082791090011597
aF4.100011825561523
aF3.990535020828247
aF3.866180181503296
aF3.853940010070801
aF3.997981071472168
aF3.927366018295288
aF3.8503520488739014
aF3.7928290367126465
aF3.599480152130127
aF5.717231035232544
aF5.766993045806885
aF4.21809196472168
aF4.283973932266235
aF4.209012031555176
aF4.389800071716309
aF4.083913803100586
aF4.192827939987183
assS'SS-B'
p2058
(dp2059
g3
(lp2060
(lp2061
I51
aag2061
a(lp2062
I51
aa(lp2063
I51
aa(lp2064
I51
aa(lp2065
I51
aa(lp2066
I51
aa(lp2067
I51
aa(lp2068
I51
aa(lp2069
I51
aa(lp2070
I51
aa(lp2071
I51
aa(lp2072
I51
aa(lp2073
I51
aa(lp2074
I51
aa(lp2075
I51
aa(lp2076
I51
aa(lp2077
I51
aa(lp2078
I51
aa(lp2079
I51
aa(lp2080
I51
aasg25
(lp2081
(lp2082
g28
(g32
S'x\xcf\xe7)\xa9\x80n?'
p2083
tp2084
Rp2085
aag2082
a(lp2086
g28
(g32
S'6\x9e\xeaE\xed?\x86?'
p2087
tp2088
Rp2089
aa(lp2090
g28
(g32
S'\xa6\x82\xc4\xa8\x08\xd0o?'
p2091
tp2092
Rp2093
aa(lp2094
g28
(g32
S'u6\xbe\xdc)$i?'
p2095
tp2096
Rp2097
aa(lp2098
g28
(g32
S'\x93\x8b\x96h\x00f\x81?'
p2099
tp2100
Rp2101
aa(lp2102
g28
(g32
S'\xbd\x02\xb1hSPP?'
p2103
tp2104
Rp2105
aa(lp2106
g28
(g32
S'`5\xe9e\x1b\x01\x8c?'
p2107
tp2108
Rp2109
aa(lp2110
g28
(g32
S'\xf5Z\xfa\xb5\x04]l?'
p2111
tp2112
Rp2113
aa(lp2114
g28
(g32
S'\x12\xc3=\r4\x1eq?'
p2115
tp2116
Rp2117
aa(lp2118
g28
(g32
S'\n\\<\x1a\xfd\x00q?'
p2119
tp2120
Rp2121
aa(lp2122
g28
(g32
S'@H\x06\xf2\x8c\xecL?'
p2123
tp2124
Rp2125
aa(lp2126
g28
(g32
S'0m"\xf0%\xdcs?'
p2127
tp2128
Rp2129
aa(lp2130
g28
(g32
S'\x83\xa0`\x11\x93\x0c\x93?'
p2131
tp2132
Rp2133
aa(lp2134
g28
(g32
S'&?|,\x93\x97q?'
p2135
tp2136
Rp2137
aa(lp2138
g28
(g32
S'\x19{A\x99\x88f\x86?'
p2139
tp2140
Rp2141
aa(lp2142
g28
(g32
S'\x855d\xfcy\xd8y?'
p2143
tp2144
Rp2145
aa(lp2146
g28
(g32
S'o\xd0\xad\xfaN\x0b\x99?'
p2147
tp2148
Rp2149
aa(lp2150
g28
(g32
S'u6\xbe\xdc)$i?'
p2151
tp2152
Rp2153
aa(lp2154
g28
(g32
S'#\xce\x93\xe5|\xe7q?'
p2155
tp2156
Rp2157
aa(lp2158
g28
(g32
S'\n\\<\x1a\xfd\x00q?'
p2159
tp2160
Rp2161
aasg114
(lp2162
(lp2163
g28
(g32
S'\xe5\xc5d\x08ASR?'
p2164
tp2165
Rp2166
aag2163
a(lp2167
g28
(g32
S'\x0e\x16\xe7\xee\x94\xd9\x83?'
p2168
tp2169
Rp2170
aa(lp2171
g28
(g32
S'\xdf\xc5mE\xb4\xc7=?'
p2172
tp2173
Rp2174
aa(lp2175
g28
(g32
S'\x00\x00\x00\x00\x00\x00\x00\x00'
p2176
tp2177
Rp2178
aa(lp2179
g28
(g32
S'@\xd6\xd1\x08g\x86u?'
p2180
tp2181
Rp2182
aa(lp2183
g28
(g32
S'\xff7q.\xa5\x028?'
p2184
tp2185
Rp2186
aa(lp2187
g28
(g32
S'\xfc\xc6@\x83%\xa8\x87?'
p2188
tp2189
Rp2190
aa(lp2191
g28
(g32
S'~|\xfb\xd9r\x877?'
p2192
tp2193
Rp2194
aa(lp2195
g28
(g32
S'\xff\xe9\xd4\xe2\xfb\x01B?'
p2196
tp2197
Rp2198
aa(lp2199
g28
(g32
S'7\xd2n\xf9\x91\xf0s?'
p2200
tp2201
Rp2202
aa(lp2203
g28
(g32
S"~|\xfb\xd9r\x87'?"
p2204
tp2205
Rp2206
aa(lp2207
g28
(g32
S'H+\xcc\xb2\x1d?i?'
p2208
tp2209
Rp2210
aa(lp2211
g28
(g32
S']dg\x1f\xb9L\xb0?'
p2212
tp2213
Rp2214
aa(lp2215
g28
(g32
S'\xa7(;\xbe\x84\x17@?'
p2216
tp2217
Rp2218
aa(lp2219
g28
(g32
S'@\x87\xf8\x9c\xdd}\x82?'
p2220
tp2221
Rp2222
aa(lp2223
g28
(g32
S'\xf1 e\xc3\xf6\xcdq?'
p2224
tp2225
Rp2226
aa(lp2227
g28
(g32
S'r\xa2L\xae\xcd \x92?'
p2228
tp2229
Rp2230
aa(lp2231
g28
(g32
S'\x00\x00\x00\x00\x00\x00\x00\x00'
p2232
tp2233
Rp2234
aa(lp2235
g28
(g32
S'\x06\x05MZ\xf5^r?'
p2236
tp2237
Rp2238
aa(lp2239
g28
(g32
S'\xa1\xa9\xf5D-O!?'
p2240
tp2241
Rp2242
aasg196
(lp2243
F0.731766939163208
aF0.731766939163208
aF0.7666020393371582
aF0.5241808891296387
aF0.4817628860473633
aF0.48882102966308594
aF0.4932689666748047
aF0.4780709743499756
aF0.7341489791870117
aF0.7780590057373047
aF0.8083539009094238
aF0.8643059730529785
aF0.7425110340118408
aF0.6470279693603516
aF0.6469841003417969
aF0.5630230903625488
aF0.5657110214233398
aF0.5328950881958008
aF0.5088639259338379
aF0.5262060165405273
aF0.5171799659729004
ass.