(dp0
S'SS-M'
p1
(dp2
S'evals'
p3
(lp4
(lp5
I31
aag5
a(lp6
I31
aa(lp7
I31
aa(lp8
I31
aa(lp9
I31
aa(lp10
I31
aa(lp11
I32
aa(lp12
I31
aa(lp13
I31
aa(lp14
I31
aa(lp15
I33
aa(lp16
I32
aa(lp17
I32
aa(lp18
I31
aa(lp19
I31
aa(lp20
I32
aa(lp21
I31
aa(lp22
I31
aa(lp23
I31
aa(lp24
I31
aasS'igd'
p25
(lp26
(lp27
cnumpy.core.multiarray
scalar
p28
(cnumpy
dtype
p29
(S'f8'
p30
I0
I1
tp31
Rp32
(I3
S'<'
p33
NNNI-1
I-1
I0
tp34
bS'\\\xc0\x98\xcb\x95W\xe4>'
p35
tp36
Rp37
aag27
a(lp38
g28
(g32
S'\xa1\xf1_\xc9\x8dj\xe7>'
p39
tp40
Rp41
aa(lp42
g28
(g32
S'\x0b\x13\x13b\x98\xd2\xdc>'
p43
tp44
Rp45
aa(lp46
g28
(g32
S'\xe5\xa9\xc5\xfb\xdd\xec\xf6>'
p47
tp48
Rp49
aa(lp50
g28
(g32
S'Nj|\x05\x8a\xeb\xf0>'
p51
tp52
Rp53
aa(lp54
g28
(g32
S'\x94^\xa2\xb3\x9d\n\xe3>'
p55
tp56
Rp57
aa(lp58
g28
(g32
S'\x9b+\x9e\xc7\xef\xa0\xec>'
p59
tp60
Rp61
aa(lp62
g28
(g32
S'\xa2\x81k\x1dR.\xec>'
p63
tp64
Rp65
aa(lp66
g28
(g32
S'\xe5\x13\x19eg\xf7\xf3>'
p67
tp68
Rp69
aa(lp70
g28
(g32
S'\xfb\x14V\xd3\x16\xba\xf2>'
p71
tp72
Rp73
aa(lp74
g28
(g32
S'.\xcb\xf4\xbe\x997\xf3>'
p75
tp76
Rp77
aa(lp78
g28
(g32
S'\xf0h& \x16H\xf5>'
p79
tp80
Rp81
aa(lp82
g28
(g32
S'\x98s\xdeF\x1e\xa5\xe1>'
p83
tp84
Rp85
aa(lp86
g28
(g32
S'\x0cX\t0\xa5w\xf1>'
p87
tp88
Rp89
aa(lp90
g28
(g32
S'2$\x923\xec\xe5\xf9>'
p91
tp92
Rp93
aa(lp94
g28
(g32
S'\xbffd\x93\xa6u\xec>'
p95
tp96
Rp97
aa(lp98
g28
(g32
S'\x00\x0c1U\xa8\xdd\xf5>'
p99
tp100
Rp101
aa(lp102
g28
(g32
S'a\xdd\x85\xe1\xb3$\xcc>'
p103
tp104
Rp105
aa(lp106
g28
(g32
S'w\xfd\x13\xf38l\xae>'
p107
tp108
Rp109
aa(lp110
g28
(g32
S'+\xa3\xdd\xd2y\x8a\xec>'
p111
tp112
Rp113
aasS'gen_dist'
p114
(lp115
(lp116
g28
(g32
S'{/v\x07\x95\x04\xf8>'
p117
tp118
Rp119
aag116
a(lp120
g28
(g32
S'\xb0\xc9@\x95\xb8\xca\xf8>'
p121
tp122
Rp123
aa(lp124
g28
(g32
S'\x0b\x13\x13b\x98\xd2\xdc>'
p125
tp126
Rp127
aa(lp128
g28
(g32
S'\xce\x1cY\x1f(\t\xf9>'
p129
tp130
Rp131
aa(lp132
g28
(g32
S'\xdb\x9f\x9d\x0f\x98t\xfb>'
p133
tp134
Rp135
aa(lp136
g28
(g32
S'SS\x9dB\xd8<\xf8>'
p137
tp138
Rp139
aa(lp140
g28
(g32
S'\x0e\xda*|\xef2\x08?'
p141
tp142
Rp143
aa(lp144
g28
(g32
S'\xc4\xcf\x7fD\x14\x1b\xf2>'
p145
tp146
Rp147
aa(lp148
g28
(g32
S'e\n\xa1\xbf\xe5\xa6\x17?'
p149
tp150
Rp151
aa(lp152
g28
(g32
S'\xcf\xeb/\r\xee\x8f\x11?'
p153
tp154
Rp155
aa(lp156
g28
(g32
S'\xfc\xda=sb+\x10?'
p157
tp158
Rp159
aa(lp160
g28
(g32
S'\x95\x01\x0e\xffSi\xf6>'
p161
tp162
Rp163
aa(lp164
g28
(g32
S'\xe9\x88i\x88\x1e\xd2\xec>'
p165
tp166
Rp167
aa(lp168
g28
(g32
S'\x10\xe2\xf6r\xf4\xab\xf3>'
p169
tp170
Rp171
aa(lp172
g28
(g32
S'/Z1\xffD\x1e\x06?'
p173
tp174
Rp175
aa(lp176
g28
(g32
S'\xda\x1e\x07\xb5g\xa8\xf0>'
p177
tp178
Rp179
aa(lp180
g28
(g32
S'\xbd\x87\xbd\x91\x1e\xdd\xfe>'
p181
tp182
Rp183
aa(lp184
g28
(g32
S'a\xdd\x85\xe1\xb3$\xcc>'
p185
tp186
Rp187
aa(lp188
g28
(g32
S'w\xfd\x13\xf38l\xae>'
p189
tp190
Rp191
aa(lp192
g28
(g32
S'\xf7\xc4\x7f\xaf\xe4\x1d\xf8>'
p193
tp194
Rp195
aasS'time'
p196
(lp197
F151.43742394447327
aF151.43742394447327
aF147.4281210899353
aF225.6971309185028
aF185.3762800693512
aF158.45241498947144
aF180.34615111351013
aF168.48081994056702
aF212.492182970047
aF224.21679997444153
aF213.5041389465332
aF140.68721890449524
aF196.5944321155548
aF145.64798998832703
aF163.02793908119202
aF163.64154291152954
aF160.21048498153687
aF186.37608289718628
aF205.9443018436432
aF206.63250994682312
aF200.08191418647766
assS'SS-L'
p198
(dp199
g3
(lp200
(lp201
I31
aag201
a(lp202
I31
aa(lp203
I31
aa(lp204
I31
aa(lp205
I31
aa(lp206
I31
aa(lp207
I31
aa(lp208
I31
aa(lp209
I31
aa(lp210
I31
aa(lp211
I31
aa(lp212
I31
aa(lp213
I31
aa(lp214
I31
aa(lp215
I31
aa(lp216
I31
aa(lp217
I31
aa(lp218
I31
aa(lp219
I31
aa(lp220
I31
aasg25
(lp221
(lp222
g28
(g32
S'\xf8\xfb*\xf8Y\x99\x83?'
p223
tp224
Rp225
aag222
a(lp226
g28
(g32
S'\x9a\xac\xc5\xe9\xab\x93\x88?'
p227
tp228
Rp229
aa(lp230
g28
(g32
S'\x16m\xe2\xf2\xc9\xc5\x88?'
p231
tp232
Rp233
aa(lp234
g28
(g32
S'\xb2!\xc8zTF\x9e?'
p235
tp236
Rp237
aa(lp238
g28
(g32
S'n\xc5\xfb\x876\x99\x92?'
p239
tp240
Rp241
aa(lp242
g28
(g32
S'\xf4\xde\xa0u\xdag\x84?'
p243
tp244
Rp245
aa(lp246
g28
(g32
S'\x1b\xb9\xc4}\xd1\x1e{?'
p247
tp248
Rp249
aa(lp250
g28
(g32
S'\xf7/\x87y2\x10\x80?'
p251
tp252
Rp253
aa(lp254
g28
(g32
S'J\xb7\xa3\x07F\xb3\xb6?'
p255
tp256
Rp257
aa(lp258
g28
(g32
S'h\xd9,\xed\xb6\xb8\xb7?'
p259
tp260
Rp261
aa(lp262
g28
(g32
S'H=\x8b\x1c\x1eU\x81?'
p263
tp264
Rp265
aa(lp266
g28
(g32
S'u\x17\xee\xf0|\xaa\x91?'
p267
tp268
Rp269
aa(lp270
g28
(g32
S'\x7f\xa4\x88\x85\xbf^\x85?'
p271
tp272
Rp273
aa(lp274
g28
(g32
S'\xea\xbfn\x1f\x15\x91\x91?'
p275
tp276
Rp277
aa(lp278
g28
(g32
S'\x83\xbb*\xa8\x80l{?'
p279
tp280
Rp281
aa(lp282
g28
(g32
S'\xb9\xf4\\\xe3\x86\xad~?'
p283
tp284
Rp285
aa(lp286
g28
(g32
S'T\xc2H\xef\xe6\xdc\x81?'
p287
tp288
Rp289
aa(lp290
g28
(g32
S']T=\xac?\xea\x84?'
p291
tp292
Rp293
aa(lp294
g28
(g32
S'P\xe9\x80^\x9c\xde\x80?'
p295
tp296
Rp297
aa(lp298
g28
(g32
S'\xbc\x91B$\xc4Z\x81?'
p299
tp300
Rp301
aasg114
(lp302
(lp303
g28
(g32
S'\xb2\xfd\xed\xcaJ\x03\xa6?'
p304
tp305
Rp306
aag303
a(lp307
g28
(g32
S':T\xe8%\x85\x1c\xab?'
p308
tp309
Rp310
aa(lp311
g28
(g32
S'\xef\xd8nI\x0c\x8c\xaf?'
p312
tp313
Rp314
aa(lp315
g28
(g32
S"Q\xa5'i;2\xac?"
p316
tp317
Rp318
aa(lp319
g28
(g32
S"\xd6'X\xef\xf3N\xa3?"
p320
tp321
Rp322
aa(lp323
g28
(g32
S"\xc5\x95'\xf0#K\x95?"
p324
tp325
Rp326
aa(lp327
g28
(g32
S'\xb3\x00\x8b\xfb\x94\x0b}?'
p328
tp329
Rp330
aa(lp331
g28
(g32
S'_\x9f\x17R\xeba\xab?'
p332
tp333
Rp334
aa(lp335
g28
(g32
S'\xb0\x9b9%\xbe\xcc\xaa?'
p336
tp337
Rp338
aa(lp339
g28
(g32
S'\xcdwo\xf4\x0c\xc4\xac?'
p340
tp341
Rp342
aa(lp343
g28
(g32
S'\xfbx\x0f\xcb\x8fc\x9e?'
p344
tp345
Rp346
aa(lp347
g28
(g32
S'<>\xfa\xcc\xa8\xee\x95?'
p348
tp349
Rp350
aa(lp351
g28
(g32
S"\xb7\x07\x11'\xe7\xfa\xbd?"
p352
tp353
Rp354
aa(lp355
g28
(g32
S'\x94\x01\xc5S\xab\xaa\xab?'
p356
tp357
Rp358
aa(lp359
g28
(g32
S'\x04\x9f\\\xfd\xaea{?'
p360
tp361
Rp362
aa(lp363
g28
(g32
S'\x92>\x1f\x7f\xab\xa9\x84?'
p364
tp365
Rp366
aa(lp367
g28
(g32
S'\x0b\n$\x8d\xc0"\xa7?'
p368
tp369
Rp370
aa(lp371
g28
(g32
S'*\xf5\x97y;/\x91?'
p372
tp373
Rp374
aa(lp375
g28
(g32
S'4i\x0b\x07\xc0D\x8a?'
p376
tp377
Rp378
aa(lp379
g28
(g32
S'\xa0\x0b\x11\xec\x82~\x86?'
p380
tp381
Rp382
aasg196
(lp383
F0.8848888874053955
aF0.8848888874053955
aF0.8479008674621582
aF0.918471097946167
aF0.9152779579162598
aF0.9019069671630859
aF0.8526101112365723
aF0.8637979030609131
aF0.8738718032836914
aF0.8459470272064209
aF0.8988299369812012
aF0.8932280540466309
aF0.868074893951416
aF0.8708498477935791
aF0.9559550285339355
aF0.9985370635986328
aF0.9571728706359863
aF0.994549036026001
aF0.9088149070739746
aF0.8441450595855713
aF0.8274948596954346
assS'SS-O'
p384
(dp385
g3
(lp386
(lp387
I31
aag387
a(lp388
I31
aa(lp389
I31
aa(lp390
I31
aa(lp391
I31
aa(lp392
I31
aa(lp393
I31
aa(lp394
I31
aa(lp395
I31
aa(lp396
I31
aa(lp397
I31
aa(lp398
I31
aa(lp399
I31
aa(lp400
I31
aa(lp401
I31
aa(lp402
I31
aa(lp403
I31
aa(lp404
I31
aa(lp405
I31
aa(lp406
I31
aasg25
(lp407
(lp408
g28
(g32
S'\xaf\xe7\xc2\x1f\x01\xb6\xba>'
p409
tp410
Rp411
aag408
a(lp412
g28
(g32
S'=\xdaq H+\xce>'
p413
tp414
Rp415
aa(lp416
g28
(g32
S'Y!\xad\xb8~\xee\xc7>'
p417
tp418
Rp419
aa(lp420
g28
(g32
S'&\xa0\xeeh`\x17\xed?'
p421
tp422
Rp423
aa(lp424
g28
(g32
S'\x13\xd6\xc0\xcc\x80\x01\x93>'
p425
tp426
Rp427
aa(lp428
g28
(g32
S'\xc0\x9f\xea~\xf6\x91\xd2>'
p429
tp430
Rp431
aa(lp432
g28
(g32
S'Y!\xad\xb8~\xee\xc7>'
p433
tp434
Rp435
aa(lp436
g28
(g32
S'\xef\x8c\xa1\x05b\x17\xed?'
p437
tp438
Rp439
aa(lp440
g28
(g32
S'\xdf\x93S\xe0[\x17\xed?'
p441
tp442
Rp443
aa(lp444
g28
(g32
S'\xbd\x8b\xf6\xdb\xf7\xcf\xc7>'
p445
tp446
Rp447
aa(lp448
g28
(g32
S'\x96C\xc6ee\x17\xed?'
p449
tp450
Rp451
aa(lp452
g28
(g32
S'\xaf\xcc\x1fN\xa39\xc8>'
p453
tp454
Rp455
aa(lp456
g28
(g32
S'j\xc3>\xafc\x17\xed?'
p457
tp458
Rp459
aa(lp460
g28
(g32
S'\t\xfd%\xd9^\x17\xed?'
p461
tp462
Rp463
aa(lp464
g28
(g32
S'\xdf\x93S\xe0[\x17\xed?'
p465
tp466
Rp467
aa(lp468
g28
(g32
S'\xec\x88}\xf3\x00\x9a\x86>'
p469
tp470
Rp471
aa(lp472
g28
(g32
S'\x93h\xe9#\xa1\x18\xcb>'
p473
tp474
Rp475
aa(lp476
g28
(g32
S'j\xdcX\xb8\x98\x1c\xd1>'
p477
tp478
Rp479
aa(lp480
g28
(g32
S'\x13\xd6\xc0\xcc\x80\x01\xb3>'
p481
tp482
Rp483
aa(lp484
g28
(g32
S'\xc3\xa7\xc5\x8d\x0c\xbd\xca>'
p485
tp486
Rp487
aasg114
(lp488
(lp489
g28
(g32
S'\x89\xcf\xa2\x1b\xdc$\xb0>'
p490
tp491
Rp492
aag489
a(lp493
g28
(g32
S'O`\x03]]\xd1\xc2>'
p494
tp495
Rp496
aa(lp497
g28
(g32
S'\xc6\xa3\x9a\xff\xd1T\xb4>'
p498
tp499
Rp500
aa(lp501
g28
(g32
S'SBX\xcb%\x0f\x9d>'
p502
tp503
Rp504
aa(lp505
g28
(g32
S'\xf9\x93a\x95\xdcq\x8b>'
p506
tp507
Rp508
aa(lp509
g28
(g32
S'f>-=\xeb\xa6\xc6>'
p510
tp511
Rp512
aa(lp513
g28
(g32
S'\xa4[\xae\x94C\xc6\xbe>'
p514
tp515
Rp516
aa(lp517
g28
(g32
S'\xcf\xd7\r\xd5\xc0\xc6\xa3>'
p518
tp519
Rp520
aa(lp521
g28
(g32
S'3BX\xcb%\x0f}>'
p522
tp523
Rp524
aa(lp525
g28
(g32
S'\xfa\xed\xd5\x18xv\xbd>'
p526
tp527
Rp528
aa(lp529
g28
(g32
S'Q\xa5aB\x85X\xb0>'
p530
tp531
Rp532
aa(lp533
g28
(g32
S'\x00\xb2\xddk\x10\x1e\xbc>'
p534
tp535
Rp536
aa(lp537
g28
(g32
S'\xa2\xe5j_\x93\xd4\xa9>'
p538
tp539
Rp540
aa(lp541
g28
(g32
S'Z\x83\x8b"\x13.\x94>'
p542
tp543
Rp544
aa(lp545
g28
(g32
S'3BX\xcb%\x0f}>'
p546
tp547
Rp548
aa(lp549
g28
(g32
S'\xec\xed\xd5\x18xv\x9d>'
p550
tp551
Rp552
aa(lp553
g28
(g32
S'Z3I\x9b\x0f\xcf\xc1>'
p554
tp555
Rp556
aa(lp557
g28
(g32
S'2\xa2\xd3\xbc\x1eQ\xc8>'
p558
tp559
Rp560
aa(lp561
g28
(g32
S'\x01\x94a\x95\xdcq\xab>'
p562
tp563
Rp564
aa(lp565
g28
(g32
S'\xb6\x1d\t\xc3\xbc\xae\xbf>'
p566
tp567
Rp568
aasg196
(lp569
F69.36708807945251
aF69.36708807945251
aF73.398197889328
aF72.49693608283997
aF71.03762316703796
aF69.68848919868469
aF71.96738982200623
aF74.1350679397583
aF72.80712294578552
aF73.35906791687012
aF73.29153299331665
aF74.17877006530762
aF72.85878801345825
aF75.09594297409058
aF72.30673503875732
aF71.1587450504303
aF73.27411699295044
aF72.30874395370483
aF71.72535920143127
aF72.85536289215088
aF69.98240804672241
assS'SS-N'
p570
(dp571
g3
(lp572
(lp573
I32
aag573
a(lp574
I31
aa(lp575
I32
aa(lp576
I31
aa(lp577
I31
aa(lp578
I31
aa(lp579
I31
aa(lp580
I31
aa(lp581
I31
aa(lp582
I31
aa(lp583
I31
aa(lp584
I31
aa(lp585
I32
aa(lp586
I32
aa(lp587
I31
aa(lp588
I31
aa(lp589
I31
aa(lp590
I31
aa(lp591
I31
aa(lp592
I31
aasg25
(lp593
(lp594
g28
(g32
S'r\x17OHc\xfb\x8d?'
p595
tp596
Rp597
aag594
a(lp598
g28
(g32
S'\r@\x8b\x19\x94\xfb\x8d?'
p599
tp600
Rp601
aa(lp602
g28
(g32
S'\xa6\xbb\xd1l\xa1Z\xb1?'
p603
tp604
Rp605
aa(lp606
g28
(g32
S'\x91B\xe3B@\x9a\x90?'
p607
tp608
Rp609
aa(lp610
g28
(g32
S'\x00\x00\x00\x00\x00\x00\x00\x00'
p611
tp612
Rp613
aa(lp614
g28
(g32
S'r\x17OHc\xfb\x8d?'
p615
tp616
Rp617
aa(lp618
g28
(g32
S'\x83;q\x18\xb2\xac\x90?'
p619
tp620
Rp621
aa(lp622
g28
(g32
S'Y\xaa4\xba\x93\x82\xb3?'
p623
tp624
Rp625
aa(lp626
g28
(g32
S'\x80\xd9\x85|\x06\x95\x8c?'
p627
tp628
Rp629
aa(lp630
g28
(g32
S'\xc6_\r\xb1\xea\xa1r?'
p631
tp632
Rp633
aa(lp634
g28
(g32
S'g\r\xf9\x18\t\xd9\x96?'
p635
tp636
Rp637
aa(lp638
g28
(g32
S'A3\x90R\x85\xae\xaf?'
p639
tp640
Rp641
aa(lp642
g28
(g32
S'\xc6_\r\xb1\xea\xa1r?'
p643
tp644
Rp645
aa(lp646
g28
(g32
S'\xce+\xa5=\xb9>\xa2?'
p647
tp648
Rp649
aa(lp650
g28
(g32
S'=\xed\x1c\x1d\xee\xff\xae?'
p651
tp652
Rp653
aa(lp654
g28
(g32
S'\x0c(\x92\x01\x8a\x9e\xb1?'
p655
tp656
Rp657
aa(lp658
g28
(g32
S'\x80\xd9\x85|\x06\x95\x8c?'
p659
tp660
Rp661
aa(lp662
g28
(g32
S'5d\xba\xd9\xfd\xfc\xa3?'
p663
tp664
Rp665
aa(lp666
g28
(g32
S'\x91B\xe3B@\x9a\x90?'
p667
tp668
Rp669
aa(lp670
g28
(g32
S'\xe3us\xdf\x84j\x83?'
p671
tp672
Rp673
aasg114
(lp674
(lp675
g28
(g32
S'5A\x15\xe8\xfc;\xe0?'
p676
tp677
Rp678
aag675
a(lp679
g28
(g32
S'R\x02F\xd5\xea#\xc8?'
p680
tp681
Rp682
aa(lp683
g28
(g32
S'\xf8\xeba\x9e\x03\xc2\xc6?'
p684
tp685
Rp686
aa(lp687
g28
(g32
S'\x85@\xb7\xd2\xec\xfa\x91?'
p688
tp689
Rp690
aa(lp691
g28
(g32
S'\x00\x00\x00\x00\x00\x00\x00\x00'
p692
tp693
Rp694
aa(lp695
g28
(g32
S'|u\xea\x8b\xfb2\xd4?'
p696
tp697
Rp698
aa(lp699
g28
(g32
S'\xbe\xed\xc3\xe6\xa9\x84\xa0?'
p700
tp701
Rp702
aa(lp703
g28
(g32
S'\x15\xa9+\x9b\x81\x03\xb4?'
p704
tp705
Rp706
aa(lp707
g28
(g32
S'[-\xa2\x03D\x84\xb1?'
p708
tp709
Rp710
aa(lp711
g28
(g32
S'\xc6_\r\xb1\xea\xa1r?'
p712
tp713
Rp714
aa(lp715
g28
(g32
S'zWf\x84Qu\xac?'
p716
tp717
Rp718
aa(lp719
g28
(g32
S'\x8c\x05\x9doF\x0c\xc1?'
p720
tp721
Rp722
aa(lp723
g28
(g32
S'\xc6_\r\xb1\xea\xa1r?'
p724
tp725
Rp726
aa(lp727
g28
(g32
S'cMb\xcd}\xb4\xc1?'
p728
tp729
Rp730
aa(lp731
g28
(g32
S'P\x1cm\xbaJ\xa9\xd5?'
p732
tp733
Rp734
aa(lp735
g28
(g32
S'\xd7\xf9\xd8Fl\x00\xb6?'
p736
tp737
Rp738
aa(lp739
g28
(g32
S'}\x86\xec\xffkg\xd0?'
p740
tp741
Rp742
aa(lp743
g28
(g32
S'\xdaa?\xb6\xe9\x93\xbf?'
p744
tp745
Rp746
aa(lp747
g28
(g32
S'\xd8\x1f\xb3,\xf8Z\xab?'
p748
tp749
Rp750
aa(lp751
g28
(g32
S'\xf9IN\xdf\xc6\x00\xc8?'
p752
tp753
Rp754
aasg196
(lp755
F58.85218811035156
aF58.85218811035156
aF62.04548406600952
aF30.934773206710815
aF57.54831790924072
aF53.5764479637146
aF57.52295207977295
aF58.40477108955383
aF55.86853909492493
aF52.45145106315613
aF64.20439910888672
aF56.15630292892456
aF62.377882957458496
aF61.026676177978516
aF48.92668008804321
aF43.657355070114136
aF41.64003300666809
aF63.5662899017334
aF41.45123910903931
aF50.69127297401428
aF64.29547905921936
assS'SS-I'
p756
(dp757
g3
(lp758
(lp759
I31
aag759
a(lp760
I31
aa(lp761
I31
aa(lp762
I31
aa(lp763
I31
aa(lp764
I31
aa(lp765
I31
aa(lp766
I31
aa(lp767
I31
aa(lp768
I31
aa(lp769
I31
aa(lp770
I31
aa(lp771
I31
aa(lp772
I31
aa(lp773
I31
aa(lp774
I31
aa(lp775
I31
aa(lp776
I31
aa(lp777
I31
aa(lp778
I31
aasg25
(lp779
(lp780
g28
(g32
S'\xcbV\xfa\x7f\xad\xdb\xe2>'
p781
tp782
Rp783
aag780
a(lp784
g28
(g32
S'F\xe1\xb6\xb1\xc9\xd3\x14?'
p785
tp786
Rp787
aa(lp788
g28
(g32
S'\x00\x00\x00\x00\x00\x00\x00\x00'
p789
tp790
Rp791
aa(lp792
g28
(g32
S'\x99\xd2zbKU\x07?'
p793
tp794
Rp795
aa(lp796
g28
(g32
S'\x00\x00\x00\x00\x00\x00\x00\x00'
p797
tp798
Rp799
aa(lp800
g28
(g32
S'\xcbV\xfa\x7f\xad\xdb\xe2>'
p801
tp802
Rp803
aa(lp804
g28
(g32
S'\x00\x00\x00\x00\x00\x00\x00\x00'
p805
tp806
Rp807
aa(lp808
g28
(g32
S'\x00\x00\x00\x00\x00\x00\x00\x00'
p809
tp810
Rp811
aa(lp812
g28
(g32
S'\x00\x00\x00\x00\x00\x00\x00\x00'
p813
tp814
Rp815
aa(lp816
g28
(g32
S'\x00\x00\x00\x00\x00\x00\x00\x00'
p817
tp818
Rp819
aa(lp820
g28
(g32
S'\x00\x00\x00\x00\x00\x00\x00\x00'
p821
tp822
Rp823
aa(lp824
g28
(g32
S'\xcbV\xfa\x7f\xad\xdb\xe2>'
p825
tp826
Rp827
aa(lp828
g28
(g32
S'\xcbV\xfa\x7f\xad\xdb\xe2>'
p829
tp830
Rp831
aa(lp832
g28
(g32
S'\x00\x00\x00\x00\x00\x00\x00\x00'
p833
tp834
Rp835
aa(lp836
g28
(g32
S'\x00\x00\x00\x00\x00\x00\x00\x00'
p837
tp838
Rp839
aa(lp840
g28
(g32
S'\xcbV\xfa\x7f\xad\xdb\xe2>'
p841
tp842
Rp843
aa(lp844
g28
(g32
S'\x00\x00\x00\x00\x00\x00\x00\x00'
p845
tp846
Rp847
aa(lp848
g28
(g32
S'\x00\x00\x00\x00\x00\x00\x00\x00'
p849
tp850
Rp851
aa(lp852
g28
(g32
S'\x99\xd2zbKU\x07?'
p853
tp854
Rp855
aa(lp856
g28
(g32
S'\x00\x00\x00\x00\x00\x00\x00\x00'
p857
tp858
Rp859
aasg114
(lp860
(lp861
g28
(g32
S'\xcbV\xfa\x7f\xad\xdb\xe2>'
p862
tp863
Rp864
aag861
a(lp865
g28
(g32
S'F\xe1\xb6\xb1\xc9\xd3\x14?'
p866
tp867
Rp868
aa(lp869
g28
(g32
S'\x00\x00\x00\x00\x00\x00\x00\x00'
p870
tp871
Rp872
aa(lp873
g28
(g32
S"\x95'\x16\x86z\xf8A?"
p874
tp875
Rp876
aa(lp877
g28
(g32
S'\x00\x00\x00\x00\x00\x00\x00\x00'
p878
tp879
Rp880
aa(lp881
g28
(g32
S'\xcbV\xfa\x7f\xad\xdb\xe2>'
p882
tp883
Rp884
aa(lp885
g28
(g32
S'\x00\x00\x00\x00\x00\x00\x00\x00'
p886
tp887
Rp888
aa(lp889
g28
(g32
S'\x00\x00\x00\x00\x00\x00\x00\x00'
p890
tp891
Rp892
aa(lp893
g28
(g32
S'\x00\x00\x00\x00\x00\x00\x00\x00'
p894
tp895
Rp896
aa(lp897
g28
(g32
S'\x00\x00\x00\x00\x00\x00\x00\x00'
p898
tp899
Rp900
aa(lp901
g28
(g32
S'\x00\x00\x00\x00\x00\x00\x00\x00'
p902
tp903
Rp904
aa(lp905
g28
(g32
S'\xcbV\xfa\x7f\xad\xdb\xe2>'
p906
tp907
Rp908
aa(lp909
g28
(g32
S'\xcbV\xfa\x7f\xad\xdb\xe2>'
p910
tp911
Rp912
aa(lp913
g28
(g32
S'\x00\x00\x00\x00\x00\x00\x00\x00'
p914
tp915
Rp916
aa(lp917
g28
(g32
S'\x00\x00\x00\x00\x00\x00\x00\x00'
p918
tp919
Rp920
aa(lp921
g28
(g32
S'\xcbV\xfa\x7f\xad\xdb\xe2>'
p922
tp923
Rp924
aa(lp925
g28
(g32
S'\x00\x00\x00\x00\x00\x00\x00\x00'
p926
tp927
Rp928
aa(lp929
g28
(g32
S'\x00\x00\x00\x00\x00\x00\x00\x00'
p930
tp931
Rp932
aa(lp933
g28
(g32
S'\x99\xd2zbKU\x07?'
p934
tp935
Rp936
aa(lp937
g28
(g32
S'\x00\x00\x00\x00\x00\x00\x00\x00'
p938
tp939
Rp940
aasg196
(lp941
F0.8850960731506348
aF0.8850960731506348
aF0.8714430332183838
aF0.8334569931030273
aF0.8181321620941162
aF0.8703799247741699
aF0.8167760372161865
aF0.8706519603729248
aF0.8791971206665039
aF0.8457481861114502
aF0.8722009658813477
aF0.8550808429718018
aF0.8507881164550781
aF0.8453359603881836
aF0.8556280136108398
aF0.8500208854675293
aF0.8374850749969482
aF0.8473000526428223
aF0.8515260219573975
aF0.8804337978363037
aF0.8863189220428467
assS'SS-H'
p942
(dp943
g3
(lp944
(lp945
I31
aag945
a(lp946
I31
aa(lp947
I31
aa(lp948
I31
aa(lp949
I31
aa(lp950
I31
aa(lp951
I31
aa(lp952
I31
aa(lp953
I31
aa(lp954
I31
aa(lp955
I31
aa(lp956
I31
aa(lp957
I31
aa(lp958
I31
aa(lp959
I31
aa(lp960
I31
aa(lp961
I31
aa(lp962
I31
aa(lp963
I31
aa(lp964
I31
aasg25
(lp965
(lp966
g28
(g32
S'H-\x9c\x0e\x8b\x871?'
p967
tp968
Rp969
aag966
a(lp970
g28
(g32
S'\x1cr8\xb61bO?'
p971
tp972
Rp973
aa(lp974
g28
(g32
S'\n\r\x81\x9a\xe0[3?'
p975
tp976
Rp977
aa(lp978
g28
(g32
S'\x98HO\xcf[\x93P?'
p979
tp980
Rp981
aa(lp982
g28
(g32
S'H0\x8f\xd5\x91\x8b2?'
p983
tp984
Rp985
aa(lp986
g28
(g32
S'\x184\x1d\x97\x15\x1b+?'
p987
tp988
Rp989
aa(lp990
g28
(g32
S'\xc0\xc5\xb7=c\xcf-?'
p991
tp992
Rp993
aa(lp994
g28
(g32
S'_X\x1b\xa1\x8a\x0f.?'
p995
tp996
Rp997
aa(lp998
g28
(g32
S'\xd2D\xfb(q\x11$?'
p999
tp1000
Rp1001
aa(lp1002
g28
(g32
S'\xb8\x9c\x0b\xf2>\xce\xfd>'
p1003
tp1004
Rp1005
aa(lp1006
g28
(g32
S'\xe8~1\xd0z\xfc!?'
p1007
tp1008
Rp1009
aa(lp1010
g28
(g32
S'D\xdf&\x00\x8f\xa35?'
p1011
tp1012
Rp1013
aa(lp1014
g28
(g32
S'Rl\x87\xd5a\x934?'
p1015
tp1016
Rp1017
aa(lp1018
g28
(g32
S'$\xce\x18B\xb1\xef.?'
p1019
tp1020
Rp1021
aa(lp1022
g28
(g32
S"\x8b\xde\x0f+\x10'$?"
p1023
tp1024
Rp1025
aa(lp1026
g28
(g32
S'L\xdc\xc9\x88\xe2T+?'
p1027
tp1028
Rp1029
aa(lp1030
g28
(g32
S'\x14+\x19[;{\x15?'
p1031
tp1032
Rp1033
aa(lp1034
g28
(g32
S'7\x89\xdci\xb2<_?'
p1035
tp1036
Rp1037
aa(lp1038
g28
(g32
S'\xaa\x0c\x074;\xac"?'
p1039
tp1040
Rp1041
aa(lp1042
g28
(g32
S'\x1a\xebE\x01\xdab;?'
p1043
tp1044
Rp1045
aasg114
(lp1046
(lp1047
g28
(g32
S'\xe4[\x1b\xc4*\xa0\x1a?'
p1048
tp1049
Rp1050
aag1047
a(lp1051
g28
(g32
S' \x0c\x96\xfeZa\xd7>'
p1052
tp1053
Rp1054
aa(lp1055
g28
(g32
S'0\xbdO\xd2\xe1W\r?'
p1056
tp1057
Rp1058
aa(lp1059
g28
(g32
S'\x84\xf9P\xf90e\x05?'
p1060
tp1061
Rp1062
aa(lp1063
g28
(g32
S'\x00\x00\x00\x00\x00\x00\x00\x00'
p1064
tp1065
Rp1066
aa(lp1067
g28
(g32
S'\xd6S\xc1o\x00\xfc\x93?'
p1068
tp1069
Rp1070
aa(lp1071
g28
(g32
S'\x00\x00\x00\x00\x00\x00\x00\x00'
p1072
tp1073
Rp1074
aa(lp1075
g28
(g32
S'\x9c\x17l\xd1~\x05\x11?'
p1076
tp1077
Rp1078
aa(lp1079
g28
(g32
S'\xb5\xbd\x0e\x8b\xdco\x10?'
p1080
tp1081
Rp1082
aa(lp1083
g28
(g32
S'\xdb\xb7\x98\n\\\xf2\x81?'
p1084
tp1085
Rp1086
aa(lp1087
g28
(g32
S'\x00\x00\x00\x00\x00\x00\x00\x00'
p1088
tp1089
Rp1090
aa(lp1091
g28
(g32
S'\x90v\xf1q\x1e)\x8b?'
p1092
tp1093
Rp1094
aa(lp1095
g28
(g32
S'\x00\x00\x00\x00\x00\x00\x00\x00'
p1096
tp1097
Rp1098
aa(lp1099
g28
(g32
S'\x00\x00\x00\x00\x00\x00\x00\x00'
p1100
tp1101
Rp1102
aa(lp1103
g28
(g32
S'\x00\x00\x00\x00\x00\x00\x00\x00'
p1104
tp1105
Rp1106
aa(lp1107
g28
(g32
S'\x05\xa2\x16\xf7\xeb\x86\xfc>'
p1108
tp1109
Rp1110
aa(lp1111
g28
(g32
S'\xd0\xfas\xc7\xc0\x1d\xf1>'
p1112
tp1113
Rp1114
aa(lp1115
g28
(g32
S'\x00\x00\x00\x00\x00\x00\x00\x00'
p1116
tp1117
Rp1118
aa(lp1119
g28
(g32
S'\x00\x00\x00\x00\x00\x00\x00\x00'
p1120
tp1121
Rp1122
aa(lp1123
g28
(g32
S'\xd40\xf3\xdfG\x00\x94?'
p1124
tp1125
Rp1126
aasg196
(lp1127
F0.23965716361999512
aF0.23965716361999512
aF0.23477697372436523
aF0.21989107131958008
aF0.23508095741271973
aF0.24111604690551758
aF0.246506929397583
aF0.24437999725341797
aF0.2449781894683838
aF0.22590208053588867
aF0.22866010665893555
aF0.2268810272216797
aF0.22525405883789062
aF0.2314770221710205
aF0.22755122184753418
aF0.2305309772491455
aF0.23151087760925293
aF0.24077796936035156
aF0.22818303108215332
aF0.2221369743347168
aF0.22027301788330078
assS'SS-K'
p1128
(dp1129
g3
(lp1130
(lp1131
I31
aag1131
a(lp1132
I31
aa(lp1133
I31
aa(lp1134
I31
aa(lp1135
I31
aa(lp1136
I31
aa(lp1137
I31
aa(lp1138
I31
aa(lp1139
I31
aa(lp1140
I31
aa(lp1141
I31
aa(lp1142
I31
aa(lp1143
I31
aa(lp1144
I31
aa(lp1145
I31
aa(lp1146
I31
aa(lp1147
I31
aa(lp1148
I31
aa(lp1149
I31
aa(lp1150
I31
aasg25
(lp1151
(lp1152
g28
(g32
S'I~\xaf\x90\xf7S\x94?'
p1153
tp1154
Rp1155
aag1152
a(lp1156
g28
(g32
S'\x0f\xa1\xdb\x9a\x820{?'
p1157
tp1158
Rp1159
aa(lp1160
g28
(g32
S"\x00\xe2'\x1e\xad\xf5\x95?"
p1161
tp1162
Rp1163
aa(lp1164
g28
(g32
S'\xc1\xf5\x17M&\x82\x88?'
p1165
tp1166
Rp1167
aa(lp1168
g28
(g32
S'\x1d\x95\xfa\x8d\xa0\xa0\x87?'
p1169
tp1170
Rp1171
aa(lp1172
g28
(g32
S'\x1f\xb3\xefLi\x88\x91?'
p1173
tp1174
Rp1175
aa(lp1176
g28
(g32
S'd\xc8\xcb\xe3/O\x82?'
p1177
tp1178
Rp1179
aa(lp1180
g28
(g32
S's\x19\x9f]/D^?'
p1181
tp1182
Rp1183
aa(lp1184
g28
(g32
S'\x1a6\xe6\xfc2N\x9a?'
p1185
tp1186
Rp1187
aa(lp1188
g28
(g32
S'\x9a\x00J\x99\xfa\x0f\x8b?'
p1189
tp1190
Rp1191
aa(lp1192
g28
(g32
S'\x9f\x99DL\xcf\xbb\x94?'
p1193
tp1194
Rp1195
aa(lp1196
g28
(g32
S'9\x16t\xdbh#\x93?'
p1197
tp1198
Rp1199
aa(lp1200
g28
(g32
S'F\x8a\x8b\xe6\x08\x8f\x99?'
p1201
tp1202
Rp1203
aa(lp1204
g28
(g32
S'\x19\x9a4\x01\xfd\x94}?'
p1205
tp1206
Rp1207
aa(lp1208
g28
(g32
S'\xa64*6\xf76q?'
p1209
tp1210
Rp1211
aa(lp1212
g28
(g32
S'0=\xca\xe8\t!t?'
p1213
tp1214
Rp1215
aa(lp1216
g28
(g32
S'#EC\xb9\xb2Fs?'
p1217
tp1218
Rp1219
aa(lp1220
g28
(g32
S"\xd8u'\r\xf3\xcb\xa0?"
p1221
tp1222
Rp1223
aa(lp1224
g28
(g32
S'\xca\x1c+\xcac\x83\x9d?'
p1225
tp1226
Rp1227
aa(lp1228
g28
(g32
S'\xb1\xbbu/\xe2\xac\x80?'
p1229
tp1230
Rp1231
aasg114
(lp1232
(lp1233
g28
(g32
S'H\xafb\xf0^\xa68?'
p1234
tp1235
Rp1236
aag1233
a(lp1237
g28
(g32
S'bC\xbc\xbe\x97\xfeX?'
p1238
tp1239
Rp1240
aa(lp1241
g28
(g32
S'\x83\xf8\xfc\xfd\xd8\x17\xab?'
p1242
tp1243
Rp1244
aa(lp1245
g28
(g32
S'\xbb\xa4\xf0M&pC?'
p1246
tp1247
Rp1248
aa(lp1249
g28
(g32
S'`\xee\xee\xb8\x10s`?'
p1250
tp1251
Rp1252
aa(lp1253
g28
(g32
S'`\xd0\x96g\x11u;?'
p1254
tp1255
Rp1256
aa(lp1257
g28
(g32
S'\x81\xac\n\xbb\xa8/X?'
p1258
tp1259
Rp1260
aa(lp1261
g28
(g32
S'\x13{\x9a\xba\xdb\xc82?'
p1262
tp1263
Rp1264
aa(lp1265
g28
(g32
S'_\x8a:)QPD?'
p1266
tp1267
Rp1268
aa(lp1269
g28
(g32
S'\x04\x8d\xa0\xad^\x9a\x17?'
p1270
tp1271
Rp1272
aa(lp1273
g28
(g32
S'\x95\xd5\x025\xf2\x869?'
p1274
tp1275
Rp1276
aa(lp1277
g28
(g32
S'<\xea\xdd\x19\x06\x13;?'
p1278
tp1279
Rp1280
aa(lp1281
g28
(g32
S'y\xd8qc\x8f\xb2I?'
p1282
tp1283
Rp1284
aa(lp1285
g28
(g32
S'\x9a n\xd4.\xb4O?'
p1286
tp1287
Rp1288
aa(lp1289
g28
(g32
S'f&6W\x88\x010?'
p1290
tp1291
Rp1292
aa(lp1293
g28
(g32
S'\x00\xe7\xade\xacDi?'
p1294
tp1295
Rp1296
aa(lp1297
g28
(g32
S'%d\xc3\xd0\x99\xbaN?'
p1298
tp1299
Rp1300
aa(lp1301
g28
(g32
S'\x0cLW\xd5\xd886?'
p1302
tp1303
Rp1304
aa(lp1305
g28
(g32
S'\x15\xd9\x1e\x15\x85\xd3#?'
p1306
tp1307
Rp1308
aa(lp1309
g28
(g32
S']\x97j\xaa\x93\x90c?'
p1310
tp1311
Rp1312
aasg196
(lp1313
F2.8459529876708984
aF2.8459529876708984
aF2.760089159011841
aF2.8983500003814697
aF2.9076578617095947
aF2.9917681217193604
aF2.8821680545806885
aF2.8633289337158203
aF2.7684521675109863
aF3.038888931274414
aF2.9142730236053467
aF2.9894940853118896
aF2.7353930473327637
aF2.9799039363861084
aF2.7820661067962646
aF2.8066728115081787
aF2.9010281562805176
aF3.0062639713287354
aF2.7752020359039307
aF2.9588780403137207
aF2.8352181911468506
assS'SS-J'
p1314
(dp1315
g3
(lp1316
(lp1317
I31
aag1317
a(lp1318
I31
aa(lp1319
I31
aa(lp1320
I31
aa(lp1321
I31
aa(lp1322
I31
aa(lp1323
I31
aa(lp1324
I31
aa(lp1325
I31
aa(lp1326
I31
aa(lp1327
I31
aa(lp1328
I31
aa(lp1329
I31
aa(lp1330
I31
aa(lp1331
I31
aa(lp1332
I31
aa(lp1333
I31
aa(lp1334
I31
aa(lp1335
I31
aa(lp1336
I31
aasg25
(lp1337
(lp1338
g28
(g32
S'\xfa\xe0\xc3v+\xeaq?'
p1339
tp1340
Rp1341
aag1338
a(lp1342
g28
(g32
S'\xab\xbe;/\x06\xe2t?'
p1343
tp1344
Rp1345
aa(lp1346
g28
(g32
S':@)\x8b,ie?'
p1347
tp1348
Rp1349
aa(lp1350
g28
(g32
S'H\xd6\xe7\x01_ad?'
p1351
tp1352
Rp1353
aa(lp1354
g28
(g32
S'\xaf\x04\xd7\x1f\xfatb?'
p1355
tp1356
Rp1357
aa(lp1358
g28
(g32
S'\x15\x1c\xd2\xb5\xb5\x7f\x8e?'
p1359
tp1360
Rp1361
aa(lp1362
g28
(g32
S'bGbb\xe7\x18\x99?'
p1363
tp1364
Rp1365
aa(lp1366
g28
(g32
S'V\x91\x0f\x18\xf6\xe2y?'
p1367
tp1368
Rp1369
aa(lp1370
g28
(g32
S'\x07\x91\xccqz\x05\x97?'
p1371
tp1372
Rp1373
aa(lp1374
g28
(g32
S'Qq\xe9\x9c\xc0\xecu?'
p1375
tp1376
Rp1377
aa(lp1378
g28
(g32
S'\x92\xa7\x1bt:\r\x9e?'
p1379
tp1380
Rp1381
aa(lp1382
g28
(g32
S'\xc9q\x00(\xfce\x8a?'
p1383
tp1384
Rp1385
aa(lp1386
g28
(g32
S'i\xae6;\xd2]\x9e?'
p1387
tp1388
Rp1389
aa(lp1390
g28
(g32
S'2\xe6\xf4\xfd\xa8C\xa4?'
p1391
tp1392
Rp1393
aa(lp1394
g28
(g32
S'\x86\xf5?\t\xcd;o?'
p1395
tp1396
Rp1397
aa(lp1398
g28
(g32
S'\xb7\x96\x7fd"\x8d{?'
p1399
tp1400
Rp1401
aa(lp1402
g28
(g32
S'(fp\xf6#\xc5\x8f?'
p1403
tp1404
Rp1405
aa(lp1406
g28
(g32
S'\t\xe6\xd0PF\x00r?'
p1407
tp1408
Rp1409
aa(lp1410
g28
(g32
S'(\x92F\xc7\xc2\x1d\x90?'
p1411
tp1412
Rp1413
aa(lp1414
g28
(g32
S'\xd7R\xd7y\x04\x07\x80?'
p1415
tp1416
Rp1417
aasg114
(lp1418
(lp1419
g28
(g32
S"\x0bB\xb9\xe2\xb0z'?"
p1420
tp1421
Rp1422
aag1419
a(lp1423
g28
(g32
S'\xe0\x91\xe1\x08\x7f\xca\x0e?'
p1424
tp1425
Rp1426
aa(lp1427
g28
(g32
S'*\xd8\xe2\x8e!\xb8\xea>'
p1428
tp1429
Rp1430
aa(lp1431
g28
(g32
S"'\xd2\x88#\x12\x86\x15?"
p1432
tp1433
Rp1434
aa(lp1435
g28
(g32
S"\xa6P\n\xd1P\x97'?"
p1436
tp1437
Rp1438
aa(lp1439
g28
(g32
S'\r\xf4\xa7o\x1ai\x0c?'
p1440
tp1441
Rp1442
aa(lp1443
g28
(g32
S'\xb4u\xf0\xf6\xf3\xdf;?'
p1444
tp1445
Rp1446
aa(lp1447
g28
(g32
S'-\xe0,=\xcaJ1?'
p1448
tp1449
Rp1450
aa(lp1451
g28
(g32
S'Jtx\x84\xd9\xa22?'
p1452
tp1453
Rp1454
aa(lp1455
g28
(g32
S'\xb7q\x89He\xe5@?'
p1456
tp1457
Rp1458
aa(lp1459
g28
(g32
S'\x082p\xca\xe9\x94\x15?'
p1460
tp1461
Rp1462
aa(lp1463
g28
(g32
S'#\x00\xbc>\xcf\xab\x1e?'
p1464
tp1465
Rp1466
aa(lp1467
g28
(g32
S'\x1c\xf2\xbe\xc9CZ\xef>'
p1468
tp1469
Rp1470
aa(lp1471
g28
(g32
S'J\x97\x978\x17\xfe1?'
p1472
tp1473
Rp1474
aa(lp1475
g28
(g32
S'\x8e.\x87\xed\x80xH?'
p1476
tp1477
Rp1478
aa(lp1479
g28
(g32
S'/\x13\xacW)\xf8*?'
p1480
tp1481
Rp1482
aa(lp1483
g28
(g32
S'\xb5\xc1\x1c\xc1l.\x10?'
p1484
tp1485
Rp1486
aa(lp1487
g28
(g32
S'\xe6\xda,\xac\xfcJ-?'
p1488
tp1489
Rp1490
aa(lp1491
g28
(g32
S'\xbd\xa8\xbc4\xd1A\xe9>'
p1492
tp1493
Rp1494
aa(lp1495
g28
(g32
S'\xad\x83\xcc\x92N#\xd5>'
p1496
tp1497
Rp1498
aasg196
(lp1499
F4.389961004257202
aF4.389961004257202
aF4.102711915969849
aF4.815746068954468
aF4.298053979873657
aF4.167697906494141
aF4.254062175750732
aF4.602258920669556
aF4.187061071395874
aF4.233701944351196
aF4.304745197296143
aF4.045622110366821
aF4.085639953613281
aF4.269398927688599
aF4.415158033370972
aF3.937541961669922
aF4.153202056884766
aF4.316940069198608
aF4.421056032180786
aF4.418560981750488
aF4.175650119781494
assS'SS-E'
p1500
(dp1501
g3
(lp1502
(lp1503
I31
aag1503
a(lp1504
I31
aa(lp1505
I31
aa(lp1506
I31
aa(lp1507
I31
aa(lp1508
I31
aa(lp1509
I31
aa(lp1510
I31
aa(lp1511
I31
aa(lp1512
I31
aa(lp1513
I31
aa(lp1514
I31
aa(lp1515
I31
aa(lp1516
I31
aa(lp1517
I31
aa(lp1518
I31
aa(lp1519
I31
aa(lp1520
I31
aa(lp1521
I31
aa(lp1522
I31
aasg25
(lp1523
(lp1524
g28
(g32
S'\xf4\x99$\xbb\x9d\xf4\x93?'
p1525
tp1526
Rp1527
aag1524
a(lp1528
g28
(g32
S'g\xc0\x98\x95\xc8\x84\xa1?'
p1529
tp1530
Rp1531
aa(lp1532
g28
(g32
S'8:\xf4\xf2Pi\xaf?'
p1533
tp1534
Rp1535
aa(lp1536
g28
(g32
S'f&N\xa1Z\x83\x8e?'
p1537
tp1538
Rp1539
aa(lp1540
g28
(g32
S'Sp\xb0\x8e\r\xe9\xa0?'
p1541
tp1542
Rp1543
aa(lp1544
g28
(g32
S'\xbf\xf4X\xa8\xfc\xba\xb0?'
p1545
tp1546
Rp1547
aa(lp1548
g28
(g32
S'5\xe1\x15Ly1\xa3?'
p1549
tp1550
Rp1551
aa(lp1552
g28
(g32
S'\xd4I5U\xb4\xa1\xa3?'
p1553
tp1554
Rp1555
aa(lp1556
g28
(g32
S'\\}|N\x90\x84\x98?'
p1557
tp1558
Rp1559
aa(lp1560
g28
(g32
S'jB\x88@\x8c\x9c\xaa?'
p1561
tp1562
Rp1563
aa(lp1564
g28
(g32
S'\x92a\xd7\xcc>D\x95?'
p1565
tp1566
Rp1567
aa(lp1568
g28
(g32
S'\xea\x0f\x85\xb0\xd6^\xaa?'
p1569
tp1570
Rp1571
aa(lp1572
g28
(g32
S'\xaa\xef) \xc7\x0f\xa4?'
p1573
tp1574
Rp1575
aa(lp1576
g28
(g32
S'\xf8I\xe4\xf7o\xe5\xa5?'
p1577
tp1578
Rp1579
aa(lp1580
g28
(g32
S'\x9e\xe6~\xbd\xd3*\xa2?'
p1581
tp1582
Rp1583
aa(lp1584
g28
(g32
S'p\xe2Pm\xbf\x04\xb1?'
p1585
tp1586
Rp1587
aa(lp1588
g28
(g32
S'\x94h\x04\x1b\x0cX\xa6?'
p1589
tp1590
Rp1591
aa(lp1592
g28
(g32
S'\xbbjJIy\xa9\x92?'
p1593
tp1594
Rp1595
aa(lp1596
g28
(g32
S'\x9cKK\xd9\x83\x97\x95?'
p1597
tp1598
Rp1599
aa(lp1600
g28
(g32
S'\x93\x0c4\xaa\x01\xbf\xa0?'
p1601
tp1602
Rp1603
aasg114
(lp1604
(lp1605
g28
(g32
S'\xcb\xac\x9b\xfc\xf9TW?'
p1606
tp1607
Rp1608
aag1605
a(lp1609
g28
(g32
S'\x87\x140\xad\xcaJC?'
p1610
tp1611
Rp1612
aa(lp1613
g28
(g32
S'\xcb\xa2\xa8B\x01{D?'
p1614
tp1615
Rp1616
aa(lp1617
g28
(g32
S'\xdb\x80{Yj\xe8i?'
p1618
tp1619
Rp1620
aa(lp1621
g28
(g32
S'\xe8\xb7\x8b\xe2\x9fVp?'
p1622
tp1623
Rp1624
aa(lp1625
g28
(g32
S'`)\x81\xdd\xeeyF?'
p1626
tp1627
Rp1628
aa(lp1629
g28
(g32
S'm\xb8\xef\x13d\x06_?'
p1630
tp1631
Rp1632
aa(lp1633
g28
(g32
S'\xab\xea\x9d3yv??'
p1634
tp1635
Rp1636
aa(lp1637
g28
(g32
S')jfG\xb6\x08h?'
p1638
tp1639
Rp1640
aa(lp1641
g28
(g32
S'\xf2\xa7\xcbV\xc1t\x00?'
p1642
tp1643
Rp1644
aa(lp1645
g28
(g32
S'\xcd\x16\xa1\x04\xacMv?'
p1646
tp1647
Rp1648
aa(lp1649
g28
(g32
S'\xa3\x92\x00P\xee\xd3g?'
p1650
tp1651
Rp1652
aa(lp1653
g28
(g32
S'$o\xa5\xaa\xf7t4?'
p1654
tp1655
Rp1656
aa(lp1657
g28
(g32
S'\x05{|\xb3\xd0\x0fq?'
p1658
tp1659
Rp1660
aa(lp1661
g28
(g32
S"'\x95Y\xb5\xad\x9b9?"
p1662
tp1663
Rp1664
aa(lp1665
g28
(g32
S'A\x1df\xac\xe2\xf7W?'
p1666
tp1667
Rp1668
aa(lp1669
g28
(g32
S'\x124\xdfx\xe5\xd1y?'
p1670
tp1671
Rp1672
aa(lp1673
g28
(g32
S'\x1a-\x92E]9\\?'
p1674
tp1675
Rp1676
aa(lp1677
g28
(g32
S'\xad\xe8W\xcc\x85\xa4=?'
p1678
tp1679
Rp1680
aa(lp1681
g28
(g32
S'\x80\xb8$\xe8<Yu?'
p1682
tp1683
Rp1684
aasg196
(lp1685
F0.9766411781311035
aF0.9766411781311035
aF0.9158811569213867
aF0.8949239253997803
aF0.8845741748809814
aF0.8936188220977783
aF0.8691320419311523
aF0.8928310871124268
aF0.8911089897155762
aF0.9006881713867188
aF0.9337289333343506
aF0.915320873260498
aF0.8961358070373535
aF0.9173381328582764
aF0.9575738906860352
aF0.8372538089752197
aF0.888383150100708
aF0.8262679576873779
aF0.7795150279998779
aF0.8728978633880615
aF0.9186229705810547
assS'SS-D'
p1686
(dp1687
g3
(lp1688
(lp1689
I31
aag1689
a(lp1690
I31
aa(lp1691
I31
aa(lp1692
I31
aa(lp1693
I31
aa(lp1694
I31
aa(lp1695
I31
aa(lp1696
I31
aa(lp1697
I31
aa(lp1698
I31
aa(lp1699
I31
aa(lp1700
I31
aa(lp1701
I31
aa(lp1702
I31
aa(lp1703
I31
aa(lp1704
I31
aa(lp1705
I31
aa(lp1706
I31
aa(lp1707
I31
aa(lp1708
I31
aasg25
(lp1709
(lp1710
g28
(g32
S'@Klz\x86\xd4\xa1?'
p1711
tp1712
Rp1713
aag1710
a(lp1714
g28
(g32
S'cd\x10\x1d\x1b\xcc\xa6?'
p1715
tp1716
Rp1717
aa(lp1718
g28
(g32
S'\xb3G\xdb\x87\x85\xd3\x95?'
p1719
tp1720
Rp1721
aa(lp1722
g28
(g32
S'\xed\xa7\x1a\\\xd0b\xa4?'
p1723
tp1724
Rp1725
aa(lp1726
g28
(g32
S'f\x06\xdc\x0c\x082\xb1?'
p1727
tp1728
Rp1729
aa(lp1730
g28
(g32
S'o\x8e/\xd5V\xc3\xa4?'
p1731
tp1732
Rp1733
aa(lp1734
g28
(g32
S'\xf1\x1e0\xff"G\xaa?'
p1735
tp1736
Rp1737
aa(lp1738
g28
(g32
S'\x0b\xc1\xa6\xaeB\xe5\x98?'
p1739
tp1740
Rp1741
aa(lp1742
g28
(g32
S'\x95S\x90\x97b\x91\x91?'
p1743
tp1744
Rp1745
aa(lp1746
g28
(g32
S':A}zS\xc2\xa2?'
p1747
tp1748
Rp1749
aa(lp1750
g28
(g32
S'\xcc\xffu\xdd\x93\n\xaa?'
p1751
tp1752
Rp1753
aa(lp1754
g28
(g32
S'\x97w(\x93\xa0~\x94?'
p1755
tp1756
Rp1757
aa(lp1758
g28
(g32
S'%\xb4m\xf6\x82a\xaa?'
p1759
tp1760
Rp1761
aa(lp1762
g28
(g32
S'\xffY\x82\xbe\rv\xaa?'
p1763
tp1764
Rp1765
aa(lp1766
g28
(g32
S'\x86xq\xcf~\x11\x9a?'
p1767
tp1768
Rp1769
aa(lp1770
g28
(g32
S"\x12'j\x00\xebF\xb0?"
p1771
tp1772
Rp1773
aa(lp1774
g28
(g32
S'$\xe2\x99\x96\n\x7f\xb1?'
p1775
tp1776
Rp1777
aa(lp1778
g28
(g32
S'On\x7f\xaf\xf4$\xa9?'
p1779
tp1780
Rp1781
aa(lp1782
g28
(g32
S'\x7f\xe1\xf3jAm\x99?'
p1783
tp1784
Rp1785
aa(lp1786
g28
(g32
S'\xcd82\xe0U\r\x83?'
p1787
tp1788
Rp1789
aasg114
(lp1790
(lp1791
g28
(g32
S'J\x1b\x1d\xa4e\x1b\xa4?'
p1792
tp1793
Rp1794
aag1791
a(lp1795
g28
(g32
S'\xcc\xa4W\x14&\x1c\xb5?'
p1796
tp1797
Rp1798
aa(lp1799
g28
(g32
S'Y\x1c\t)\xaa\xfb)?'
p1800
tp1801
Rp1802
aa(lp1803
g28
(g32
S'\x12:\xfb\x8f\x1a7\x89?'
p1804
tp1805
Rp1806
aa(lp1807
g28
(g32
S'\x9a\xb6N\x83C\xe5\xf4>'
p1808
tp1809
Rp1810
aa(lp1811
g28
(g32
S'\n|\x14\xe3\x90/\xa0?'
p1812
tp1813
Rp1814
aa(lp1815
g28
(g32
S'\x1b\x81&f\x82\x8bR?'
p1816
tp1817
Rp1818
aa(lp1819
g28
(g32
S"\xa9'\x90\x07\xafY\x91?"
p1820
tp1821
Rp1822
aa(lp1823
g28
(g32
S'=\x8b\x9a\x8e\x98\x01\xe1>'
p1824
tp1825
Rp1826
aa(lp1827
g28
(g32
S'\x8dlI\xa2Q\xfcv?'
p1828
tp1829
Rp1830
aa(lp1831
g28
(g32
S'\x0e\r\xd9\xefM\xf9J?'
p1832
tp1833
Rp1834
aa(lp1835
g28
(g32
S'\x91\xfe7\xce0X\x92?'
p1836
tp1837
Rp1838
aa(lp1839
g28
(g32
S'\xfd(\xa5e\xd9\xf7\xad?'
p1840
tp1841
Rp1842
aa(lp1843
g28
(g32
S'\x03\xbd)R\xf7I\x17?'
p1844
tp1845
Rp1846
aa(lp1847
g28
(g32
S'\x07\xc8\x9e\xc5\x8d7\x12?'
p1848
tp1849
Rp1850
aa(lp1851
g28
(g32
S'\xec\xed\x1e\xb9h\x98\x18?'
p1852
tp1853
Rp1854
aa(lp1855
g28
(g32
S'jA7Z\x91\xa8\x12?'
p1856
tp1857
Rp1858
aa(lp1859
g28
(g32
S'\x82\xd4Kc<\x95\x19?'
p1860
tp1861
Rp1862
aa(lp1863
g28
(g32
S'\n\xdefE\xcd\xbeT?'
p1864
tp1865
Rp1866
aa(lp1867
g28
(g32
S',Z\n\xbd\x8eo\x8a?'
p1868
tp1869
Rp1870
aasg196
(lp1871
F0.33728814125061035
aF0.33728814125061035
aF0.45621204376220703
aF0.34497904777526855
aF0.3392298221588135
aF0.30661988258361816
aF0.25101304054260254
aF0.3076040744781494
aF0.32945895195007324
aF0.32803797721862793
aF0.4628119468688965
aF0.5535871982574463
aF0.5507230758666992
aF0.4116480350494385
aF0.4043538570404053
aF0.41724109649658203
aF0.3609619140625
aF0.4273409843444824
aF0.4321169853210449
aF0.41472411155700684
aF0.4831359386444092
assS'SS-G'
p1872
(dp1873
g3
(lp1874
(lp1875
I31
aag1875
a(lp1876
I31
aa(lp1877
I31
aa(lp1878
I31
aa(lp1879
I31
aa(lp1880
I31
aa(lp1881
I31
aa(lp1882
I31
aa(lp1883
I31
aa(lp1884
I31
aa(lp1885
I31
aa(lp1886
I31
aa(lp1887
I31
aa(lp1888
I31
aa(lp1889
I31
aa(lp1890
I31
aa(lp1891
I31
aa(lp1892
I31
aa(lp1893
I31
aa(lp1894
I31
aasg25
(lp1895
(lp1896
g28
(g32
S'\xee^-\xd4\xd5d\xc0?'
p1897
tp1898
Rp1899
aag1896
a(lp1900
g28
(g32
S'\ny\xc4\xb5!\xb3\xa2?'
p1901
tp1902
Rp1903
aa(lp1904
g28
(g32
S'\x02\x81g\xe1e\x9e\xab?'
p1905
tp1906
Rp1907
aa(lp1908
g28
(g32
S'\xcd_3\x89\xee>\xc5?'
p1909
tp1910
Rp1911
aa(lp1912
g28
(g32
S'\xa9\x8a\xa6\x13@\xc3\xc1?'
p1913
tp1914
Rp1915
aa(lp1916
g28
(g32
S"\xf0'`\xf0\xca>\x9d?"
p1917
tp1918
Rp1919
aa(lp1920
g28
(g32
S'\xe6:\xce1pk\xa7?'
p1921
tp1922
Rp1923
aa(lp1924
g28
(g32
S'#\x03]es\x10\x99?'
p1925
tp1926
Rp1927
aa(lp1928
g28
(g32
S'\xb2oa\x81)\xc4\xa6?'
p1929
tp1930
Rp1931
aa(lp1932
g28
(g32
S'\xc1\x94\x98\t\x1fu\x8d?'
p1933
tp1934
Rp1935
aa(lp1936
g28
(g32
S'kZ\xe0n\xb4\x91\xaa?'
p1937
tp1938
Rp1939
aa(lp1940
g28
(g32
S'\x7fg\xd8\x07\xeex\x9f?'
p1941
tp1942
Rp1943
aa(lp1944
g28
(g32
S'\x10N\x98\xe1\xc37\xb0?'
p1945
tp1946
Rp1947
aa(lp1948
g28
(g32
S'\x93>\xd98\xb1\x1d\xa3?'
p1949
tp1950
Rp1951
aa(lp1952
g28
(g32
S'5"\xfb\xc8c\x05\x9e?'
p1953
tp1954
Rp1955
aa(lp1956
g28
(g32
S'\x01L^\x01\xef\xca\x81?'
p1957
tp1958
Rp1959
aa(lp1960
g28
(g32
S'@i\xee`\xb2n\x9d?'
p1961
tp1962
Rp1963
aa(lp1964
g28
(g32
S'\x05\x9b\x9a7f(\xb0?'
p1965
tp1966
Rp1967
aa(lp1968
g28
(g32
S'\xd8-<\x0b{-\x9b?'
p1969
tp1970
Rp1971
aa(lp1972
g28
(g32
S'\xdf\x9f\xd7\xba\x06;\x9a?'
p1973
tp1974
Rp1975
aasg114
(lp1976
(lp1977
g28
(g32
S']#\rO\xa9\xde%?'
p1978
tp1979
Rp1980
aag1977
a(lp1981
g28
(g32
S'\xcf\xaa. \x1d\xd9\x85?'
p1982
tp1983
Rp1984
aa(lp1985
g28
(g32
S'\x13\x85\xde\xbc\xaa\xaa\x9e?'
p1986
tp1987
Rp1988
aa(lp1989
g28
(g32
S'\x1deCL\xa7\xd1Y?'
p1990
tp1991
Rp1992
aa(lp1993
g28
(g32
S'\x87\x1fO\xe9\x17}@?'
p1994
tp1995
Rp1996
aa(lp1997
g28
(g32
S'\x18\x1e\xfdK\xda2\x8e?'
p1998
tp1999
Rp2000
aa(lp2001
g28
(g32
S'PEPk\x11\x1a\xa1?'
p2002
tp2003
Rp2004
aa(lp2005
g28
(g32
S'{\x10\xb8w\xc9f`?'
p2006
tp2007
Rp2008
aa(lp2009
g28
(g32
S'\x04`a\x19\x85\xe4\x9a?'
p2010
tp2011
Rp2012
aa(lp2013
g28
(g32
S'r>\xfe#\x19\x1a}?'
p2014
tp2015
Rp2016
aa(lp2017
g28
(g32
S'T\xf0Rk%>\x9f?'
p2018
tp2019
Rp2020
aa(lp2021
g28
(g32
S'(z\xb3\x81\xc9\xd1Q?'
p2022
tp2023
Rp2024
aa(lp2025
g28
(g32
S'm\x18u\xdbE\xdew?'
p2026
tp2027
Rp2028
aa(lp2029
g28
(g32
S'\xfe\xe8\xc0\x0flQ\x0e?'
p2030
tp2031
Rp2032
aa(lp2033
g28
(g32
S"\xe93\x12\xdf\xb2'[?"
p2034
tp2035
Rp2036
aa(lp2037
g28
(g32
S'\x13\x04d\xaedXx?'
p2038
tp2039
Rp2040
aa(lp2041
g28
(g32
S'\x80\xf4\x94\x96IGt?'
p2042
tp2043
Rp2044
aa(lp2045
g28
(g32
S'\xd3hZ2\xed`w?'
p2046
tp2047
Rp2048
aa(lp2049
g28
(g32
S'\x80\xf2\x18\xb9\xb7GY?'
p2050
tp2051
Rp2052
aa(lp2053
g28
(g32
S'H\x13u\x928\x0e\x9a?'
p2054
tp2055
Rp2056
aasg196
(lp2057
F0.1738429069519043
aF0.1738429069519043
aF0.17606806755065918
aF0.1871039867401123
aF0.19260311126708984
aF0.1844189167022705
aF0.19087886810302734
aF0.1845700740814209
aF0.18548893928527832
aF0.19216012954711914
aF0.1846628189086914
aF0.18765592575073242
aF0.18415594100952148
aF0.17782902717590332
aF0.16972899436950684
aF0.180495023727417
aF0.17818999290466309
aF0.1858959197998047
aF0.18763303756713867
aF0.1863689422607422
aF0.18687105178833008
assS'SS-F'
p2058
(dp2059
g3
(lp2060
(lp2061
I31
aag2061
a(lp2062
I31
aa(lp2063
I31
aa(lp2064
I31
aa(lp2065
I31
aa(lp2066
I31
aa(lp2067
I31
aa(lp2068
I31
aa(lp2069
I31
aa(lp2070
I31
aa(lp2071
I31
aa(lp2072
I31
aa(lp2073
I31
aa(lp2074
I31
aa(lp2075
I31
aa(lp2076
I31
aa(lp2077
I31
aa(lp2078
I31
aa(lp2079
I31
aa(lp2080
I31
aasg25
(lp2081
(lp2082
g28
(g32
S'\xfe\xab\x0c \x03\xe0\xb4?'
p2083
tp2084
Rp2085
aag2082
a(lp2086
g28
(g32
S'uQ\x96_y\xd1\xb2?'
p2087
tp2088
Rp2089
aa(lp2090
g28
(g32
S'J\x12\xd2\x02FE\xb6?'
p2091
tp2092
Rp2093
aa(lp2094
g28
(g32
S'\x1aL\xbb`\xdb\x96\x94?'
p2095
tp2096
Rp2097
aa(lp2098
g28
(g32
S'\xf2\t\xea"G[\x8a?'
p2099
tp2100
Rp2101
aa(lp2102
g28
(g32
S'}w\x05\x19\xe3a\x8d?'
p2103
tp2104
Rp2105
aa(lp2106
g28
(g32
S']\x18q\xcf\xdb&\xaa?'
p2107
tp2108
Rp2109
aa(lp2110
g28
(g32
S'\xe7\xfa\x05\x803\xd4\xb4?'
p2111
tp2112
Rp2113
aa(lp2114
g28
(g32
S'9d\xd1\xa1\x81\xf0\x97?'
p2115
tp2116
Rp2117
aa(lp2118
g28
(g32
S'I1p\xcbfj\x95?'
p2119
tp2120
Rp2121
aa(lp2122
g28
(g32
S'\xfc\x9a\xfc\xbdG\x91\x88?'
p2123
tp2124
Rp2125
aa(lp2126
g28
(g32
S'^e\xc2\x1c\xf0\xeb\xb3?'
p2127
tp2128
Rp2129
aa(lp2130
g28
(g32
S'\xe9Q\xbekmD\x96?'
p2131
tp2132
Rp2133
aa(lp2134
g28
(g32
S'\xd8\xeb\x8e\xb2\xdeE\x97?'
p2135
tp2136
Rp2137
aa(lp2138
g28
(g32
S'\\o4\xa8<c\xb6?'
p2139
tp2140
Rp2141
aa(lp2142
g28
(g32
S'\xb0\xe8-\x025\xf5\x85?'
p2143
tp2144
Rp2145
aa(lp2146
g28
(g32
S'\r\xf3\xe3\xa9\xa8\xe0\x8e?'
p2147
tp2148
Rp2149
aa(lp2150
g28
(g32
S'Wr\xab\xc5\xa4\xd2\xb4?'
p2151
tp2152
Rp2153
aa(lp2154
g28
(g32
S'\x07\xbf\xd7\xfe\xce \xb3?'
p2155
tp2156
Rp2157
aa(lp2158
g28
(g32
S'$\xe8\xd6\xae\xed\xa6\xb0?'
p2159
tp2160
Rp2161
aasg114
(lp2162
(lp2163
g28
(g32
S'v\xb1\xe2%A5O?'
p2164
tp2165
Rp2166
aag2163
a(lp2167
g28
(g32
S'\xff\x11\x16\xac\xe5\x99D?'
p2168
tp2169
Rp2170
aa(lp2171
g28
(g32
S'\xc8\xe45U\xbbD,?'
p2172
tp2173
Rp2174
aa(lp2175
g28
(g32
S'\x87+\x00|\x98\x92\xa2?'
p2176
tp2177
Rp2178
aa(lp2179
g28
(g32
S'$=\xe4\xa9\x89\xfa\x92?'
p2180
tp2181
Rp2182
aa(lp2183
g28
(g32
S'\x7f\xad\x93\xa2\x8a#\x90?'
p2184
tp2185
Rp2186
aa(lp2187
g28
(g32
S'\x7f\x14\x06\xfa\xa7J\x8e?'
p2188
tp2189
Rp2190
aa(lp2191
g28
(g32
S'\x93o\x94\x9b0\xd8U?'
p2192
tp2193
Rp2194
aa(lp2195
g28
(g32
S'Q\xa3\x80\xacuu\x99?'
p2196
tp2197
Rp2198
aa(lp2199
g28
(g32
S'\xf8\xcc2\x87\xee+\x90?'
p2200
tp2201
Rp2202
aa(lp2203
g28
(g32
S"'6z\x03YJ\x90?"
p2204
tp2205
Rp2206
aa(lp2207
g28
(g32
S'6D\xb6\xecr\xabZ?'
p2208
tp2209
Rp2210
aa(lp2211
g28
(g32
S'N\x04\xff\x99\xc9\xa0\x8f?'
p2212
tp2213
Rp2214
aa(lp2215
g28
(g32
S'\x02iDo\xa0@\xa1?'
p2216
tp2217
Rp2218
aa(lp2219
g28
(g32
S'\x1cgj\x8a\xf8\xbdT?'
p2220
tp2221
Rp2222
aa(lp2223
g28
(g32
S'\x15pj\xad\xba\xb5\x88?'
p2224
tp2225
Rp2226
aa(lp2227
g28
(g32
S'\xf23\x1b\xa6\x9aR\x86?'
p2228
tp2229
Rp2230
aa(lp2231
g28
(g32
S'\xfc6\x1d\xa6j\xb1D?'
p2232
tp2233
Rp2234
aa(lp2235
g28
(g32
S'\xfdu\xfd\x08{j\x1b?'
p2236
tp2237
Rp2238
aa(lp2239
g28
(g32
S'Q0:\n\xfdp\x8c?'
p2240
tp2241
Rp2242
aasg196
(lp2243
F0.17608404159545898
aF0.17608404159545898
aF0.16416287422180176
aF0.17659902572631836
aF0.17590093612670898
aF0.17212605476379395
aF0.1788020133972168
aF0.1775519847869873
aF0.18849515914916992
aF0.17712998390197754
aF0.18574905395507812
aF0.1896219253540039
aF0.18343210220336914
aF0.1675407886505127
aF0.16938996315002441
aF0.16758084297180176
aF0.1723778247833252
aF0.1746201515197754
aF0.18668913841247559
aF0.17374897003173828
aF0.16988182067871094
assS'SS-A'
p2244
(dp2245
g3
(lp2246
(lp2247
I31
aag2247
a(lp2248
I31
aa(lp2249
I31
aa(lp2250
I31
aa(lp2251
I31
aa(lp2252
I31
aa(lp2253
I31
aa(lp2254
I31
aa(lp2255
I31
aa(lp2256
I31
aa(lp2257
I31
aa(lp2258
I31
aa(lp2259
I31
aa(lp2260
I31
aa(lp2261
I31
aa(lp2262
I31
aa(lp2263
I31
aa(lp2264
I31
aa(lp2265
I31
aa(lp2266
I31
aasg25
(lp2267
(lp2268
g28
(g32
S'@\x1d\xac\x8eI\xe4\x06?'
p2269
tp2270
Rp2271
aag2268
a(lp2272
g28
(g32
S'\x7f\x00X\xfd\xaf\xf4t?'
p2273
tp2274
Rp2275
aa(lp2276
g28
(g32
S'\x19Az =?7?'
p2277
tp2278
Rp2279
aa(lp2280
g28
(g32
S'\x81\x1b\xba8\x80?o?'
p2281
tp2282
Rp2283
aa(lp2284
g28
(g32
S'\x00\x00\x00\x00\x00\x00\x00\x00'
p2285
tp2286
Rp2287
aa(lp2288
g28
(g32
S'9\xb0\xa8\xa5C\x8f\x10?'
p2289
tp2290
Rp2291
aa(lp2292
g28
(g32
S'\xa4\t3\xff\xb3\xc3)?'
p2293
tp2294
Rp2295
aa(lp2296
g28
(g32
S'@\x1d\xac\x8eI\xe4\x06?'
p2297
tp2298
Rp2299
aa(lp2300
g28
(g32
S'w\x12\xc3\x8aa8<?'
p2301
tp2302
Rp2303
aa(lp2304
g28
(g32
S'Q?r?Z\xf4c?'
p2305
tp2306
Rp2307
aa(lp2308
g28
(g32
S'\xc9W\xcb\xd0\xb8\xe88?'
p2309
tp2310
Rp2311
aa(lp2312
g28
(g32
S'\x81\x90\xf4\xdd9d6?'
p2313
tp2314
Rp2315
aa(lp2316
g28
(g32
S'\xac\xa0\xd1\xe6\n\xeew?'
p2317
tp2318
Rp2319
aa(lp2320
g28
(g32
S'\xa5\xb3,\xac\xdb2[?'
p2321
tp2322
Rp2323
aa(lp2324
g28
(g32
S'\x7f\x00X\xfd\xaf\xf4t?'
p2325
tp2326
Rp2327
aa(lp2328
g28
(g32
S'a\xab\x93\xfd\xe0\xf24?'
p2329
tp2330
Rp2331
aa(lp2332
g28
(g32
S'\xdf\x9bs\x16\x07\xbd\t?'
p2333
tp2334
Rp2335
aa(lp2336
g28
(g32
S'D+i\xf1\x08\xa2N?'
p2337
tp2338
Rp2339
aa(lp2340
g28
(g32
S'\xa5\xb3,\xac\xdb2[?'
p2341
tp2342
Rp2343
aa(lp2344
g28
(g32
S'@\x1d\xac\x8eI\xe4\x06?'
p2345
tp2346
Rp2347
aasg114
(lp2348
(lp2349
g28
(g32
S'\x9c\xdb=\xbfK\xbe\x18?'
p2350
tp2351
Rp2352
aag2349
a(lp2353
g28
(g32
S'\xac\xd6\xbc&uFa?'
p2354
tp2355
Rp2356
aa(lp2357
g28
(g32
S'}\xdeZ3C\xe6\x17?'
p2358
tp2359
Rp2360
aa(lp2361
g28
(g32
S'\x01\x1be4\xc6\x9eT?'
p2362
tp2363
Rp2364
aa(lp2365
g28
(g32
S'\x00\x00\x00\x00\x00\x00\x00\x00'
p2366
tp2367
Rp2368
aa(lp2369
g28
(g32
S'\xd4\xf5\xb2\x1e\xe9j\xf6>'
p2370
tp2371
Rp2372
aa(lp2373
g28
(g32
S'+\x82n\x07 oI?'
p2374
tp2375
Rp2376
aa(lp2377
g28
(g32
S'\x9c\xdb=\xbfK\xbe\x18?'
p2378
tp2379
Rp2380
aa(lp2381
g28
(g32
S'\xd7\xbc\x01\xa24\xc1d?'
p2382
tp2383
Rp2384
aa(lp2385
g28
(g32
S"\x8d$'\xb1\x82\x85P?"
p2386
tp2387
Rp2388
aa(lp2389
g28
(g32
S"\xc3\xd6M\xdc'\xec)?"
p2390
tp2391
Rp2392
aa(lp2393
g28
(g32
S'\x8c\xb0\x05\x7f\xb1\xd3H?'
p2394
tp2395
Rp2396
aa(lp2397
g28
(g32
S'\x11\xc1\x9b\xa7a\x00e?'
p2398
tp2399
Rp2400
aa(lp2401
g28
(g32
S'\xe1\x9bk\x8bz%X?'
p2402
tp2403
Rp2404
aa(lp2405
g28
(g32
S'i\xf4\x809\xc8\x17k?'
p2406
tp2407
Rp2408
aa(lp2409
g28
(g32
S'\xc0\x92\x07\xe6:V\x1d?'
p2410
tp2411
Rp2412
aa(lp2413
g28
(g32
S'\x8d\xd2\x10)\xc2A\xee>'
p2414
tp2415
Rp2416
aa(lp2417
g28
(g32
S'rd\xd5\xffZrd?'
p2418
tp2419
Rp2420
aa(lp2421
g28
(g32
S'\xbd\x01\x84ZS4&?'
p2422
tp2423
Rp2424
aa(lp2425
g28
(g32
S'\xcb\x07\xddM\tc\x05?'
p2426
tp2427
Rp2428
aasg196
(lp2429
F2.122277021408081
aF2.122277021408081
aF2.1367580890655518
aF1.3203680515289307
aF1.3149631023406982
aF1.3399288654327393
aF1.294600009918213
aF1.3921699523925781
aF1.2860751152038574
aF1.3471989631652832
aF1.2849221229553223
aF1.4278128147125244
aF1.1693909168243408
aF2.127351999282837
aF2.1111459732055664
aF1.3255538940429688
aF1.3843739032745361
aF1.3001668453216553
aF1.368116855621338
aF1.2635390758514404
aF1.3112311363220215
assS'SS-C'
p2430
(dp2431
g3
(lp2432
(lp2433
I31
aag2433
a(lp2434
I31
aa(lp2435
I31
aa(lp2436
I31
aa(lp2437
I31
aa(lp2438
I31
aa(lp2439
I31
aa(lp2440
I31
aa(lp2441
I31
aa(lp2442
I31
aa(lp2443
I31
aa(lp2444
I31
aa(lp2445
I31
aa(lp2446
I31
aa(lp2447
I31
aa(lp2448
I31
aa(lp2449
I31
aa(lp2450
I31
aa(lp2451
I31
aa(lp2452
I31
aasg25
(lp2453
(lp2454
g28
(g32
S'\x934\xc0\x92\x97;j?'
p2455
tp2456
Rp2457
aag2454
a(lp2458
g28
(g32
S'*,\x8eW\xc2#f?'
p2459
tp2460
Rp2461
aa(lp2462
g28
(g32
S'\x94]zL}\xe7b?'
p2463
tp2464
Rp2465
aa(lp2466
g28
(g32
S'\xa9jX\xd2\xb2xp?'
p2467
tp2468
Rp2469
aa(lp2470
g28
(g32
S'M\x01Cr\x8f\xc5g?'
p2471
tp2472
Rp2473
aa(lp2474
g28
(g32
S'\xc1\x1a`\xf5\xc5\x1fe?'
p2475
tp2476
Rp2477
aa(lp2478
g28
(g32
S'\xda\xae\xad\x14\xd3\xf8h?'
p2479
tp2480
Rp2481
aa(lp2482
g28
(g32
S'M\x01Cr\x8f\xc5g?'
p2483
tp2484
Rp2485
aa(lp2486
g28
(g32
S'\xe2)T\xbaA\x11i?'
p2487
tp2488
Rp2489
aa(lp2490
g28
(g32
S'\x8c$\xcft]\x01s?'
p2491
tp2492
Rp2493
aa(lp2494
g28
(g32
S'*,\x8eW\xc2#f?'
p2495
tp2496
Rp2497
aa(lp2498
g28
(g32
S'yo0\xcd\xaf;j?'
p2499
tp2500
Rp2501
aa(lp2502
g28
(g32
S'M\x01Cr\x8f\xc5g?'
p2503
tp2504
Rp2505
aa(lp2506
g28
(g32
S'\xfc\x0c\xc5}\x061e?'
p2507
tp2508
Rp2509
aa(lp2510
g28
(g32
S'\xa9jX\xd2\xb2xp?'
p2511
tp2512
Rp2513
aa(lp2514
g28
(g32
S'z\xbef]XHf?'
p2515
tp2516
Rp2517
aa(lp2518
g28
(g32
S'\xebJw\xc8\xb7\x17n?'
p2519
tp2520
Rp2521
aa(lp2522
g28
(g32
S'*,\x8eW\xc2#f?'
p2523
tp2524
Rp2525
aa(lp2526
g28
(g32
S'\xc1\x1a`\xf5\xc5\x1fe?'
p2527
tp2528
Rp2529
aa(lp2530
g28
(g32
S'\xeda\xbdD\xffYl?'
p2531
tp2532
Rp2533
aasg114
(lp2534
(lp2535
g28
(g32
S'\x1dx\x8d\x03\xb2]a?'
p2536
tp2537
Rp2538
aag2535
a(lp2539
g28
(g32
S'"Er\x1e\xc1C$?'
p2540
tp2541
Rp2542
aa(lp2543
g28
(g32
S'iz%\x06\x87\x136?'
p2544
tp2545
Rp2546
aa(lp2547
g28
(g32
S'\x00\x00\x00\x00\x00\x00\x00\x00'
p2548
tp2549
Rp2550
aa(lp2551
g28
(g32
S'6\x9ck\xaa:+6?'
p2552
tp2553
Rp2554
aa(lp2555
g28
(g32
S'\xb7g\x1d&o\xe8P?'
p2556
tp2557
Rp2558
aa(lp2559
g28
(g32
S'6\xc7\xda\xfb\x9b}H?'
p2560
tp2561
Rp2562
aa(lp2563
g28
(g32
S'6\x9ck\xaa:+6?'
p2564
tp2565
Rp2566
aa(lp2567
g28
(g32
S'L\xce \x00A\xb4=?'
p2568
tp2569
Rp2570
aa(lp2571
g28
(g32
S'n&2v\xa0)0?'
p2572
tp2573
Rp2574
aa(lp2575
g28
(g32
S'"Er\x1e\xc1C$?'
p2576
tp2577
Rp2578
aa(lp2579
g28
(g32
S'y\x13\xbbF\xdf\x00$?'
p2580
tp2581
Rp2582
aa(lp2583
g28
(g32
S'W9U)jGX?'
p2584
tp2585
Rp2586
aa(lp2587
g28
(g32
S'\xe8,\xdf\xa7\xdfx*?'
p2588
tp2589
Rp2590
aa(lp2591
g28
(g32
S'\x00\x00\x00\x00\x00\x00\x00\x00'
p2592
tp2593
Rp2594
aa(lp2595
g28
(g32
S'\xf2\x7f(\x85_\xba5?'
p2596
tp2597
Rp2598
aa(lp2599
g28
(g32
S'G\x86\x83\x06\xa2\x1eK?'
p2600
tp2601
Rp2602
aa(lp2603
g28
(g32
S'"Er\x1e\xc1C$?'
p2604
tp2605
Rp2606
aa(lp2607
g28
(g32
S'\xbb\xedp\xa2U\xaf^?'
p2608
tp2609
Rp2610
aa(lp2611
g28
(g32
S"\tg'\x0e\xbb\xc8#?"
p2612
tp2613
Rp2614
aasg196
(lp2615
F1.695951223373413
aF1.695951223373413
aF1.6319921016693115
aF1.458592176437378
aF1.530181884765625
aF1.6064741611480713
aF1.5880041122436523
aF1.608820915222168
aF1.5323491096496582
aF1.4955270290374756
aF1.4922678470611572
aF1.5170700550079346
aF1.491304874420166
aF1.435992956161499
aF1.5744578838348389
aF1.6008198261260986
aF1.6513268947601318
aF1.6763639450073242
aF1.6847360134124756
aF1.540884017944336
aF1.5682761669158936
assS'SS-B'
p2616
(dp2617
g3
(lp2618
(lp2619
I31
aag2619
a(lp2620
I31
aa(lp2621
I31
aa(lp2622
I31
aa(lp2623
I31
aa(lp2624
I31
aa(lp2625
I31
aa(lp2626
I31
aa(lp2627
I31
aa(lp2628
I31
aa(lp2629
I31
aa(lp2630
I31
aa(lp2631
I31
aa(lp2632
I31
aa(lp2633
I31
aa(lp2634
I31
aa(lp2635
I31
aa(lp2636
I31
aa(lp2637
I31
aa(lp2638
I31
aasg25
(lp2639
(lp2640
g28
(g32
S'\xa0\x19p\x15X\x1b\x91?'
p2641
tp2642
Rp2643
aag2640
a(lp2644
g28
(g32
S'\xd1n\nZ\xfd\x99T?'
p2645
tp2646
Rp2647
aa(lp2648
g28
(g32
S'\x93\x8b\x96h\x00f\x81?'
p2649
tp2650
Rp2651
aa(lp2652
g28
(g32
S'\x93\x8b\x96h\x00f\x81?'
p2653
tp2654
Rp2655
aa(lp2656
g28
(g32
S'RuR\xadpm\x93?'
p2657
tp2658
Rp2659
aa(lp2660
g28
(g32
S'\xe6\xcfy\xa6\xfa\xe4\x88?'
p2661
tp2662
Rp2663
aa(lp2664
g28
(g32
S'\xa0\x19p\x15X\x1b\x91?'
p2665
tp2666
Rp2667
aa(lp2668
g28
(g32
S'K&\xf7\xa4\x14\xc3\x9d?'
p2669
tp2670
Rp2671
aa(lp2672
g28
(g32
S'\x02\xeb\xd8\x97\xeb\xd8\x86?'
p2673
tp2674
Rp2675
aa(lp2676
g28
(g32
S'uT\xfc!U\xe5\x9a?'
p2677
tp2678
Rp2679
aa(lp2680
g28
(g32
S'D\xb1\xc2\xa3S-\x80?'
p2681
tp2682
Rp2683
aa(lp2684
g28
(g32
S'RS\xb8\x02\x99jo?'
p2685
tp2686
Rp2687
aa(lp2688
g28
(g32
S':t\xb7d\xf4)\x9b?'
p2689
tp2690
Rp2691
aa(lp2692
g28
(g32
S'u6\xbe\xdc)$i?'
p2693
tp2694
Rp2695
aa(lp2696
g28
(g32
S'\x93\x8b\x96h\x00f\x81?'
p2697
tp2698
Rp2699
aa(lp2700
g28
(g32
S'\xe6\xcfy\xa6\xfa\xe4\x88?'
p2701
tp2702
Rp2703
aa(lp2704
g28
(g32
S'\xb8\xfe\xa91M-\x9a?'
p2705
tp2706
Rp2707
aa(lp2708
g28
(g32
S'V#_,b\x8dl?'
p2709
tp2710
Rp2711
aa(lp2712
g28
(g32
S'x\xcf\xe7)\xa9\x80n?'
p2713
tp2714
Rp2715
aa(lp2716
g28
(g32
S'\xe6\xcfy\xa6\xfa\xe4\x88?'
p2717
tp2718
Rp2719
aasg114
(lp2720
(lp2721
g28
(g32
S'\x00\x00\x00\x00\x00\x00\x00\x00'
p2722
tp2723
Rp2724
aag2721
a(lp2725
g28
(g32
S'\x00\x00\x00\x00\x00\x00\x00\x00'
p2726
tp2727
Rp2728
aa(lp2729
g28
(g32
S'\x00\x00\x00\x00\x00\x00\x00\x00'
p2730
tp2731
Rp2732
aa(lp2733
g28
(g32
S'\x00\x00\x00\x00\x00\x00\x00\x00'
p2734
tp2735
Rp2736
aa(lp2737
g28
(g32
S'\x00\x00\x00\x00\x00\x00\x00\x00'
p2738
tp2739
Rp2740
aa(lp2741
g28
(g32
S'\x00\x00\x00\x00\x00\x00\x00\x00'
p2742
tp2743
Rp2744
aa(lp2745
g28
(g32
S'\x00\x00\x00\x00\x00\x00\x00\x00'
p2746
tp2747
Rp2748
aa(lp2749
g28
(g32
S'\x99\xd1\xd7g\x8ad\x98?'
p2750
tp2751
Rp2752
aa(lp2753
g28
(g32
S'\x06\x8e\xfe\x8ba^}?'
p2754
tp2755
Rp2756
aa(lp2757
g28
(g32
S'0\xe0\xaa\xee*\x80\x99?'
p2758
tp2759
Rp2760
aa(lp2761
g28
(g32
S'\x00\x9a\x90\xb1\x88\xb3o?'
p2762
tp2763
Rp2764
aa(lp2765
g28
(g32
S'^y\xd4\xc3\x96\x05.?'
p2766
tp2767
Rp2768
aa(lp2769
g28
(g32
S'\x1c\xf8\xf5\xc3\x17\xa7\xa1?'
p2770
tp2771
Rp2772
aa(lp2773
g28
(g32
S'\x00\x00\x00\x00\x00\x00\x00\x00'
p2774
tp2775
Rp2776
aa(lp2777
g28
(g32
S'\x00\x00\x00\x00\x00\x00\x00\x00'
p2778
tp2779
Rp2780
aa(lp2781
g28
(g32
S'r\xa2L\xae\xcd \x92?'
p2782
tp2783
Rp2784
aa(lp2785
g28
(g32
S'\xd0\xee\xd2\xbe\x01F\x93?'
p2786
tp2787
Rp2788
aa(lp2789
g28
(g32
S'\x00\x00\x00\x00\x00\x00\x00\x00'
p2790
tp2791
Rp2792
aa(lp2793
g28
(g32
S'\xe5\xc5d\x08ASR?'
p2794
tp2795
Rp2796
aa(lp2797
g28
(g32
S'r\xa2L\xae\xcd \x92?'
p2798
tp2799
Rp2800
aasg196
(lp2801
F0.23545503616333008
aF0.23545503616333008
aF0.2550339698791504
aF0.2583181858062744
aF0.25656914710998535
aF0.2519700527191162
aF0.19617700576782227
aF0.2530369758605957
aF0.25267815589904785
aF0.19707083702087402
aF0.25019192695617676
aF0.21852898597717285
aF0.22534990310668945
aF0.2811470031738281
aF0.28953099250793457
aF0.2823450565338135
aF0.26079392433166504
aF0.22937297821044922
aF0.2503550052642822
aF0.22828388214111328
aF0.24568700790405273
ass.