(dp0
S'SS-A'
p1
(dp2
S'evals'
p3
(lp4
I51
asS'igd'
p5
(lp6
cnumpy.core.multiarray
scalar
p7
(cnumpy
dtype
p8
(S'f8'
p9
I0
I1
tp10
Rp11
(I3
S'<'
p12
NNNI-1
I-1
I0
tp13
bS'm\x05\x82\x84\x97E\\?'
p14
tp15
Rp16
asS'gen_dist'
p17
(lp18
g7
(g11
S'(\xf9z\xa6\x7f\x82T?'
p19
tp20
Rp21
asS'time'
p22
F2.5320940017700195
ss.