(dp0
S'SS-E'
p1
(dp2
S'evals'
p3
(lp4
I51
asS'igd'
p5
(lp6
cnumpy.core.multiarray
scalar
p7
(cnumpy
dtype
p8
(S'f8'
p9
I0
I1
tp10
Rp11
(I3
S'<'
p12
NNNI-1
I-1
I0
tp13
bS'\xb2\xb6\x7f\x8b\x1e\xcc\x8c?'
p14
tp15
Rp16
asS'gen_dist'
p17
(lp18
g7
(g11
S'ppQU5\x88V?'
p19
tp20
Rp21
asS'time'
p22
F1.4907269477844238
ss.