(dp0
S'SS-L'
p1
(dp2
S'evals'
p3
(lp4
I51
asS'igd'
p5
(lp6
cnumpy.core.multiarray
scalar
p7
(cnumpy
dtype
p8
(S'f8'
p9
I0
I1
tp10
Rp11
(I3
S'<'
p12
NNNI-1
I-1
I0
tp13
bS'\xa5\x93\x0f}\xa0\xfbp?'
p14
tp15
Rp16
asS'gen_dist'
p17
(lp18
g7
(g11
S'0\xb9Wv\x0c\xfd\xaa?'
p19
tp20
Rp21
asS'time'
p22
F1.6210739612579346
ss.