(dp0
S'SS-O'
p1
(dp2
S'evals'
p3
(lp4
I51
asS'igd'
p5
(lp6
cnumpy.core.multiarray
scalar
p7
(cnumpy
dtype
p8
(S'f8'
p9
I0
I1
tp10
Rp11
(I3
S'<'
p12
NNNI-1
I-1
I0
tp13
bS'\xc3\xa7\xc5\x8d\x0c\xbd\xca>'
p14
tp15
Rp16
asS'gen_dist'
p17
(lp18
g7
(g11
S'U\xee\xea\xb5\xe7G\xc4>'
p19
tp20
Rp21
asS'time'
p22
F154.61888813972473
ss.