(dp0
S'SS-D'
p1
(dp2
S'evals'
p3
(lp4
I50
asS'igd'
p5
(lp6
cnumpy.core.multiarray
scalar
p7
(cnumpy
dtype
p8
(S'f8'
p9
I0
I1
tp10
Rp11
(I3
S'<'
p12
NNNI-1
I-1
I0
tp13
bS'^\x0e\x9d\xd5\xc6\xeb\x9e?'
p14
tp15
Rp16
asS'gen_dist'
p17
(lp18
g7
(g11
S'\xf6\n\xd4\xdeK\x0c\x8b?'
p19
tp20
Rp21
asS'time'
p22
F0.5530011653900146
ss.