(dp0
S'SS-K'
p1
(dp2
S'evals'
p3
(lp4
I50
asS'igd'
p5
(lp6
cnumpy.core.multiarray
scalar
p7
(cnumpy
dtype
p8
(S'f8'
p9
I0
I1
tp10
Rp11
(I3
S'<'
p12
NNNI-1
I-1
I0
tp13
bS'c\x00\x9a\xc2.\x9e\x84?'
p14
tp15
Rp16
asS'gen_dist'
p17
(lp18
g7
(g11
S'\x10\xab\xd9\x13\xc4\xd1B?'
p19
tp20
Rp21
asS'time'
p22
F8.448839902877808
ss.