(dp0
S'SS-L'
p1
(dp2
S'evals'
p3
(lp4
I50
asS'igd'
p5
(lp6
cnumpy.core.multiarray
scalar
p7
(cnumpy
dtype
p8
(S'f8'
p9
I0
I1
tp10
Rp11
(I3
S'<'
p12
NNNI-1
I-1
I0
tp13
bS'\xed\xd5\xb1\x98.\xb5\x83?'
p14
tp15
Rp16
asS'gen_dist'
p17
(lp18
g7
(g11
S'\x87\xc8\xf9\x91\x86\x06\x88?'
p19
tp20
Rp21
asS'time'
p22
F1.6861579418182373
ss.