(dp0
S'SS-A'
p1
(dp2
S'evals'
p3
(lp4
I76
asS'igd'
p5
(lp6
cnumpy.core.multiarray
scalar
p7
(cnumpy
dtype
p8
(S'f8'
p9
I0
I1
tp10
Rp11
(I3
S'<'
p12
NNNI-1
I-1
I0
tp13
bS'\x08\x7f\x8b\xa4\xd3_8?'
p14
tp15
Rp16
asS'gen_dist'
p17
(lp18
g7
(g11
S'6\xf2\xb7\xc4g\xd1b?'
p19
tp20
Rp21
asS'time'
p22
F4.35873007774353
ss.