(dp0
S'SS-C'
p1
(dp2
S'evals'
p3
(lp4
I76
asS'igd'
p5
(lp6
cnumpy.core.multiarray
scalar
p7
(cnumpy
dtype
p8
(S'f8'
p9
I0
I1
tp10
Rp11
(I3
S'<'
p12
NNNI-1
I-1
I0
tp13
bS'\xb8\xbf1\xf9\xc3\x8a^?'
p14
tp15
Rp16
asS'gen_dist'
p17
(lp18
g7
(g11
S'!\xd2\xd2\xbf\x99\x8a6?'
p19
tp20
Rp21
asS'time'
p22
F7.2826008796691895
ss.