(dp0
S'SS-D'
p1
(dp2
S'evals'
p3
(lp4
I76
asS'igd'
p5
(lp6
cnumpy.core.multiarray
scalar
p7
(cnumpy
dtype
p8
(S'f8'
p9
I0
I1
tp10
Rp11
(I3
S'<'
p12
NNNI-1
I-1
I0
tp13
bS'<\x0b\x06\x1c\x14\xe2\x98?'
p14
tp15
Rp16
asS'gen_dist'
p17
(lp18
g7
(g11
S'\x83\xf4\xc8~1\x9a ?'
p19
tp20
Rp21
asS'time'
p22
F0.7756137847900391
ss.