(dp0
S'SS-F'
p1
(dp2
S'evals'
p3
(lp4
I76
asS'igd'
p5
(lp6
cnumpy.core.multiarray
scalar
p7
(cnumpy
dtype
p8
(S'f8'
p9
I0
I1
tp10
Rp11
(I3
S'<'
p12
NNNI-1
I-1
I0
tp13
bS'\xdaC\x0f\x1e\x0c\xbf\x90?'
p14
tp15
Rp16
asS'gen_dist'
p17
(lp18
g7
(g11
S'\x83w\x05\x8a\xe0\x9d\x94?'
p19
tp20
Rp21
asS'time'
p22
F0.46596217155456543
ss.