(dp0
S'SS-K'
p1
(dp2
S'evals'
p3
(lp4
I76
asS'igd'
p5
(lp6
cnumpy.core.multiarray
scalar
p7
(cnumpy
dtype
p8
(S'f8'
p9
I0
I1
tp10
Rp11
(I3
S'<'
p12
NNNI-1
I-1
I0
tp13
bS'h\x8e1\xfe\xf7|\xa3?'
p14
tp15
Rp16
asS'gen_dist'
p17
(lp18
g7
(g11
S'|\x0f\xc6y/\xf6\xa2?'
p19
tp20
Rp21
asS'time'
p22
F7.517728805541992
ss.