(dp0
S'SS-M'
p1
(dp2
S'evals'
p3
(lp4
I78
asS'igd'
p5
(lp6
cnumpy.core.multiarray
scalar
p7
(cnumpy
dtype
p8
(S'f8'
p9
I0
I1
tp10
Rp11
(I3
S'<'
p12
NNNI-1
I-1
I0
tp13
bS'rj\x07\xec7&\xed>'
p14
tp15
Rp16
asS'gen_dist'
p17
(lp18
g7
(g11
S'\xe7\x17\x94\x1e\x0c\x05\xf9>'
p19
tp20
Rp21
asS'time'
p22
F372.2396228313446
ss.