(dp0
S'SS-N'
p1
(dp2
S'evals'
p3
(lp4
I76
asS'igd'
p5
(lp6
cnumpy.core.multiarray
scalar
p7
(cnumpy
dtype
p8
(S'f8'
p9
I0
I1
tp10
Rp11
(I3
S'<'
p12
NNNI-1
I-1
I0
tp13
bS'&\x01C\x17\xc9!s?'
p14
tp15
Rp16
asS'gen_dist'
p17
(lp18
g7
(g11
S'\xb6\xe5\x17\x80\x16\xa5\xb7?'
p19
tp20
Rp21
asS'time'
p22
F108.19706082344055
ss.