(dp0
S'SS-O'
p1
(dp2
S'evals'
p3
(lp4
I76
asS'igd'
p5
(lp6
cnumpy.core.multiarray
scalar
p7
(cnumpy
dtype
p8
(S'f8'
p9
I0
I1
tp10
Rp11
(I3
S'<'
p12
NNNI-1
I-1
I0
tp13
bS'Y!\xad\xb8~\xee\xc7>'
p14
tp15
Rp16
asS'gen_dist'
p17
(lp18
g7
(g11
S'\xc7\x15\xb3\xa6G\xde\xc2>'
p19
tp20
Rp21
asS'time'
p22
F239.73212909698486
ss.