(dp0
S'SS-B'
p1
(dp2
S'evals'
p3
(lp4
I51
asS'igd'
p5
(lp6
cnumpy.core.multiarray
scalar
p7
(cnumpy
dtype
p8
(S'f8'
p9
I0
I1
tp10
Rp11
(I3
S'<'
p12
NNNI-1
I-1
I0
tp13
bS'\xa7\x12\xd2\xa8l\xd5 ?'
p14
tp15
Rp16
asS'gen_dist'
p17
(lp18
g7
(g11
S'^y\xd4\xc3\x96\x05\x1e?'
p19
tp20
Rp21
asS'time'
p22
F0.4343600273132324
ss.