(dp0
S'SS-D'
p1
(dp2
S'evals'
p3
(lp4
I51
asS'igd'
p5
(lp6
cnumpy.core.multiarray
scalar
p7
(cnumpy
dtype
p8
(S'f8'
p9
I0
I1
tp10
Rp11
(I3
S'<'
p12
NNNI-1
I-1
I0
tp13
bS'\x19\xb3\x07mPpq?'
p14
tp15
Rp16
asS'gen_dist'
p17
(lp18
g7
(g11
S'K\xc5\xed\x02\x9d\xf0\x14?'
p19
tp20
Rp21
asS'time'
p22
F0.3352339267730713
ss.