(dp0
S'SS-J'
p1
(dp2
S'evals'
p3
(lp4
I50
asS'igd'
p5
(lp6
cnumpy.core.multiarray
scalar
p7
(cnumpy
dtype
p8
(S'f8'
p9
I0
I1
tp10
Rp11
(I3
S'<'
p12
NNNI-1
I-1
I0
tp13
bS'\xc2\x90=\x17S\x8f`?'
p14
tp15
Rp16
asS'gen_dist'
p17
(lp18
g7
(g11
S'H}\xa3O\x99\xdd%?'
p19
tp20
Rp21
asS'time'
p22
F7.3595030307769775
ss.