(dp0
S'SS-L'
p1
(dp2
S'evals'
p3
(lp4
(lp5
I50
aag5
a(lp6
I50
aa(lp7
I50
aa(lp8
I50
aa(lp9
I50
aa(lp10
I50
aa(lp11
I50
aa(lp12
I50
aa(lp13
I50
aa(lp14
I50
aa(lp15
I50
aa(lp16
I50
aa(lp17
I50
aa(lp18
I50
aa(lp19
I50
aa(lp20
I50
aa(lp21
I50
aa(lp22
I50
aa(lp23
I50
aa(lp24
I50
aa(lp25
I50
aa(lp26
I50
aa(lp27
I50
aa(lp28
I50
aa(lp29
I50
aa(lp30
I50
aa(lp31
I50
aa(lp32
I50
aa(lp33
I50
aa(lp34
I50
aasS'igd'
p35
(lp36
(lp37
cnumpy.core.multiarray
scalar
p38
(cnumpy
dtype
p39
(S'f8'
p40
I0
I1
tp41
Rp42
(I3
S'<'
p43
NNNI-1
I-1
I0
tp44
bS'o\x04\x9e\xb5\x10\xcb\x80?'
p45
tp46
Rp47
aag37
a(lp48
g38
(g42
S'\x8f5\xb0>\x08\x83a?'
p49
tp50
Rp51
aa(lp52
g38
(g42
S'\xef\x14\xf7n\xcd2r?'
p53
tp54
Rp55
aa(lp56
g38
(g42
S'\x1a\xc3\xa2\r\x8e\x8e\x7f?'
p57
tp58
Rp59
aa(lp60
g38
(g42
S'\xea\xd5\xa5\xa1Hgp?'
p61
tp62
Rp63
aa(lp64
g38
(g42
S' \x8f\x8bGrk\x83?'
p65
tp66
Rp67
aa(lp68
g38
(g42
S'T\\V}\xc70m?'
p69
tp70
Rp71
aa(lp72
g38
(g42
S'\xe9\xd2SzI\x0f\x88?'
p73
tp74
Rp75
aa(lp76
g38
(g42
S't\xd1\x10\xb1"\xf9l?'
p77
tp78
Rp79
aa(lp80
g38
(g42
S'\x12]2\x08\xab\xec\x9b?'
p81
tp82
Rp83
aa(lp84
g38
(g42
S'\xea\xeb\xa3_\xa5\xf7\x80?'
p85
tp86
Rp87
aa(lp88
g38
(g42
S'b\x10\xaf\xba\xcf,b?'
p89
tp90
Rp91
aa(lp92
g38
(g42
S'"\x85FM\xf8\xd3V?'
p93
tp94
Rp95
aa(lp96
g38
(g42
S'\r\x93\x177\x1d\xa8q?'
p97
tp98
Rp99
aa(lp100
g38
(g42
S'M\x1bZ\x91\xc5+v?'
p101
tp102
Rp103
aa(lp104
g38
(g42
S'\x14j\xcf~\xf6h{?'
p105
tp106
Rp107
aa(lp108
g38
(g42
S'>!F\x15\xb1\r\x88?'
p109
tp110
Rp111
aa(lp112
g38
(g42
S'\xc7\xee\xa0\x02"ks?'
p113
tp114
Rp115
aa(lp116
g38
(g42
S'\xdeg\xbdQ!\x91z?'
p117
tp118
Rp119
aa(lp120
g38
(g42
S'\xda\x84\xf4\x8f\xe7\x01l?'
p121
tp122
Rp123
aa(lp124
g38
(g42
S'V;\xe6\xcc \\z?'
p125
tp126
Rp127
aa(lp128
g38
(g42
S'SXC0bZ\x82?'
p129
tp130
Rp131
aa(lp132
g38
(g42
S'\x17!\xd6\x05\xde=d?'
p133
tp134
Rp135
aa(lp136
g38
(g42
S'\x85\x0fE\x81\x15\xefs?'
p137
tp138
Rp139
aa(lp140
g38
(g42
S'\xdf\xd0\x00\xb6\xe4!k?'
p141
tp142
Rp143
aa(lp144
g38
(g42
S'\xf6?\xcc\xc16gp?'
p145
tp146
Rp147
aa(lp148
g38
(g42
S'\n\x8c\x1a8\xe4\xd1\x85?'
p149
tp150
Rp151
aa(lp152
g38
(g42
S't\x86\xe9\x95=\xc1^?'
p153
tp154
Rp155
aa(lp156
g38
(g42
S'!|Y\xb0\x15\xc5\x80?'
p157
tp158
Rp159
aa(lp160
g38
(g42
S'\xed\xd5\xb1\x98.\xb5\x83?'
p161
tp162
Rp163
aasS'gen_dist'
p164
(lp165
(lp166
g38
(g42
S'\xdfF\xb0\x19\x83l\x90?'
p167
tp168
Rp169
aag166
a(lp170
g38
(g42
S'\x8f5\xb0>\x08\x83a?'
p171
tp172
Rp173
aa(lp174
g38
(g42
S'b%o\xb1\xdf\xf4z?'
p175
tp176
Rp177
aa(lp178
g38
(g42
S'\xdb\xdf\xb5\x97\xd3\x88\x85?'
p179
tp180
Rp181
aa(lp182
g38
(g42
S'>\x04\xe2\t\xfa\xe4j?'
p183
tp184
Rp185
aa(lp186
g38
(g42
S'\x00M*\xd7\xa3c\xa1?'
p187
tp188
Rp189
aa(lp190
g38
(g42
S'u\x92EGF\xd5\xa7?'
p191
tp192
Rp193
aa(lp194
g38
(g42
S'\x896\xf6\xabL:\x89?'
p195
tp196
Rp197
aa(lp198
g38
(g42
S'\x8d\x06\x12\x89\x91:w?'
p199
tp200
Rp201
aa(lp202
g38
(g42
S'\xdd\x02\xcfB\x93U\xac?'
p203
tp204
Rp205
aa(lp206
g38
(g42
S'\xe6\x19\xea\xc1\x9cE\x8b?'
p207
tp208
Rp209
aa(lp210
g38
(g42
S'+D\xe0H\x03xZ?'
p211
tp212
Rp213
aa(lp214
g38
(g42
S'\xa5>,|\xf3\xe0@?'
p215
tp216
Rp217
aa(lp218
g38
(g42
S'e8\x14\x07\xe1\x0e\xa2?'
p219
tp220
Rp221
aa(lp222
g38
(g42
S'M\x1bZ\x91\xc5+v?'
p223
tp224
Rp225
aa(lp226
g38
(g42
S'\xef\x8d2;\xd2{\x90?'
p227
tp228
Rp229
aa(lp230
g38
(g42
S'\xb0\xb9[\x19\xf3u\xaa?'
p231
tp232
Rp233
aa(lp234
g38
(g42
S'\xb0:\xdd\x12?#\x7f?'
p235
tp236
Rp237
aa(lp238
g38
(g42
S' \xe3q B\xf8\x82?'
p239
tp240
Rp241
aa(lp242
g38
(g42
S'\x0e\xb0G{ s\x84?'
p243
tp244
Rp245
aa(lp246
g38
(g42
S'\x94\xec\xb7~\x10\x8d\x81?'
p247
tp248
Rp249
aa(lp250
g38
(g42
S'\xc9M(\xec\xa6\xf7\x83?'
p251
tp252
Rp253
aa(lp254
g38
(g42
S'8#\xd3v\xe2jr?'
p255
tp256
Rp257
aa(lp258
g38
(g42
S'\xd1\xb4\xbe-\xb4\x7f\xa5?'
p259
tp260
Rp261
aa(lp262
g38
(g42
S'C\xb2\xda\xe4\xe2\xa8w?'
p263
tp264
Rp265
aa(lp266
g38
(g42
S't\xc1\xf3\x1f\xb0\xce\x84?'
p267
tp268
Rp269
aa(lp270
g38
(g42
S'\x04\xe3O\xaf^\x03\x90?'
p271
tp272
Rp273
aa(lp274
g38
(g42
S't\x86\xe9\x95=\xc1^?'
p275
tp276
Rp277
aa(lp278
g38
(g42
S'P834\xd1\xdf\x81?'
p279
tp280
Rp281
aa(lp282
g38
(g42
S'\x87\xc8\xf9\x91\x86\x06\x88?'
p283
tp284
Rp285
aasS'time'
p286
(lp287
F1.658221960067749
aF1.658221960067749
aF1.57765793800354
aF1.7198710441589355
aF1.6449170112609863
aF1.7228748798370361
aF1.6547460556030273
aF1.7431159019470215
aF1.6819260120391846
aF1.6096341609954834
aF1.6710700988769531
aF1.6342239379882812
aF1.6174650192260742
aF1.699864149093628
aF1.6381919384002686
aF1.6274378299713135
aF1.6666979789733887
aF1.665644884109497
aF1.6430659294128418
aF1.6176609992980957
aF1.5796289443969727
aF1.598449945449829
aF1.6197590827941895
aF1.663125991821289
aF1.6542460918426514
aF1.6555120944976807
aF1.6519689559936523
aF1.6951489448547363
aF1.7682969570159912
aF1.7523679733276367
aF1.6861579418182373
assS'SS-I'
p288
(dp289
g3
(lp290
(lp291
I50
aag291
a(lp292
I50
aa(lp293
I50
aa(lp294
I50
aa(lp295
I50
aa(lp296
I50
aa(lp297
I50
aa(lp298
I50
aa(lp299
I50
aa(lp300
I50
aa(lp301
I50
aa(lp302
I50
aa(lp303
I50
aa(lp304
I50
aa(lp305
I50
aa(lp306
I50
aa(lp307
I50
aa(lp308
I50
aa(lp309
I50
aa(lp310
I50
aa(lp311
I50
aa(lp312
I50
aa(lp313
I50
aa(lp314
I50
aa(lp315
I50
aa(lp316
I50
aa(lp317
I50
aa(lp318
I50
aa(lp319
I50
aa(lp320
I50
aasg35
(lp321
(lp322
g38
(g42
S'\x00\x00\x00\x00\x00\x00\x00\x00'
p323
tp324
Rp325
aag322
a(lp326
g38
(g42
S'\x00\x00\x00\x00\x00\x00\x00\x00'
p327
tp328
Rp329
aa(lp330
g38
(g42
S'\x00\x00\x00\x00\x00\x00\x00\x00'
p331
tp332
Rp333
aa(lp334
g38
(g42
S'\x00\x00\x00\x00\x00\x00\x00\x00'
p335
tp336
Rp337
aa(lp338
g38
(g42
S'\x00\x00\x00\x00\x00\x00\x00\x00'
p339
tp340
Rp341
aa(lp342
g38
(g42
S'\x00\x00\x00\x00\x00\x00\x00\x00'
p343
tp344
Rp345
aa(lp346
g38
(g42
S'\x00\x00\x00\x00\x00\x00\x00\x00'
p347
tp348
Rp349
aa(lp350
g38
(g42
S'\x00\x00\x00\x00\x00\x00\x00\x00'
p351
tp352
Rp353
aa(lp354
g38
(g42
S'\x00\x00\x00\x00\x00\x00\x00\x00'
p355
tp356
Rp357
aa(lp358
g38
(g42
S'\x00\x00\x00\x00\x00\x00\x00\x00'
p359
tp360
Rp361
aa(lp362
g38
(g42
S'\x00\x00\x00\x00\x00\x00\x00\x00'
p363
tp364
Rp365
aa(lp366
g38
(g42
S'\x00\x00\x00\x00\x00\x00\x00\x00'
p367
tp368
Rp369
aa(lp370
g38
(g42
S'\x00\x00\x00\x00\x00\x00\x00\x00'
p371
tp372
Rp373
aa(lp374
g38
(g42
S'\x00\x00\x00\x00\x00\x00\x00\x00'
p375
tp376
Rp377
aa(lp378
g38
(g42
S'\x00\x00\x00\x00\x00\x00\x00\x00'
p379
tp380
Rp381
aa(lp382
g38
(g42
S'\x00\x00\x00\x00\x00\x00\x00\x00'
p383
tp384
Rp385
aa(lp386
g38
(g42
S'\x00\x00\x00\x00\x00\x00\x00\x00'
p387
tp388
Rp389
aa(lp390
g38
(g42
S'\x00\x00\x00\x00\x00\x00\x00\x00'
p391
tp392
Rp393
aa(lp394
g38
(g42
S'\x00\x00\x00\x00\x00\x00\x00\x00'
p395
tp396
Rp397
aa(lp398
g38
(g42
S'\x00\x00\x00\x00\x00\x00\x00\x00'
p399
tp400
Rp401
aa(lp402
g38
(g42
S'\x00\x00\x00\x00\x00\x00\x00\x00'
p403
tp404
Rp405
aa(lp406
g38
(g42
S'\x00\x00\x00\x00\x00\x00\x00\x00'
p407
tp408
Rp409
aa(lp410
g38
(g42
S'\x00\x00\x00\x00\x00\x00\x00\x00'
p411
tp412
Rp413
aa(lp414
g38
(g42
S'\x00\x00\x00\x00\x00\x00\x00\x00'
p415
tp416
Rp417
aa(lp418
g38
(g42
S'\x00\x00\x00\x00\x00\x00\x00\x00'
p419
tp420
Rp421
aa(lp422
g38
(g42
S'\x00\x00\x00\x00\x00\x00\x00\x00'
p423
tp424
Rp425
aa(lp426
g38
(g42
S'\x00\x00\x00\x00\x00\x00\x00\x00'
p427
tp428
Rp429
aa(lp430
g38
(g42
S'\x00\x00\x00\x00\x00\x00\x00\x00'
p431
tp432
Rp433
aa(lp434
g38
(g42
S'\x00\x00\x00\x00\x00\x00\x00\x00'
p435
tp436
Rp437
aa(lp438
g38
(g42
S'\x00\x00\x00\x00\x00\x00\x00\x00'
p439
tp440
Rp441
aasg164
(lp442
(lp443
g38
(g42
S'\x00\x00\x00\x00\x00\x00\x00\x00'
p444
tp445
Rp446
aag443
a(lp447
g38
(g42
S'\x00\x00\x00\x00\x00\x00\x00\x00'
p448
tp449
Rp450
aa(lp451
g38
(g42
S'\x00\x00\x00\x00\x00\x00\x00\x00'
p452
tp453
Rp454
aa(lp455
g38
(g42
S'\x00\x00\x00\x00\x00\x00\x00\x00'
p456
tp457
Rp458
aa(lp459
g38
(g42
S'\x00\x00\x00\x00\x00\x00\x00\x00'
p460
tp461
Rp462
aa(lp463
g38
(g42
S'\x00\x00\x00\x00\x00\x00\x00\x00'
p464
tp465
Rp466
aa(lp467
g38
(g42
S'\x00\x00\x00\x00\x00\x00\x00\x00'
p468
tp469
Rp470
aa(lp471
g38
(g42
S'\x00\x00\x00\x00\x00\x00\x00\x00'
p472
tp473
Rp474
aa(lp475
g38
(g42
S'\x00\x00\x00\x00\x00\x00\x00\x00'
p476
tp477
Rp478
aa(lp479
g38
(g42
S'\x00\x00\x00\x00\x00\x00\x00\x00'
p480
tp481
Rp482
aa(lp483
g38
(g42
S'\x00\x00\x00\x00\x00\x00\x00\x00'
p484
tp485
Rp486
aa(lp487
g38
(g42
S'\x00\x00\x00\x00\x00\x00\x00\x00'
p488
tp489
Rp490
aa(lp491
g38
(g42
S'\x00\x00\x00\x00\x00\x00\x00\x00'
p492
tp493
Rp494
aa(lp495
g38
(g42
S'\x00\x00\x00\x00\x00\x00\x00\x00'
p496
tp497
Rp498
aa(lp499
g38
(g42
S'\x00\x00\x00\x00\x00\x00\x00\x00'
p500
tp501
Rp502
aa(lp503
g38
(g42
S'\x00\x00\x00\x00\x00\x00\x00\x00'
p504
tp505
Rp506
aa(lp507
g38
(g42
S'\x00\x00\x00\x00\x00\x00\x00\x00'
p508
tp509
Rp510
aa(lp511
g38
(g42
S'\x00\x00\x00\x00\x00\x00\x00\x00'
p512
tp513
Rp514
aa(lp515
g38
(g42
S'\x00\x00\x00\x00\x00\x00\x00\x00'
p516
tp517
Rp518
aa(lp519
g38
(g42
S'\x00\x00\x00\x00\x00\x00\x00\x00'
p520
tp521
Rp522
aa(lp523
g38
(g42
S'\x00\x00\x00\x00\x00\x00\x00\x00'
p524
tp525
Rp526
aa(lp527
g38
(g42
S'\x00\x00\x00\x00\x00\x00\x00\x00'
p528
tp529
Rp530
aa(lp531
g38
(g42
S'\x00\x00\x00\x00\x00\x00\x00\x00'
p532
tp533
Rp534
aa(lp535
g38
(g42
S'\x00\x00\x00\x00\x00\x00\x00\x00'
p536
tp537
Rp538
aa(lp539
g38
(g42
S'\x00\x00\x00\x00\x00\x00\x00\x00'
p540
tp541
Rp542
aa(lp543
g38
(g42
S'\x00\x00\x00\x00\x00\x00\x00\x00'
p544
tp545
Rp546
aa(lp547
g38
(g42
S'\x00\x00\x00\x00\x00\x00\x00\x00'
p548
tp549
Rp550
aa(lp551
g38
(g42
S'\x00\x00\x00\x00\x00\x00\x00\x00'
p552
tp553
Rp554
aa(lp555
g38
(g42
S'\x00\x00\x00\x00\x00\x00\x00\x00'
p556
tp557
Rp558
aa(lp559
g38
(g42
S'\x00\x00\x00\x00\x00\x00\x00\x00'
p560
tp561
Rp562
aasg286
(lp563
F2.4655978679656982
aF2.4655978679656982
aF2.363593101501465
aF2.3664231300354004
aF2.3442530632019043
aF2.4137320518493652
aF2.3036231994628906
aF2.3576841354370117
aF2.316215991973877
aF2.2678191661834717
aF2.335571050643921
aF2.2802159786224365
aF2.121760129928589
aF2.168494939804077
aF2.357135057449341
aF2.267789125442505
aF2.2334039211273193
aF2.1322011947631836
aF2.1620969772338867
aF2.2240140438079834
aF2.2519969940185547
aF2.144834041595459
aF2.2372488975524902
aF2.1854050159454346
aF2.1163151264190674
aF2.2649741172790527
aF2.2362208366394043
aF2.341602087020874
aF2.3051400184631348
aF2.3625741004943848
aF2.416325092315674
assS'SS-H'
p564
(dp565
g3
(lp566
(lp567
I50
aag567
a(lp568
I50
aa(lp569
I50
aa(lp570
I50
aa(lp571
I50
aa(lp572
I50
aa(lp573
I50
aa(lp574
I50
aa(lp575
I50
aa(lp576
I50
aa(lp577
I50
aa(lp578
I50
aa(lp579
I50
aa(lp580
I50
aa(lp581
I50
aa(lp582
I50
aa(lp583
I50
aa(lp584
I50
aa(lp585
I50
aa(lp586
I50
aa(lp587
I50
aa(lp588
I50
aa(lp589
I50
aa(lp590
I50
aa(lp591
I50
aa(lp592
I50
aa(lp593
I50
aa(lp594
I50
aa(lp595
I50
aa(lp596
I50
aasg35
(lp597
(lp598
g38
(g42
S'\xed\xc5\xc7\xa7AZe?'
p599
tp600
Rp601
aag598
a(lp602
g38
(g42
S'\xb3\x16\x04 F\x8c%?'
p603
tp604
Rp605
aa(lp606
g38
(g42
S'?WsA\xd4e#?'
p607
tp608
Rp609
aa(lp610
g38
(g42
S'(\xd6\xae&\xc2\x06#?'
p611
tp612
Rp613
aa(lp614
g38
(g42
S'\x00\x00\x00\x00\x00\x00\x00\x00'
p615
tp616
Rp617
aa(lp618
g38
(g42
S'~\xd1\xc3\xc3\x02\x011?'
p619
tp620
Rp621
aa(lp622
g38
(g42
S'\x7ff\x0f\xd1\xaa+.?'
p623
tp624
Rp625
aa(lp626
g38
(g42
S'\xfcJ\x99\x1c\xe7T\x16?'
p627
tp628
Rp629
aa(lp630
g38
(g42
S'\xcek;3PwN?'
p631
tp632
Rp633
aa(lp634
g38
(g42
S'\x01\xe3\x81\xf5Z\xa3_?'
p635
tp636
Rp637
aa(lp638
g38
(g42
S'\x1c\xdd\xd6a\xeb6c?'
p639
tp640
Rp641
aa(lp642
g38
(g42
S'\xce\x13\xfbA\xd1w"?'
p643
tp644
Rp645
aa(lp646
g38
(g42
S'\xd1D\xfb(q\x11$?'
p647
tp648
Rp649
aa(lp650
g38
(g42
S'\x8e\xba6\xb5);c?'
p651
tp652
Rp653
aa(lp654
g38
(g42
S'\xdb\x98Q\x89\xdff*?'
p655
tp656
Rp657
aa(lp658
g38
(g42
S'\x12\xba\x0bH\xf2H*?'
p659
tp660
Rp661
aa(lp662
g38
(g42
S'(\xd6\xae&\xc2\x06#?'
p663
tp664
Rp665
aa(lp666
g38
(g42
S'R\xeb\xaaF\xdbUO?'
p667
tp668
Rp669
aa(lp670
g38
(g42
S'\xfb\xa1-\xbc\xcaWO?'
p671
tp672
Rp673
aa(lp674
g38
(g42
S'\x0cTn\xc3s\xac\x1c?'
p675
tp676
Rp677
aa(lp678
g38
(g42
S'\xa8\xc0\xf2 .~\x1c?'
p679
tp680
Rp681
aa(lp682
g38
(g42
S'L/N\xc6\xb2\xa7\xf0>'
p683
tp684
Rp685
aa(lp686
g38
(g42
S'\xd7\xff\xed\xe4l\xba+?'
p687
tp688
Rp689
aa(lp690
g38
(g42
S'\xdb\x98Q\x89\xdff*?'
p691
tp692
Rp693
aa(lp694
g38
(g42
S',ra\x13PF\x16?'
p695
tp696
Rp697
aa(lp698
g38
(g42
S'\xca?\x1b\x13\x05\xd4\x03?'
p699
tp700
Rp701
aa(lp702
g38
(g42
S'RgIN\x12\xe9N?'
p703
tp704
Rp705
aa(lp706
g38
(g42
S'L/N\xc6\xb2\xa7\xf0>'
p707
tp708
Rp709
aa(lp710
g38
(g42
S'zzJ\xf2\x81[\x06?'
p711
tp712
Rp713
aa(lp714
g38
(g42
S'n\xfc#;\xd7j3?'
p715
tp716
Rp717
aasg164
(lp718
(lp719
g38
(g42
S'\xb0|\xc2\x90=6\x00?'
p720
tp721
Rp722
aag719
a(lp723
g38
(g42
S'\x00\x00\x00\x00\x00\x00\x00\x00'
p724
tp725
Rp726
aa(lp727
g38
(g42
S']\xaa\x97\xe4\xfd\xc8\x83?'
p728
tp729
Rp730
aa(lp731
g38
(g42
S'\x00\x00\x00\x00\x00\x00\x00\x00'
p732
tp733
Rp734
aa(lp735
g38
(g42
S'\x00\x00\x00\x00\x00\x00\x00\x00'
p736
tp737
Rp738
aa(lp739
g38
(g42
S'\xe6<\xab\xcbH\xb4\xc2>'
p740
tp741
Rp742
aa(lp743
g38
(g42
S']\xa8\xf9%\x05)\xf2>'
p744
tp745
Rp746
aa(lp747
g38
(g42
S'\xd5\xbarSy,\xcf>'
p748
tp749
Rp750
aa(lp751
g38
(g42
S'\x00\x00\x00\x00\x00\x00\x00\x00'
p752
tp753
Rp754
aa(lp755
g38
(g42
S'\x00\x00\x00\x00\x00\x00\x00\x00'
p756
tp757
Rp758
aa(lp759
g38
(g42
S'\x00\x00\x00\x00\x00\x00\x00\x00'
p760
tp761
Rp762
aa(lp763
g38
(g42
S'\xb4\x03!X\xa5B\x1a?'
p764
tp765
Rp766
aa(lp767
g38
(g42
S'\x83\x91\x18=\x1ae\x1b?'
p768
tp769
Rp770
aa(lp771
g38
(g42
S'\x00\x00\x00\x00\x00\x00\x00\x00'
p772
tp773
Rp774
aa(lp775
g38
(g42
S'\xed\xe7\xbc\x82\x1c\xc0\x11?'
p776
tp777
Rp778
aa(lp779
g38
(g42
S'\x84\xf9P\xf90e\xf5>'
p780
tp781
Rp782
aa(lp783
g38
(g42
S'\x00\x00\x00\x00\x00\x00\x00\x00'
p784
tp785
Rp786
aa(lp787
g38
(g42
S'\x83\x91\x18=\x1ae\x1b?'
p788
tp789
Rp790
aa(lp791
g38
(g42
S'\x00\x00\x00\x00\x00\x00\x00\x00'
p792
tp793
Rp794
aa(lp795
g38
(g42
S'\xd5\xbarSy,\xcf>'
p796
tp797
Rp798
aa(lp799
g38
(g42
S'\xb5\xbd\x0e\x8b\xdco ?'
p800
tp801
Rp802
aa(lp803
g38
(g42
S'\x00\x00\x00\x00\x00\x00\x00\x00'
p804
tp805
Rp806
aa(lp807
g38
(g42
S'\x00\x00\x00\x00\x00\x00\x00\x00'
p808
tp809
Rp810
aa(lp811
g38
(g42
S'\x9e\xae.T\x05I\x02?'
p812
tp813
Rp814
aa(lp815
g38
(g42
S'\x00\x00\x00\x00\x00\x00\x00\x00'
p816
tp817
Rp818
aa(lp819
g38
(g42
S'p\xea\xcb\x0f;{\x07?'
p820
tp821
Rp822
aa(lp823
g38
(g42
S"Y'\xb4\x07~^\x0c?"
p824
tp825
Rp826
aa(lp827
g38
(g42
S'\x00\x00\x00\x00\x00\x00\x00\x00'
p828
tp829
Rp830
aa(lp831
g38
(g42
S'\x83\x91\x18=\x1ae\x0b?'
p832
tp833
Rp834
aa(lp835
g38
(g42
S'\x83q\xc9\x17!\x9b\x11?'
p836
tp837
Rp838
aasg286
(lp839
F0.7109448909759521
aF0.7109448909759521
aF0.7911341190338135
aF0.8986589908599854
aF0.9239959716796875
aF0.8485691547393799
aF0.8176259994506836
aF0.7973511219024658
aF0.7179980278015137
aF0.784074068069458
aF0.7547581195831299
aF0.7467458248138428
aF0.7455761432647705
aF0.6982989311218262
aF0.7217469215393066
aF0.7143230438232422
aF0.6797440052032471
aF0.6779060363769531
aF0.6308228969573975
aF0.6462430953979492
aF0.6685631275177002
aF0.6915099620819092
aF0.6605908870697021
aF0.6719419956207275
aF0.7258927822113037
aF0.7091469764709473
aF0.7035198211669922
aF0.7178690433502197
aF0.7488601207733154
aF0.7888431549072266
aF0.8774418830871582
assS'SS-K'
p840
(dp841
g3
(lp842
(lp843
I50
aag843
a(lp844
I50
aa(lp845
I50
aa(lp846
I50
aa(lp847
I50
aa(lp848
I50
aa(lp849
I50
aa(lp850
I50
aa(lp851
I50
aa(lp852
I50
aa(lp853
I50
aa(lp854
I50
aa(lp855
I50
aa(lp856
I50
aa(lp857
I50
aa(lp858
I50
aa(lp859
I50
aa(lp860
I50
aa(lp861
I50
aa(lp862
I50
aa(lp863
I50
aa(lp864
I50
aa(lp865
I50
aa(lp866
I50
aa(lp867
I50
aa(lp868
I50
aa(lp869
I50
aa(lp870
I50
aa(lp871
I50
aa(lp872
I50
aasg35
(lp873
(lp874
g38
(g42
S'\xa8i9\x01\xd3#r?'
p875
tp876
Rp877
aag874
a(lp878
g38
(g42
S'\x94"!|%\x93h?'
p879
tp880
Rp881
aa(lp882
g38
(g42
S'#\x96\xa9\x82\x97\xa4\x80?'
p883
tp884
Rp885
aa(lp886
g38
(g42
S'\x0fv\\+\xc5\xf0y?'
p887
tp888
Rp889
aa(lp890
g38
(g42
S'i\xc2\xc0\x89D,\x91?'
p891
tp892
Rp893
aa(lp894
g38
(g42
S'c\x00\x9a\xc2.\x9e\x84?'
p895
tp896
Rp897
aa(lp898
g38
(g42
S'g\xbf\xbfb\x04\x0fy?'
p899
tp900
Rp901
aa(lp902
g38
(g42
S'\x074\x89\xe7\x190\x84?'
p903
tp904
Rp905
aa(lp906
g38
(g42
S'9\xe4\xb0\x90\xb8\xa9n?'
p907
tp908
Rp909
aa(lp910
g38
(g42
S'\x83.\xd3\xc2\xc1{y?'
p911
tp912
Rp913
aa(lp914
g38
(g42
S'\xaaf\x0eG\x08\xc6\x89?'
p915
tp916
Rp917
aa(lp918
g38
(g42
S'\x89\x0fb1\x0f\x00c?'
p919
tp920
Rp921
aa(lp922
g38
(g42
S'\xf4\xfc\x87:4m\x80?'
p923
tp924
Rp925
aa(lp926
g38
(g42
S'\x94\x95\x1b\xda\x0e\xccV?'
p927
tp928
Rp929
aa(lp930
g38
(g42
S'\xf7g\xea\xed\xee\x18\x8b?'
p931
tp932
Rp933
aa(lp934
g38
(g42
S'\\\xa7Cw\xa1\x12\x86?'
p935
tp936
Rp937
aa(lp938
g38
(g42
S'\xa4\x91Z=\xd5\xb6z?'
p939
tp940
Rp941
aa(lp942
g38
(g42
S'\x8du\x08m\x9c\xc0{?'
p943
tp944
Rp945
aa(lp946
g38
(g42
S'C\x9bD\xf4\x11\x19\x8a?'
p947
tp948
Rp949
aa(lp950
g38
(g42
S'g\xab,~\x1c\x92r?'
p951
tp952
Rp953
aa(lp954
g38
(g42
S'\xcc\x06Z\xa5\xeb\xaec?'
p955
tp956
Rp957
aa(lp958
g38
(g42
S'\xe4\xb8\xf2\x1c\xd0\xb0\x97?'
p959
tp960
Rp961
aa(lp962
g38
(g42
S'\xecS\x00\xd9?\x06m?'
p963
tp964
Rp965
aa(lp966
g38
(g42
S'\x94\x9b\xec\xe6\xf6\x99\x8f?'
p967
tp968
Rp969
aa(lp970
g38
(g42
S'\x93\x10\xc8\xaa\x0fEp?'
p971
tp972
Rp973
aa(lp974
g38
(g42
S'\xb1\xf3\x92\xe0\x15uj?'
p975
tp976
Rp977
aa(lp978
g38
(g42
S'L\x85\n\x92C\x1do?'
p979
tp980
Rp981
aa(lp982
g38
(g42
S'\xcf3U\xb1\xffj{?'
p983
tp984
Rp985
aa(lp986
g38
(g42
S'\xd9\x0c\xdegywj?'
p987
tp988
Rp989
aa(lp990
g38
(g42
S'\x99A`d`\xb1\x7f?'
p991
tp992
Rp993
aasg164
(lp994
(lp995
g38
(g42
S'\xd2\xe3PP\xb5\xeb]?'
p996
tp997
Rp998
aag995
a(lp999
g38
(g42
S'\x89\xbb\xdaN\xe0TT?'
p1000
tp1001
Rp1002
aa(lp1003
g38
(g42
S'\x0e+p\x7f\xb6HT?'
p1004
tp1005
Rp1006
aa(lp1007
g38
(g42
S'\x15\x0fj\xe6\xac\x7fJ?'
p1008
tp1009
Rp1010
aa(lp1011
g38
(g42
S'\xef\x92:b.\xa62?'
p1012
tp1013
Rp1014
aa(lp1015
g38
(g42
S'\x10\xab\xd9\x13\xc4\xd1B?'
p1016
tp1017
Rp1018
aa(lp1019
g38
(g42
S'^\xdb\x0b4;\xd2`?'
p1020
tp1021
Rp1022
aa(lp1023
g38
(g42
S'K\x13x=A\x1eK?'
p1024
tp1025
Rp1026
aa(lp1027
g38
(g42
S'\xf0\xa7\x83T;\x933?'
p1028
tp1029
Rp1030
aa(lp1031
g38
(g42
S'\x98\xc5\x1e\x9a?^Q?'
p1032
tp1033
Rp1034
aa(lp1035
g38
(g42
S'\xfc\xe1\xe8[h\xa6C?'
p1036
tp1037
Rp1038
aa(lp1039
g38
(g42
S'}ns\xcd*\x02;?'
p1040
tp1041
Rp1042
aa(lp1043
g38
(g42
S'\xeaCS\xbaQ\x1aX?'
p1044
tp1045
Rp1046
aa(lp1047
g38
(g42
S'\xdb\x05\xa0\xe8\xcf\x05I?'
p1048
tp1049
Rp1050
aa(lp1051
g38
(g42
S'\xff\xe2\xb42\xc1\xb9\x9b?'
p1052
tp1053
Rp1054
aa(lp1055
g38
(g42
S'\xdb\x07\x92\xb3k\x11Y?'
p1056
tp1057
Rp1058
aa(lp1059
g38
(g42
S'&\xf5\x9d\x95v-H?'
p1060
tp1061
Rp1062
aa(lp1063
g38
(g42
S'\xb5\xcd\xaa8!\xe8Z?'
p1064
tp1065
Rp1066
aa(lp1067
g38
(g42
S'\xc2\x08\xed\x01\x9d\\0?'
p1068
tp1069
Rp1070
aa(lp1071
g38
(g42
S'6\xfe\x8aF\xe8yW?'
p1072
tp1073
Rp1074
aa(lp1075
g38
(g42
S'\x04\xe4\xb7Z\xb7\x06<?'
p1076
tp1077
Rp1078
aa(lp1079
g38
(g42
S'\x80\x91V\x8e\xfd"b?'
p1080
tp1081
Rp1082
aa(lp1083
g38
(g42
S'!\xdc\x94\xc6\xbb5V?'
p1084
tp1085
Rp1086
aa(lp1087
g38
(g42
S'p\x8d\x8b\x0e\x03\xf34?'
p1088
tp1089
Rp1090
aa(lp1091
g38
(g42
S'\xbbC\x16w\xa8\nW?'
p1092
tp1093
Rp1094
aa(lp1095
g38
(g42
S'z\xe9\x1a\xbe\x99YU?'
p1096
tp1097
Rp1098
aa(lp1099
g38
(g42
S'\x11\x90N\xf7\x99\xdcE?'
p1100
tp1101
Rp1102
aa(lp1103
g38
(g42
S't\x0f\xf8\xa6\xb7\x87b?'
p1104
tp1105
Rp1106
aa(lp1107
g38
(g42
S'\xed\x9f\x18\xec\x87\xf09?'
p1108
tp1109
Rp1110
aa(lp1111
g38
(g42
S'\x86@\xe8F\x02\x96Q?'
p1112
tp1113
Rp1114
aasg286
(lp1115
F8.199004173278809
aF8.199004173278809
aF8.057878017425537
aF8.022170066833496
aF8.31990385055542
aF8.377533912658691
aF8.448839902877808
aF6.545682907104492
aF6.597048044204712
aF6.177489995956421
aF6.516188859939575
aF8.45418405532837
aF8.504691123962402
aF7.1294801235198975
aF8.356499195098877
aF8.116313934326172
aF5.365601062774658
aF5.306817054748535
aF5.1265549659729
aF5.362099885940552
aF6.803903102874756
aF7.051992893218994
aF6.970810174942017
aF6.87460994720459
aF7.217386960983276
aF6.750229120254517
aF6.295623064041138
aF6.604457855224609
aF6.630925178527832
aF6.417129993438721
aF6.703933000564575
assS'SS-J'
p1116
(dp1117
g3
(lp1118
(lp1119
I50
aag1119
a(lp1120
I50
aa(lp1121
I50
aa(lp1122
I50
aa(lp1123
I50
aa(lp1124
I50
aa(lp1125
I50
aa(lp1126
I50
aa(lp1127
I50
aa(lp1128
I50
aa(lp1129
I50
aa(lp1130
I50
aa(lp1131
I50
aa(lp1132
I50
aa(lp1133
I50
aa(lp1134
I50
aa(lp1135
I50
aa(lp1136
I50
aa(lp1137
I50
aa(lp1138
I50
aa(lp1139
I50
aa(lp1140
I50
aa(lp1141
I50
aa(lp1142
I50
aa(lp1143
I50
aa(lp1144
I50
aa(lp1145
I50
aa(lp1146
I50
aa(lp1147
I50
aa(lp1148
I50
aasg35
(lp1149
(lp1150
g38
(g42
S'|*\x95\x0b\xf3\xbd\x81?'
p1151
tp1152
Rp1153
aag1150
a(lp1154
g38
(g42
S'\xa9\xe7\xebQ\xd3\x18\x87?'
p1155
tp1156
Rp1157
aa(lp1158
g38
(g42
S'\n]\xca\x89:V{?'
p1159
tp1160
Rp1161
aa(lp1162
g38
(g42
S'\x9c\xfa\xc1\xc1\x93\x92o?'
p1163
tp1164
Rp1165
aa(lp1166
g38
(g42
S']\xc2 \x01L\ng?'
p1167
tp1168
Rp1169
aa(lp1170
g38
(g42
S'\xedE\xfc6\x85\xcbT?'
p1171
tp1172
Rp1173
aa(lp1174
g38
(g42
S'\xd9\xe4\xe1`\x16~\x85?'
p1175
tp1176
Rp1177
aa(lp1178
g38
(g42
S'\x18d\xa4\xbd~\x9c\x82?'
p1179
tp1180
Rp1181
aa(lp1182
g38
(g42
S'_\xdaF\xb3\x8f\x9e\x86?'
p1183
tp1184
Rp1185
aa(lp1186
g38
(g42
S'E%4\x06O\x93g?'
p1187
tp1188
Rp1189
aa(lp1190
g38
(g42
S'\xbe\x10.y\xca\x96_?'
p1191
tp1192
Rp1193
aa(lp1194
g38
(g42
S'\x82\xdc\xa3\x87\xac\xd3_?'
p1195
tp1196
Rp1197
aa(lp1198
g38
(g42
S'[\xec\x87\xb3!\xd6\\?'
p1199
tp1200
Rp1201
aa(lp1202
g38
(g42
S'x\x08\x7f\x02!\xfbT?'
p1203
tp1204
Rp1205
aa(lp1206
g38
(g42
S'\xc2T+=\x93\xf6\x81?'
p1207
tp1208
Rp1209
aa(lp1210
g38
(g42
S'Ot\x82\x04\xe8\xad`?'
p1211
tp1212
Rp1213
aa(lp1214
g38
(g42
S'\xba\xf9k/\xd7za?'
p1215
tp1216
Rp1217
aa(lp1218
g38
(g42
S'\x1f\xd6\xdeDKI|?'
p1219
tp1220
Rp1221
aa(lp1222
g38
(g42
S'\xca\xc4\x1f\xd1X\x14w?'
p1223
tp1224
Rp1225
aa(lp1226
g38
(g42
S'Q\xac\xe0Po\xdan?'
p1227
tp1228
Rp1229
aa(lp1230
g38
(g42
S'\xda\x1c\xfb=\xfe\xd6e?'
p1231
tp1232
Rp1233
aa(lp1234
g38
(g42
S'\xb6\xbf\xfbA\x9bny?'
p1235
tp1236
Rp1237
aa(lp1238
g38
(g42
S'\xad\x0eb\xe2\x18GR?'
p1239
tp1240
Rp1241
aa(lp1242
g38
(g42
S'\x8bpt\x82*Vj?'
p1243
tp1244
Rp1245
aa(lp1246
g38
(g42
S'\xf9\xe0\xd4\xdf\x9c\x01`?'
p1247
tp1248
Rp1249
aa(lp1250
g38
(g42
S'\xd1M\xe9\x90\x87@a?'
p1251
tp1252
Rp1253
aa(lp1254
g38
(g42
S'5\x88\x0b\x81\x9f\xf3f?'
p1255
tp1256
Rp1257
aa(lp1258
g38
(g42
S"\xd2'\xea}-\xd5v?"
p1259
tp1260
Rp1261
aa(lp1262
g38
(g42
S'\xe7\xf7\x8d\x99\xd3\xc5x?'
p1263
tp1264
Rp1265
aa(lp1266
g38
(g42
S'\x9al\xea\xd8V\x14j?'
p1267
tp1268
Rp1269
aasg164
(lp1270
(lp1271
g38
(g42
S'\xd7r\x17s+\xa3\x14?'
p1272
tp1273
Rp1274
aag1271
a(lp1275
g38
(g42
S'm\\r"\xec\xe3+?'
p1276
tp1277
Rp1278
aa(lp1279
g38
(g42
S'\xef\xd4\x84\xdeHTI?'
p1280
tp1281
Rp1282
aa(lp1283
g38
(g42
S'#\xab\xb6\xbc\x99z\x06?'
p1284
tp1285
Rp1286
aa(lp1287
g38
(g42
S"'/\xf4\x99\xb4\x03)?"
p1288
tp1289
Rp1290
aa(lp1291
g38
(g42
S'\xe7\xc9\xcb\x96\xe2\xce\x18?'
p1292
tp1293
Rp1294
aa(lp1295
g38
(g42
S'.\xab\xb5Q#\xd4A?'
p1296
tp1297
Rp1298
aa(lp1299
g38
(g42
S'\xd1\xca:\xd7\xad\x0c\xeb>'
p1300
tp1301
Rp1302
aa(lp1303
g38
(g42
S'o\x1e\x13\xb9P\xb8D?'
p1304
tp1305
Rp1306
aa(lp1307
g38
(g42
S'\xe2l\x9d{$\xbcB?'
p1308
tp1309
Rp1310
aa(lp1311
g38
(g42
S'\xb3\x1f\x04\x13~\x16\x15?'
p1312
tp1313
Rp1314
aa(lp1315
g38
(g42
S'\xa4\xd2L\xa3i\xebG?'
p1316
tp1317
Rp1318
aa(lp1319
g38
(g42
S'\r\xe8\x06x\x8b\x18K?'
p1320
tp1321
Rp1322
aa(lp1323
g38
(g42
S'\xce\xd32-o\xb6\x17?'
p1324
tp1325
Rp1326
aa(lp1327
g38
(g42
S'\x8b~\xf5\x1e\x1e\xfb5?'
p1328
tp1329
Rp1330
aa(lp1331
g38
(g42
S'\xe4\xf3\x98\xe0w8!?'
p1332
tp1333
Rp1334
aa(lp1335
g38
(g42
S'\xcb\xbevG\xcc\xac\x0c?'
p1336
tp1337
Rp1338
aa(lp1339
g38
(g42
S"\xb3W\xffA\x86\x06'?"
p1340
tp1341
Rp1342
aa(lp1343
g38
(g42
S'\xdbF\xbf:"bE?'
p1344
tp1345
Rp1346
aa(lp1347
g38
(g42
S'i\x040\x02!l\n?'
p1348
tp1349
Rp1350
aa(lp1351
g38
(g42
S'\x15\xab\xd1\xd8\x8f\xaf9?'
p1352
tp1353
Rp1354
aa(lp1355
g38
(g42
S'\xd7Mr\xc5\x84H\x08?'
p1356
tp1357
Rp1358
aa(lp1359
g38
(g42
S'P\xe0|!\xeb.+?'
p1360
tp1361
Rp1362
aa(lp1363
g38
(g42
S'-\x8e\x11=\x82\xb73?'
p1364
tp1365
Rp1366
aa(lp1367
g38
(g42
S'@\x8d:2(\n.?'
p1368
tp1369
Rp1370
aa(lp1371
g38
(g42
S'\xbeU\xdd\x8b\xc8\x87*?'
p1372
tp1373
Rp1374
aa(lp1375
g38
(g42
S'\x88\xd5\x7f\xc0+\xe3 ?'
p1376
tp1377
Rp1378
aa(lp1379
g38
(g42
S'\xec9\x87!\xa8\xb7\x14?'
p1380
tp1381
Rp1382
aa(lp1383
g38
(g42
S'%L\x83FS\xfa.?'
p1384
tp1385
Rp1386
aa(lp1387
g38
(g42
S'p\x06\x13\xc2Q\xc9\x1e?'
p1388
tp1389
Rp1390
aasg286
(lp1391
F8.925790071487427
aF8.925790071487427
aF8.808672904968262
aF8.11573600769043
aF8.075800895690918
aF8.116219997406006
aF7.862133979797363
aF8.596203088760376
aF8.256718158721924
aF8.367555141448975
aF8.284823894500732
aF8.184966087341309
aF8.295694828033447
aF8.345705032348633
aF8.078777074813843
aF7.878154993057251
aF8.157518148422241
aF8.306902885437012
aF8.31469202041626
aF8.103506088256836
aF7.993937969207764
aF8.196690797805786
aF8.30907392501831
aF7.639991044998169
aF8.4423828125
aF8.62684416770935
aF8.229169845581055
aF7.634076118469238
aF8.046839952468872
aF8.055670976638794
aF7.876213073730469
assS'SS-E'
p1392
(dp1393
g3
(lp1394
(lp1395
I50
aag1395
a(lp1396
I50
aa(lp1397
I50
aa(lp1398
I50
aa(lp1399
I50
aa(lp1400
I50
aa(lp1401
I50
aa(lp1402
I50
aa(lp1403
I50
aa(lp1404
I50
aa(lp1405
I50
aa(lp1406
I50
aa(lp1407
I50
aa(lp1408
I50
aa(lp1409
I50
aa(lp1410
I50
aa(lp1411
I50
aa(lp1412
I50
aa(lp1413
I50
aa(lp1414
I50
aa(lp1415
I50
aa(lp1416
I50
aa(lp1417
I50
aa(lp1418
I50
aa(lp1419
I50
aa(lp1420
I50
aa(lp1421
I50
aa(lp1422
I50
aa(lp1423
I50
aa(lp1424
I50
aasg35
(lp1425
(lp1426
g38
(g42
S'\xc7\x05\xeb\xb9&\x0e\x94?'
p1427
tp1428
Rp1429
aag1426
a(lp1430
g38
(g42
S' \xdf\x8f\t\x88\xea\xa9?'
p1431
tp1432
Rp1433
aa(lp1434
g38
(g42
S'\xdc\x91\xf4\x9c\x9f\x02\xab?'
p1435
tp1436
Rp1437
aa(lp1438
g38
(g42
S'\xbaKp\xea\xf0L\xa0?'
p1439
tp1440
Rp1441
aa(lp1442
g38
(g42
S'&Q\x80\xdd\xbf\xd5\x9f?'
p1443
tp1444
Rp1445
aa(lp1446
g38
(g42
S'\xa0\xe8\xa3\xdd\xeeG\x82?'
p1447
tp1448
Rp1449
aa(lp1450
g38
(g42
S'k\xffd\xf9Uf\x81?'
p1451
tp1452
Rp1453
aa(lp1454
g38
(g42
S"\xc6'o\xa2x\xdf\x94?"
p1455
tp1456
Rp1457
aa(lp1458
g38
(g42
S'6\x1e\xd5\xf7\xaf\xc3\x98?'
p1459
tp1460
Rp1461
aa(lp1462
g38
(g42
S"\xa7'b\xf2\xe3\xf4\x82?"
p1463
tp1464
Rp1465
aa(lp1466
g38
(g42
S'Zr\xf7\xe4o\x98\x9e?'
p1467
tp1468
Rp1469
aa(lp1470
g38
(g42
S'\x95\x00\xb3\xdb\xad\xa1\x9a?'
p1471
tp1472
Rp1473
aa(lp1474
g38
(g42
S'94\x83\xc9\xe3g\x9a?'
p1475
tp1476
Rp1477
aa(lp1478
g38
(g42
S'\x0f\x91\x9e\xb0\xcc\xe0\x9f?'
p1479
tp1480
Rp1481
aa(lp1482
g38
(g42
S'*\xb4P}X\xb2\x91?'
p1483
tp1484
Rp1485
aa(lp1486
g38
(g42
S'v\x85\x90\x17/\x01\x95?'
p1487
tp1488
Rp1489
aa(lp1490
g38
(g42
S'nY\x04\xa1\xca&\x8a?'
p1491
tp1492
Rp1493
aa(lp1494
g38
(g42
S'E\xc1\x9e\x00\xfec\x84?'
p1495
tp1496
Rp1497
aa(lp1498
g38
(g42
S'\xa2x\xfb!5\xc6\xa1?'
p1499
tp1500
Rp1501
aa(lp1502
g38
(g42
S'7\xab\xe4\x81\x991\x98?'
p1503
tp1504
Rp1505
aa(lp1506
g38
(g42
S'E\x9bJK\xc7\xc6\x94?'
p1507
tp1508
Rp1509
aa(lp1510
g38
(g42
S'N\x1a\xb8b\n\x16\x96?'
p1511
tp1512
Rp1513
aa(lp1514
g38
(g42
S'\x87p\xed\xeba6\x90?'
p1515
tp1516
Rp1517
aa(lp1518
g38
(g42
S'>\xe9\xd8p\xd8\xf0\xa9?'
p1519
tp1520
Rp1521
aa(lp1522
g38
(g42
S'\xcb}\xee\xecCS\x8b?'
p1523
tp1524
Rp1525
aa(lp1526
g38
(g42
S'\xa1\x92\x01\xffJ\xcc\x95?'
p1527
tp1528
Rp1529
aa(lp1530
g38
(g42
S'\x1a\xbft\xf0\xa2\xe6q?'
p1531
tp1532
Rp1533
aa(lp1534
g38
(g42
S'\x10\x82( \x18\xd3\x92?'
p1535
tp1536
Rp1537
aa(lp1538
g38
(g42
S'\x10Q{L\xd6\x13u?'
p1539
tp1540
Rp1541
aa(lp1542
g38
(g42
S'\x8b\xae @\xb9\xda\x94?'
p1543
tp1544
Rp1545
aasg164
(lp1546
(lp1547
g38
(g42
S'F&3\xe0]6A?'
p1548
tp1549
Rp1550
aag1547
a(lp1551
g38
(g42
S'@P9\xe3AcH?'
p1552
tp1553
Rp1554
aa(lp1555
g38
(g42
S"\x7f\xa1'\xc9f\xacK?"
p1556
tp1557
Rp1558
aa(lp1559
g38
(g42
S'R\xf65\xdbc26?'
p1560
tp1561
Rp1562
aa(lp1563
g38
(g42
S'\xe3rG~\xbe)7?'
p1564
tp1565
Rp1566
aa(lp1567
g38
(g42
S'\xf2qf,o\xbdW?'
p1568
tp1569
Rp1570
aa(lp1571
g38
(g42
S'\xbae\x8c\x7f\xc1\x9ah?'
p1572
tp1573
Rp1574
aa(lp1575
g38
(g42
S'd\xc1\xaf\x01edD?'
p1576
tp1577
Rp1578
aa(lp1579
g38
(g42
S'\xb5\xe3\xee/a\xb1r?'
p1580
tp1581
Rp1582
aa(lp1583
g38
(g42
S"\xa6\xef\x11\x1c'\x92R?"
p1584
tp1585
Rp1586
aa(lp1587
g38
(g42
S'\xb7\xb9\xefC\x9a\x035?'
p1588
tp1589
Rp1590
aa(lp1591
g38
(g42
S'C\xeb\xcc\xb9\xf6RG?'
p1592
tp1593
Rp1594
aa(lp1595
g38
(g42
S'\xa4e\x0b\xb3u\xcca?'
p1596
tp1597
Rp1598
aa(lp1599
g38
(g42
S'\xe0\xbd\xaa4?\xff6?'
p1600
tp1601
Rp1602
aa(lp1603
g38
(g42
S'\x19\xe4\x01XfO\x87?'
p1604
tp1605
Rp1606
aa(lp1607
g38
(g42
S'\xfc=\x1a\x03{AR?'
p1608
tp1609
Rp1610
aa(lp1611
g38
(g42
S'\x8e\xe9\xa1\x1d\xa0\x85P?'
p1612
tp1613
Rp1614
aa(lp1615
g38
(g42
S'{\xd7\xf7*\x9b\xe9X?'
p1616
tp1617
Rp1618
aa(lp1619
g38
(g42
S'\xd2R>I\x07\x99C?'
p1620
tp1621
Rp1622
aa(lp1623
g38
(g42
S'S\xda\xad|(\xf59?'
p1624
tp1625
Rp1626
aa(lp1627
g38
(g42
S']\x02Z\x8bX^C?'
p1628
tp1629
Rp1630
aa(lp1631
g38
(g42
S'\x08\xc9\xeb\xc64\x12|?'
p1632
tp1633
Rp1634
aa(lp1635
g38
(g42
S'\xc8\x8b\x0f\xf8\xba#B?'
p1636
tp1637
Rp1638
aa(lp1639
g38
(g42
S"'\xa9\xec\xe3@\xe8=?"
p1640
tp1641
Rp1642
aa(lp1643
g38
(g42
S'_\xbc\xb2\x19\x9c\xa8S?'
p1644
tp1645
Rp1646
aa(lp1647
g38
(g42
S'\x95O\xd4,\x8c\xb8L?'
p1648
tp1649
Rp1650
aa(lp1651
g38
(g42
S'3\x03t\xe8=\xb0H?'
p1652
tp1653
Rp1654
aa(lp1655
g38
(g42
S'2.\x14\ty\xc6Y?'
p1656
tp1657
Rp1658
aa(lp1659
g38
(g42
S'\xfd\xde\x9b3\xf1);?'
p1660
tp1661
Rp1662
aa(lp1663
g38
(g42
S'6\xf1C\x0f\x1a\x1fB?'
p1664
tp1665
Rp1666
aasg286
(lp1667
F1.9029979705810547
aF1.9029979705810547
aF1.8527171611785889
aF1.831974983215332
aF1.8579299449920654
aF2.011237144470215
aF2.2257020473480225
aF2.251904010772705
aF2.214719772338867
aF2.0661919116973877
aF1.9897770881652832
aF2.083320140838623
aF2.016491174697876
aF1.9627540111541748
aF2.0286059379577637
aF1.9875919818878174
aF1.8777198791503906
aF1.8416650295257568
aF1.9608290195465088
aF1.9597949981689453
aF2.0149741172790527
aF2.0667381286621094
aF2.0222861766815186
aF1.780724048614502
aF1.8097381591796875
aF1.7757811546325684
aF1.860306978225708
aF2.009212017059326
aF1.9811320304870605
aF1.9380249977111816
aF2.0496280193328857
assS'SS-D'
p1668
(dp1669
g3
(lp1670
(lp1671
I50
aag1671
a(lp1672
I50
aa(lp1673
I50
aa(lp1674
I50
aa(lp1675
I50
aa(lp1676
I50
aa(lp1677
I50
aa(lp1678
I50
aa(lp1679
I50
aa(lp1680
I50
aa(lp1681
I50
aa(lp1682
I50
aa(lp1683
I50
aa(lp1684
I50
aa(lp1685
I50
aa(lp1686
I50
aa(lp1687
I50
aa(lp1688
I50
aa(lp1689
I50
aa(lp1690
I50
aa(lp1691
I50
aa(lp1692
I50
aa(lp1693
I50
aa(lp1694
I50
aa(lp1695
I50
aa(lp1696
I50
aa(lp1697
I50
aa(lp1698
I50
aa(lp1699
I50
aa(lp1700
I50
aasg35
(lp1701
(lp1702
g38
(g42
S'^\x0e\x9d\xd5\xc6\xeb\x9e?'
p1703
tp1704
Rp1705
aag1702
a(lp1706
g38
(g42
S'`\x9e\xc5\xe8[\x1d\x94?'
p1707
tp1708
Rp1709
aa(lp1710
g38
(g42
S'\xae\xea\x8ak\x98B\x8b?'
p1711
tp1712
Rp1713
aa(lp1714
g38
(g42
S"\x81\xc8'\x85q\xc9\x8e?"
p1715
tp1716
Rp1717
aa(lp1718
g38
(g42
S'S\xb6\xcbo$\x07|?'
p1719
tp1720
Rp1721
aa(lp1722
g38
(g42
S'`\x1b\x7f\x1dF_\xa1?'
p1723
tp1724
Rp1725
aa(lp1726
g38
(g42
S'\x0b\xecH\xb0l\xf9\x9c?'
p1727
tp1728
Rp1729
aa(lp1730
g38
(g42
S"\x86\xea\xd1'\xb90|?"
p1731
tp1732
Rp1733
aa(lp1734
g38
(g42
S'_\xbf\xd9\xc4D\xa5\x8e?'
p1735
tp1736
Rp1737
aa(lp1738
g38
(g42
S'o\xa6\xb6\xdc\xca9\x91?'
p1739
tp1740
Rp1741
aa(lp1742
g38
(g42
S'\x1c\xe7\xe4\x1f\x18\xa5\x9d?'
p1743
tp1744
Rp1745
aa(lp1746
g38
(g42
S'\xcf\xa9\xcbFM\x86\xa9?'
p1747
tp1748
Rp1749
aa(lp1750
g38
(g42
S'>F\x9a\xf3:\xc5}?'
p1751
tp1752
Rp1753
aa(lp1754
g38
(g42
S'\xa2\xac^45\xd4\x97?'
p1755
tp1756
Rp1757
aa(lp1758
g38
(g42
S'\x13\x08U\xa6\xed\x03\x9d?'
p1759
tp1760
Rp1761
aa(lp1762
g38
(g42
S'\xc7\x06 D\xba\xf1\x8c?'
p1763
tp1764
Rp1765
aa(lp1766
g38
(g42
S'1\x85_\x8b\x91\x96\x94?'
p1767
tp1768
Rp1769
aa(lp1770
g38
(g42
S'\xf3&\x81\xf8\x12\x04\xa9?'
p1771
tp1772
Rp1773
aa(lp1774
g38
(g42
S'2\xcb\\\x9d/\xde\x97?'
p1775
tp1776
Rp1777
aa(lp1778
g38
(g42
S'\xbfGb\xd0!\x0e\x91?'
p1779
tp1780
Rp1781
aa(lp1782
g38
(g42
S"Lf'L\ry\x83?"
p1783
tp1784
Rp1785
aa(lp1786
g38
(g42
S"\x0bte2\xc2'\x93?"
p1787
tp1788
Rp1789
aa(lp1790
g38
(g42
S'\xf7\xfbuf\x9f\x8e\xa7?'
p1791
tp1792
Rp1793
aa(lp1794
g38
(g42
S'N\x1e\x94e\xa4\xa2\xa1?'
p1795
tp1796
Rp1797
aa(lp1798
g38
(g42
S'3w\xac9\xa4c\x98?'
p1799
tp1800
Rp1801
aa(lp1802
g38
(g42
S'\x83#]0\xfeZ\xa1?'
p1803
tp1804
Rp1805
aa(lp1806
g38
(g42
S'\xde\xedH !\xb2\x9b?'
p1807
tp1808
Rp1809
aa(lp1810
g38
(g42
S'\xcd\x0f\xcd\xb1J \x8b?'
p1811
tp1812
Rp1813
aa(lp1814
g38
(g42
S'd\xd5%,\xd7\x93\x9c?'
p1815
tp1816
Rp1817
aa(lp1818
g38
(g42
S'Q\x90F.C\x08\x93?'
p1819
tp1820
Rp1821
aasg164
(lp1822
(lp1823
g38
(g42
S'\xf6\n\xd4\xdeK\x0c\x8b?'
p1824
tp1825
Rp1826
aag1823
a(lp1827
g38
(g42
S')\x97\x97\xb2\xba\xcd\x8e?'
p1828
tp1829
Rp1830
aa(lp1831
g38
(g42
S'\xb4\x88\x98\x06&\xddt?'
p1832
tp1833
Rp1834
aa(lp1835
g38
(g42
S'w\xc1-\x05\xc66\xaa?'
p1836
tp1837
Rp1838
aa(lp1839
g38
(g42
S'\x8e\xba+l\x1d\xc3\x81?'
p1840
tp1841
Rp1842
aa(lp1843
g38
(g42
S'\x0bH\x9c\x19,.\x99?'
p1844
tp1845
Rp1846
aa(lp1847
g38
(g42
S'\xc1\\\xaa;\xe4\xbf\x99?'
p1848
tp1849
Rp1850
aa(lp1851
g38
(g42
S'\xb4vM\xd9K\x97\x8d?'
p1852
tp1853
Rp1854
aa(lp1855
g38
(g42
S'\xbf\x95\xa4\xc1f\x9e\x1d?'
p1856
tp1857
Rp1858
aa(lp1859
g38
(g42
S' R\xd1\x17@p\xa2?'
p1860
tp1861
Rp1862
aa(lp1863
g38
(g42
S'\xbb\x8e\x08\x902\x11\xa8?'
p1864
tp1865
Rp1866
aa(lp1867
g38
(g42
S'\x02d!\xa8\x92\xa1\x12?'
p1868
tp1869
Rp1870
aa(lp1871
g38
(g42
S'\xc6\xd6\x052M\xce\x82?'
p1872
tp1873
Rp1874
aa(lp1875
g38
(g42
S'_8h^\xfe\x1a ?'
p1876
tp1877
Rp1878
aa(lp1879
g38
(g42
S'p\x82\x9eP(\x8dc?'
p1880
tp1881
Rp1882
aa(lp1883
g38
(g42
S's,\xb1\x89S\x9e)?'
p1884
tp1885
Rp1886
aa(lp1887
g38
(g42
S'L|\xaec\xd0t\x87?'
p1888
tp1889
Rp1890
aa(lp1891
g38
(g42
S'\x1dXC\x0b\xd5z\x0b?'
p1892
tp1893
Rp1894
aa(lp1895
g38
(g42
S'6xz\x88\xfb\xa7\x96?'
p1896
tp1897
Rp1898
aa(lp1899
g38
(g42
S'k\x89\xc9S\x960\x9c?'
p1900
tp1901
Rp1902
aa(lp1903
g38
(g42
S'\x1d\xb6\x04p\xa9x\x8e?'
p1904
tp1905
Rp1906
aa(lp1907
g38
(g42
S'\xcfe\xff\x0c\xce\xf44?'
p1908
tp1909
Rp1910
aa(lp1911
g38
(g42
S'\x99,_p\x1bA\xa6?'
p1912
tp1913
Rp1914
aa(lp1915
g38
(g42
S'&d\x11;\xdf>\xa6?'
p1916
tp1917
Rp1918
aa(lp1919
g38
(g42
S'\xb2*\xeax\xa9,\xa5?'
p1920
tp1921
Rp1922
aa(lp1923
g38
(g42
S'\x8e\x16\xe2\xf1N\xcc\x9c?'
p1924
tp1925
Rp1926
aa(lp1927
g38
(g42
S']\xe6\xdfl\xd3\x1c\xa5?'
p1928
tp1929
Rp1930
aa(lp1931
g38
(g42
S'X\xa4\xa2\xd9\x1cY\xa1?'
p1932
tp1933
Rp1934
aa(lp1935
g38
(g42
S"'\xf9G\xa74\x19\x91?"
p1936
tp1937
Rp1938
aa(lp1939
g38
(g42
S'v\x8c\xb6\xc3g\r\x84?'
p1940
tp1941
Rp1942
aasg286
(lp1943
F0.5530011653900146
aF0.5530011653900146
aF0.5763511657714844
aF0.5422260761260986
aF0.5303778648376465
aF0.5208051204681396
aF0.5535740852355957
aF0.5590078830718994
aF0.5127420425415039
aF0.5364978313446045
aF0.5464370250701904
aF0.5930819511413574
aF0.5371711254119873
aF0.5630240440368652
aF0.5709969997406006
aF0.6111629009246826
aF0.6015210151672363
aF0.5670039653778076
aF0.5627391338348389
aF0.519578218460083
aF0.48943400382995605
aF0.5908658504486084
aF0.5771331787109375
aF0.61922287940979
aF0.5167441368103027
aF0.5199761390686035
aF0.5158791542053223
aF0.510606050491333
aF0.5667190551757812
aF0.5710098743438721
aF0.5401291847229004
assS'SS-G'
p1944
(dp1945
g3
(lp1946
(lp1947
I50
aag1947
a(lp1948
I50
aa(lp1949
I50
aa(lp1950
I50
aa(lp1951
I50
aa(lp1952
I50
aa(lp1953
I50
aa(lp1954
I50
aa(lp1955
I50
aa(lp1956
I50
aa(lp1957
I50
aa(lp1958
I50
aa(lp1959
I50
aa(lp1960
I50
aa(lp1961
I50
aa(lp1962
I50
aa(lp1963
I50
aa(lp1964
I50
aa(lp1965
I50
aa(lp1966
I50
aa(lp1967
I50
aa(lp1968
I50
aa(lp1969
I50
aa(lp1970
I50
aa(lp1971
I50
aa(lp1972
I50
aa(lp1973
I50
aa(lp1974
I50
aa(lp1975
I50
aa(lp1976
I50
aasg35
(lp1977
(lp1978
g38
(g42
S'\xa5\x80\xc0\x0c\xeen\x96?'
p1979
tp1980
Rp1981
aag1978
a(lp1982
g38
(g42
S'\xab9\x13\xef?\xdb\xa6?'
p1983
tp1984
Rp1985
aa(lp1986
g38
(g42
S'\xeb6l\xe9#\x96\x82?'
p1987
tp1988
Rp1989
aa(lp1990
g38
(g42
S'\xd3b{\x83n\xfc\xa0?'
p1991
tp1992
Rp1993
aa(lp1994
g38
(g42
S'\x10&\xe1\x04O\x00\x96?'
p1995
tp1996
Rp1997
aa(lp1998
g38
(g42
S'x!\xf0\x14\t\xd8\xc0?'
p1999
tp2000
Rp2001
aa(lp2002
g38
(g42
S'y\xd4Kkb\xef\xbc?'
p2003
tp2004
Rp2005
aa(lp2006
g38
(g42
S':1B}\x90\xbd\x80?'
p2007
tp2008
Rp2009
aa(lp2010
g38
(g42
S'\xf7U\xdc\x0c\xc0o\x81?'
p2011
tp2012
Rp2013
aa(lp2014
g38
(g42
S'\xcbczh\xb9\x10\xab?'
p2015
tp2016
Rp2017
aa(lp2018
g38
(g42
S'\x8a\xc6\xd11\xaa2\x92?'
p2019
tp2020
Rp2021
aa(lp2022
g38
(g42
S'\xdf\x8b\x89]\xcc\x92\x99?'
p2023
tp2024
Rp2025
aa(lp2026
g38
(g42
S'\x9f.>okM\xa9?'
p2027
tp2028
Rp2029
aa(lp2030
g38
(g42
S'\x88w\xe1\xe1\x9a\xd4\x96?'
p2031
tp2032
Rp2033
aa(lp2034
g38
(g42
S'\xb3\xde\r\x80\x86\xb5\x96?'
p2035
tp2036
Rp2037
aa(lp2038
g38
(g42
S'\xc2\x1c\r\xac6\xf1r?'
p2039
tp2040
Rp2041
aa(lp2042
g38
(g42
S'V\xbb\xaa\xa9\xea\xd6\xaa?'
p2043
tp2044
Rp2045
aa(lp2046
g38
(g42
S'\xa5Z\xb92\xa53\x8c?'
p2047
tp2048
Rp2049
aa(lp2050
g38
(g42
S'7\xcb\xa4|\xdd\xe3\x9d?'
p2051
tp2052
Rp2053
aa(lp2054
g38
(g42
S'\xf9\xd6L\xa4T\xfa\xa4?'
p2055
tp2056
Rp2057
aa(lp2058
g38
(g42
S'\xfaQ\xd0xO\xaa\x88?'
p2059
tp2060
Rp2061
aa(lp2062
g38
(g42
S'\x82\x18\xe8\xfa\x97l\x8c?'
p2063
tp2064
Rp2065
aa(lp2066
g38
(g42
S'\xbb\xb3f\x93\xd2\x04\xa0?'
p2067
tp2068
Rp2069
aa(lp2070
g38
(g42
S'\xf8C\x07\xbff\xe6\x8f?'
p2071
tp2072
Rp2073
aa(lp2074
g38
(g42
S'M}\x17_}g\x92?'
p2075
tp2076
Rp2077
aa(lp2078
g38
(g42
S'\xd0\xe5\xee\x13\x00;\x9b?'
p2079
tp2080
Rp2081
aa(lp2082
g38
(g42
S"\xbe\x13\x13\x06'z\x9f?"
p2083
tp2084
Rp2085
aa(lp2086
g38
(g42
S'\x9bd\xfe6\x0b\xb7\xae?'
p2087
tp2088
Rp2089
aa(lp2090
g38
(g42
S'\xbe\xfb\xd7\xde\x91\xb5\x97?'
p2091
tp2092
Rp2093
aa(lp2094
g38
(g42
S'\xe7+\xa2ZI\xf2\xaf?'
p2095
tp2096
Rp2097
aasg164
(lp2098
(lp2099
g38
(g42
S'\x9d\xea\x9d\xdf3f2?'
p2100
tp2101
Rp2102
aag2099
a(lp2103
g38
(g42
S'\xb2`\xe2\x1d\x049\x98?'
p2104
tp2105
Rp2106
aa(lp2107
g38
(g42
S'30`\xea\x816v?'
p2108
tp2109
Rp2110
aa(lp2111
g38
(g42
S';\xb7\x9b\x0e\x13\xc8\x8d?'
p2112
tp2113
Rp2114
aa(lp2115
g38
(g42
S'\x90\x8e\xe8U@V\x93?'
p2116
tp2117
Rp2118
aa(lp2119
g38
(g42
S'\x02\rB\xbb\x0b\x95,?'
p2120
tp2121
Rp2122
aa(lp2123
g38
(g42
S'\xf6\xe4\x17^Fy@?'
p2124
tp2125
Rp2126
aa(lp2127
g38
(g42
S'\xf1\xb9\xc0d\x19qx?'
p2128
tp2129
Rp2130
aa(lp2131
g38
(g42
S'\x18\xfa\x070\x1da\x80?'
p2132
tp2133
Rp2134
aa(lp2135
g38
(g42
S'\x7f\x14\xa0\x19\xb9V\x90?'
p2136
tp2137
Rp2138
aa(lp2139
g38
(g42
S'~u\x89\xd9\xa2,,?'
p2140
tp2141
Rp2142
aa(lp2143
g38
(g42
S'L\x97\xab.\xc5\xfb<?'
p2144
tp2145
Rp2146
aa(lp2147
g38
(g42
S'6K\x1cB\x1b\xf3\x97?'
p2148
tp2149
Rp2150
aa(lp2151
g38
(g42
S'\xa8^\xcf\xf2Pb\xde>'
p2152
tp2153
Rp2154
aa(lp2155
g38
(g42
S'\xe18K\x1b\xd4pD?'
p2156
tp2157
Rp2158
aa(lp2159
g38
(g42
S'g\xe5q\x1c\xf8\xe26?'
p2160
tp2161
Rp2162
aa(lp2163
g38
(g42
S'\x9c\xa9\xdd\xfbBG\x9e?'
p2164
tp2165
Rp2166
aa(lp2167
g38
(g42
S'Y\xcf\xfc\xb7\x89\x00p?'
p2168
tp2169
Rp2170
aa(lp2171
g38
(g42
S'\xef\x17s\xd9\x08 \x8e?'
p2172
tp2173
Rp2174
aa(lp2175
g38
(g42
S'XJ\x83\xf7OB\x94?'
p2176
tp2177
Rp2178
aa(lp2179
g38
(g42
S'\xdb\x08D\xea@at?'
p2180
tp2181
Rp2182
aa(lp2183
g38
(g42
S'\x00\x00\x00\x00\x00\x00\x00\x00'
p2184
tp2185
Rp2186
aa(lp2187
g38
(g42
S'\xe4E\x88\x8f1\xe7\xa1?'
p2188
tp2189
Rp2190
aa(lp2191
g38
(g42
S'7~E\x9d\xb9\xc0\x90?'
p2192
tp2193
Rp2194
aa(lp2195
g38
(g42
S'\x00\x00\x00\x00\x00\x00\x00\x00'
p2196
tp2197
Rp2198
aa(lp2199
g38
(g42
S'\x86\x9e\x05\x08\xae^\x92?'
p2200
tp2201
Rp2202
aa(lp2203
g38
(g42
S'\xb7\x02\xe8\x91\x84\xb3\x91?'
p2204
tp2205
Rp2206
aa(lp2207
g38
(g42
S'\xedk\x10\xca\xdcJx?'
p2208
tp2209
Rp2210
aa(lp2211
g38
(g42
S'~Zj\x9d\x82\xca\x98?'
p2212
tp2213
Rp2214
aa(lp2215
g38
(g42
S"9:\xe1G'\tt?"
p2216
tp2217
Rp2218
aasg286
(lp2219
F0.8836050033569336
aF0.8836050033569336
aF0.8673899173736572
aF0.5536801815032959
aF0.542273998260498
aF0.5465841293334961
aF0.6641600131988525
aF0.5550320148468018
aF0.5055420398712158
aF0.4874451160430908
aF0.4188690185546875
aF0.4485139846801758
aF0.44922804832458496
aF0.5962889194488525
aF0.4532468318939209
aF0.4710819721221924
aF0.485821008682251
aF0.45926690101623535
aF0.47640204429626465
aF0.44942808151245117
aF0.5018999576568604
aF0.5343940258026123
aF0.5312418937683105
aF0.5635061264038086
aF0.5625510215759277
aF0.5605130195617676
aF0.5157790184020996
aF0.4348258972167969
aF0.41819214820861816
aF0.413316011428833
aF0.42186498641967773
assS'SS-F'
p2220
(dp2221
g3
(lp2222
(lp2223
I50
aag2223
a(lp2224
I50
aa(lp2225
I50
aa(lp2226
I50
aa(lp2227
I50
aa(lp2228
I50
aa(lp2229
I50
aa(lp2230
I50
aa(lp2231
I50
aa(lp2232
I50
aa(lp2233
I50
aa(lp2234
I50
aa(lp2235
I50
aa(lp2236
I50
aa(lp2237
I50
aa(lp2238
I50
aa(lp2239
I50
aa(lp2240
I50
aa(lp2241
I50
aa(lp2242
I50
aa(lp2243
I50
aa(lp2244
I50
aa(lp2245
I50
aa(lp2246
I50
aa(lp2247
I50
aa(lp2248
I50
aa(lp2249
I50
aa(lp2250
I50
aa(lp2251
I50
aa(lp2252
I50
aasg35
(lp2253
(lp2254
g38
(g42
S'C\x9a4\x19<?\x8d?'
p2255
tp2256
Rp2257
aag2254
a(lp2258
g38
(g42
S'A\x86\xe0)\x84u\x83?'
p2259
tp2260
Rp2261
aa(lp2262
g38
(g42
S'a\xfdjeZ\xaa\xb5?'
p2263
tp2264
Rp2265
aa(lp2266
g38
(g42
S'\x85\xb2\xde\x9c\xeaa\xba?'
p2267
tp2268
Rp2269
aa(lp2270
g38
(g42
S' \x13\x85\xa5\xaf\xec\x88?'
p2271
tp2272
Rp2273
aa(lp2274
g38
(g42
S'\xf3\xb3\x15%\xd9^\x8d?'
p2275
tp2276
Rp2277
aa(lp2278
g38
(g42
S'Z*v\xd0&\x8d_?'
p2279
tp2280
Rp2281
aa(lp2282
g38
(g42
S'"t\x14\xe9\x06\xe8\x90?'
p2283
tp2284
Rp2285
aa(lp2286
g38
(g42
S'\xd4/\xebE\xea\xedh?'
p2287
tp2288
Rp2289
aa(lp2290
g38
(g42
S"\xb2\xae'#o;\x8d?"
p2291
tp2292
Rp2293
aa(lp2294
g38
(g42
S'\xc7\xd83\xe6\xa5\x8d\xb4?'
p2295
tp2296
Rp2297
aa(lp2298
g38
(g42
S'\xb4\xc7\x0b\xec\x82)\xaa?'
p2299
tp2300
Rp2301
aa(lp2302
g38
(g42
S'\x8el\xf6$\xb5\xff\x92?'
p2303
tp2304
Rp2305
aa(lp2306
g38
(g42
S'\x12A;\x0c\xcc\xa9\xb3?'
p2307
tp2308
Rp2309
aa(lp2310
g38
(g42
S'\xf0\xdb,\x08\x8f,\xb7?'
p2311
tp2312
Rp2313
aa(lp2314
g38
(g42
S'\xd2\xd37!7\xa3\xa2?'
p2315
tp2316
Rp2317
aa(lp2318
g38
(g42
S'2{@\xb3\x8c\xdd\x8d?'
p2319
tp2320
Rp2321
aa(lp2322
g38
(g42
S'\x1b6.\x13n}\x95?'
p2323
tp2324
Rp2325
aa(lp2326
g38
(g42
S'su}\xaa\x97\x9dw?'
p2327
tp2328
Rp2329
aa(lp2330
g38
(g42
S'\xfe\x9d\xaaR\x83\xc4\x8f?'
p2331
tp2332
Rp2333
aa(lp2334
g38
(g42
S'H\xb1C\x1b\xde\xf9\x93?'
p2335
tp2336
Rp2337
aa(lp2338
g38
(g42
S'\xad\xbe+W\xe8\xd5\xb2?'
p2339
tp2340
Rp2341
aa(lp2342
g38
(g42
S'\xcce\xd2j\xaeT\x80?'
p2343
tp2344
Rp2345
aa(lp2346
g38
(g42
S'\xed\xbd\xa3\x93\xcco\x89?'
p2347
tp2348
Rp2349
aa(lp2350
g38
(g42
S'g\x04\xa0\xc3fyh?'
p2351
tp2352
Rp2353
aa(lp2354
g38
(g42
S'\x97\x8d\xcf\xe5UF\xaa?'
p2355
tp2356
Rp2357
aa(lp2358
g38
(g42
S'\xcf\xdc\x1a\x03\n\xc7\x95?'
p2359
tp2360
Rp2361
aa(lp2362
g38
(g42
S'c\x02\x18\x9a\xc5\x81{?'
p2363
tp2364
Rp2365
aa(lp2366
g38
(g42
S'\xee\x936H\xbf\xd6\xb4?'
p2367
tp2368
Rp2369
aa(lp2370
g38
(g42
S'Q\x12:#*\xe0\x80?'
p2371
tp2372
Rp2373
aasg164
(lp2374
(lp2375
g38
(g42
S'\xa7\x02xp\xbd\xd9\xa7?'
p2376
tp2377
Rp2378
aag2375
a(lp2379
g38
(g42
S'\xa254\xbf\xf7E\x8e?'
p2380
tp2381
Rp2382
aa(lp2383
g38
(g42
S'\x00\x00\x00\x00\x00\x00\x00\x00'
p2384
tp2385
Rp2386
aa(lp2387
g38
(g42
S' \xcd\xbd\xdd\xdc ,?'
p2388
tp2389
Rp2390
aa(lp2391
g38
(g42
S'^\x8e\x15\xff\xdb\xa4\x9a?'
p2392
tp2393
Rp2394
aa(lp2395
g38
(g42
S"\xdf'\x1c\xd0\xac\x11\x86?"
p2396
tp2397
Rp2398
aa(lp2399
g38
(g42
S'J\x04\x889.\x8fK?'
p2400
tp2401
Rp2402
aa(lp2403
g38
(g42
S'\x88s\xd9\xac\xc6\xf6\x8f?'
p2404
tp2405
Rp2406
aa(lp2407
g38
(g42
S']b\x0fK\xd8\x05k?'
p2408
tp2409
Rp2410
aa(lp2411
g38
(g42
S'\xf1\x0e1\x18\xfba\xa4?'
p2412
tp2413
Rp2414
aa(lp2415
g38
(g42
S'\xce\xf3z\xe4\x12\x18#?'
p2416
tp2417
Rp2418
aa(lp2419
g38
(g42
S"\xb0\xf0\x84'UR\x8d?"
p2420
tp2421
Rp2422
aa(lp2423
g38
(g42
S'\xc5\x80$Tk\x92\xaa?'
p2424
tp2425
Rp2426
aa(lp2427
g38
(g42
S'K\xbb\x92\xb9o\x9e\x1d?'
p2428
tp2429
Rp2430
aa(lp2431
g38
(g42
S'\x15dz\xe0Y\xdf7?'
p2432
tp2433
Rp2434
aa(lp2435
g38
(g42
S'\x8b\x1eDx\xdd\x1b\x9f?'
p2436
tp2437
Rp2438
aa(lp2439
g38
(g42
S'u\xc0h \xedP\x99?'
p2440
tp2441
Rp2442
aa(lp2443
g38
(g42
S'=W\xc9\xdc\x0b\x02\x96?'
p2444
tp2445
Rp2446
aa(lp2447
g38
(g42
S'(KR\x04\x84\xfb>?'
p2448
tp2449
Rp2450
aa(lp2451
g38
(g42
S'\xe9\xb0]\x8c\x11\xe5\x92?'
p2452
tp2453
Rp2454
aa(lp2455
g38
(g42
S'\xf7\\\x8a\x8e++\x93?'
p2456
tp2457
Rp2458
aa(lp2459
g38
(g42
S'9\x0c@\xd4\xf4/\xf7>'
p2460
tp2461
Rp2462
aa(lp2463
g38
(g42
S'"\x86K\x0f\xaf0\x81?'
p2464
tp2465
Rp2466
aa(lp2467
g38
(g42
S'h\xcc\xca\xbe\x8fv\xaa?'
p2468
tp2469
Rp2470
aa(lp2471
g38
(g42
S'-C\xaeA\xb5\x9ah?'
p2472
tp2473
Rp2474
aa(lp2475
g38
(g42
S'\xc0Yu\xf6\xd3C\x95?'
p2476
tp2477
Rp2478
aa(lp2479
g38
(g42
S'=\n&T?\xf0\x98?'
p2480
tp2481
Rp2482
aa(lp2483
g38
(g42
S'\x8d{\x9b\xf1\x94\xae|?'
p2484
tp2485
Rp2486
aa(lp2487
g38
(g42
S'\xbb\xb0\xbep\xe2\x14@?'
p2488
tp2489
Rp2490
aa(lp2491
g38
(g42
S'\x90\xa7\x08*c6!?'
p2492
tp2493
Rp2494
aasg286
(lp2495
F0.5248010158538818
aF0.5248010158538818
aF0.5104260444641113
aF0.529088020324707
aF0.5652179718017578
aF0.5859811305999756
aF0.5963428020477295
aF0.5546510219573975
aF0.5268239974975586
aF0.5218660831451416
aF0.5213899612426758
aF0.5530049800872803
aF0.5716619491577148
aF0.5214788913726807
aF0.5588221549987793
aF0.5451960563659668
aF0.6339111328125
aF0.5909709930419922
aF0.6008620262145996
aF0.6163938045501709
aF0.6269371509552002
aF0.6322541236877441
aF0.6371860504150391
aF0.6305301189422607
aF0.5339541435241699
aF0.542957067489624
aF0.5328249931335449
aF0.5507838726043701
aF0.5259661674499512
aF0.5579719543457031
aF0.5389151573181152
assS'SS-A'
p2496
(dp2497
g3
(lp2498
(lp2499
I50
aag2499
a(lp2500
I50
aa(lp2501
I50
aa(lp2502
I50
aa(lp2503
I50
aa(lp2504
I50
aa(lp2505
I50
aa(lp2506
I50
aa(lp2507
I50
aa(lp2508
I50
aa(lp2509
I50
aa(lp2510
I50
aa(lp2511
I50
aa(lp2512
I50
aa(lp2513
I50
aa(lp2514
I50
aa(lp2515
I50
aa(lp2516
I50
aa(lp2517
I50
aa(lp2518
I50
aa(lp2519
I50
aa(lp2520
I50
aa(lp2521
I50
aa(lp2522
I50
aa(lp2523
I50
aa(lp2524
I50
aa(lp2525
I50
aa(lp2526
I50
aa(lp2527
I50
aa(lp2528
I50
aasg35
(lp2529
(lp2530
g38
(g42
S'@\x1d\xac\x8eI\xe4\x06?'
p2531
tp2532
Rp2533
aag2530
a(lp2534
g38
(g42
S'\x00\x00\x00\x00\x00\x00\x00\x00'
p2535
tp2536
Rp2537
aa(lp2538
g38
(g42
S'a\xab\x93\xfd\xe0\xf24?'
p2539
tp2540
Rp2541
aa(lp2542
g38
(g42
S'\x00\x00\x00\x00\x00\x00\x00\x00'
p2543
tp2544
Rp2545
aa(lp2546
g38
(g42
S'a\xab\x93\xfd\xe0\xf24?'
p2547
tp2548
Rp2549
aa(lp2550
g38
(g42
S'\x07\x84|\x00\x88/3?'
p2551
tp2552
Rp2553
aa(lp2554
g38
(g42
S'\x97of\xe2\x8a\x948?'
p2555
tp2556
Rp2557
aa(lp2558
g38
(g42
S'W\xb1\x9c\xb3\x92\x05\xff>'
p2559
tp2560
Rp2561
aa(lp2562
g38
(g42
S'p\xf2C~\xe1\xe3\xed>'
p2563
tp2564
Rp2565
aa(lp2566
g38
(g42
S'\x00\x00\x00\x00\x00\x00\x00\x00'
p2567
tp2568
Rp2569
aa(lp2570
g38
(g42
S'\xf8\x85\xbe\x05\x86\xcc9?'
p2571
tp2572
Rp2573
aa(lp2574
g38
(g42
S'ao\xcb\xdbJ\xc5\x03?'
p2575
tp2576
Rp2577
aa(lp2578
g38
(g42
S'\x00\x00\x00\x00\x00\x00\x00\x00'
p2579
tp2580
Rp2581
aa(lp2582
g38
(g42
S'\x97i\x06{\xff\xb8@?'
p2583
tp2584
Rp2585
aa(lp2586
g38
(g42
S'\x19Az =?7?'
p2587
tp2588
Rp2589
aa(lp2590
g38
(g42
S'p\xf2C~\xe1\xe3\xed>'
p2591
tp2592
Rp2593
aa(lp2594
g38
(g42
S'\x89\xd0\xabd\xbd\xb6P?'
p2595
tp2596
Rp2597
aa(lp2598
g38
(g42
S'`D=\xf8\xf1\xef4?'
p2599
tp2600
Rp2601
aa(lp2602
g38
(g42
S'\x89`\xb1\xb2\x01\xa4D?'
p2603
tp2604
Rp2605
aa(lp2606
g38
(g42
S'\xc4?\xe8\xd4S\xa1A?'
p2607
tp2608
Rp2609
aa(lp2610
g38
(g42
S'\xf4c/\x04\x11\xdf5?'
p2611
tp2612
Rp2613
aa(lp2614
g38
(g42
S'W\xb1\x9c\xb3\x92\x05\xff>'
p2615
tp2616
Rp2617
aa(lp2618
g38
(g42
S'\x89`\xb1\xb2\x01\xa4D?'
p2619
tp2620
Rp2621
aa(lp2622
g38
(g42
S'\xf8\x85\xbe\x05\x86\xcc9?'
p2623
tp2624
Rp2625
aa(lp2626
g38
(g42
S'\x00\x00\x00\x00\x00\x00\x00\x00'
p2627
tp2628
Rp2629
aa(lp2630
g38
(g42
S'a\xab\x93\xfd\xe0\xf24?'
p2631
tp2632
Rp2633
aa(lp2634
g38
(g42
S'Y\x078\xb3*x\x87>'
p2635
tp2636
Rp2637
aa(lp2638
g38
(g42
S'W\xb1\x9c\xb3\x92\x05\xff>'
p2639
tp2640
Rp2641
aa(lp2642
g38
(g42
S'\x97V\xc6p+\x18<?'
p2643
tp2644
Rp2645
aa(lp2646
g38
(g42
S'\x00\x00\x00\x00\x00\x00\x00\x00'
p2647
tp2648
Rp2649
aasg164
(lp2650
(lp2651
g38
(g42
S'r\xffT7\xe5\xc7\xff>'
p2652
tp2653
Rp2654
aag2651
a(lp2655
g38
(g42
S'\x00\x00\x00\x00\x00\x00\x00\x00'
p2656
tp2657
Rp2658
aa(lp2659
g38
(g42
S'\xc0\x92\x07\xe6:V\x1d?'
p2660
tp2661
Rp2662
aa(lp2663
g38
(g42
S'\x00\x00\x00\x00\x00\x00\x00\x00'
p2664
tp2665
Rp2666
aa(lp2667
g38
(g42
S'\xc0\x92\x07\xe6:V\x1d?'
p2668
tp2669
Rp2670
aa(lp2671
g38
(g42
S'] Y\xff \x8d@?'
p2672
tp2673
Rp2674
aa(lp2675
g38
(g42
S'O\xc6\xc5\xea\x08\t\x14?'
p2676
tp2677
Rp2678
aa(lp2679
g38
(g42
S'\xf7\xc0G\xd4A#@?'
p2680
tp2681
Rp2682
aa(lp2683
g38
(g42
S'p\xf2C~\xe1\xe3\xed>'
p2684
tp2685
Rp2686
aa(lp2687
g38
(g42
S'\x00\x00\x00\x00\x00\x00\x00\x00'
p2688
tp2689
Rp2690
aa(lp2691
g38
(g42
S'\x9e;T\xc5\xe8\xdbe?'
p2692
tp2693
Rp2694
aa(lp2695
g38
(g42
S'\xf7T\xe3$\xee/\xf5>'
p2696
tp2697
Rp2698
aa(lp2699
g38
(g42
S'\x00\x00\x00\x00\x00\x00\x00\x00'
p2700
tp2701
Rp2702
aa(lp2703
g38
(g42
S'B\x14,m\xe8\xc7\x05?'
p2704
tp2705
Rp2706
aa(lp2707
g38
(g42
S'\xb3\xa0\xf8H\xb7<F?'
p2708
tp2709
Rp2710
aa(lp2711
g38
(g42
S'p\xf2C~\xe1\xe3\xed>'
p2712
tp2713
Rp2714
aa(lp2715
g38
(g42
S'[,n\x83}^Y?'
p2716
tp2717
Rp2718
aa(lp2719
g38
(g42
S'\x8d\x89\x07Qx+\x1d?'
p2720
tp2721
Rp2722
aa(lp2723
g38
(g42
S'\x13&8\xb6\x92\xddf?'
p2724
tp2725
Rp2726
aa(lp2727
g38
(g42
S'\x7fL\xe8B\xc8BH?'
p2728
tp2729
Rp2730
aa(lp2731
g38
(g42
S'\x81#ZL\x19c!?'
p2732
tp2733
Rp2734
aa(lp2735
g38
(g42
S'9uEE}\xb4\x1b?'
p2736
tp2737
Rp2738
aa(lp2739
g38
(g42
S'\xf7F\xef\xc4\x93\x06w?'
p2740
tp2741
Rp2742
aa(lp2743
g38
(g42
S'\x9e;T\xc5\xe8\xdbe?'
p2744
tp2745
Rp2746
aa(lp2747
g38
(g42
S'\x00\x00\x00\x00\x00\x00\x00\x00'
p2748
tp2749
Rp2750
aa(lp2751
g38
(g42
S'\xc0\x92\x07\xe6:V\x1d?'
p2752
tp2753
Rp2754
aa(lp2755
g38
(g42
S'I\xf0\x93P\xf0\xd5\x08?'
p2756
tp2757
Rp2758
aa(lp2759
g38
(g42
S'l\x86\xfe1\x12\x03\xfc>'
p2760
tp2761
Rp2762
aa(lp2763
g38
(g42
S'\xe2\xf8P\x88\x88\x8e4?'
p2764
tp2765
Rp2766
aa(lp2767
g38
(g42
S'\x00\x00\x00\x00\x00\x00\x00\x00'
p2768
tp2769
Rp2770
aasg286
(lp2771
F2.6996679306030273
aF2.6996679306030273
aF2.6811389923095703
aF2.659708023071289
aF2.7024471759796143
aF2.6127710342407227
aF2.6875369548797607
aF2.657939910888672
aF2.5958428382873535
aF2.6085989475250244
aF2.5987629890441895
aF2.6227731704711914
aF2.667815923690796
aF2.619318962097168
aF2.6271870136260986
aF2.586693048477173
aF2.6441690921783447
aF2.5821750164031982
aF2.560290813446045
aF2.565006971359253
aF2.719312906265259
aF2.6970059871673584
aF2.7899010181427
aF2.7728259563446045
aF2.5818967819213867
aF2.7492570877075195
aF2.6140270233154297
aF2.546107053756714
aF2.5466129779815674
aF2.523253917694092
aF2.5686168670654297
assS'SS-C'
p2772
(dp2773
g3
(lp2774
(lp2775
I50
aag2775
a(lp2776
I50
aa(lp2777
I50
aa(lp2778
I50
aa(lp2779
I50
aa(lp2780
I50
aa(lp2781
I50
aa(lp2782
I50
aa(lp2783
I50
aa(lp2784
I50
aa(lp2785
I50
aa(lp2786
I50
aa(lp2787
I50
aa(lp2788
I50
aa(lp2789
I50
aa(lp2790
I50
aa(lp2791
I50
aa(lp2792
I50
aa(lp2793
I50
aa(lp2794
I50
aa(lp2795
I50
aa(lp2796
I50
aa(lp2797
I50
aa(lp2798
I50
aa(lp2799
I50
aa(lp2800
I50
aa(lp2801
I50
aa(lp2802
I50
aa(lp2803
I50
aa(lp2804
I50
aasg35
(lp2805
(lp2806
g38
(g42
S'`e\xbb\xe4\xf3\xf0_?'
p2807
tp2808
Rp2809
aag2806
a(lp2810
g38
(g42
S'<\xca\xe4\xac\xdd\x9a]?'
p2811
tp2812
Rp2813
aa(lp2814
g38
(g42
S'\xebJw\xc8\xb7\x17n?'
p2815
tp2816
Rp2817
aa(lp2818
g38
(g42
S'\xeb%"c1Vl?'
p2819
tp2820
Rp2821
aa(lp2822
g38
(g42
S'\xa3Z\xa5O\x8d\x17n?'
p2823
tp2824
Rp2825
aa(lp2826
g38
(g42
S'\x94\xd2\xbb+\\\x05g?'
p2827
tp2828
Rp2829
aa(lp2830
g38
(g42
S'\xa3Z\xa5O\x8d\x17n?'
p2831
tp2832
Rp2833
aa(lp2834
g38
(g42
S'\x1f\x12\xb4\xfb\xbb\xa5h?'
p2835
tp2836
Rp2837
aa(lp2838
g38
(g42
S'\xd9hKPHWr?'
p2839
tp2840
Rp2841
aa(lp2842
g38
(g42
S'M\x01Cr\x8f\xc5g?'
p2843
tp2844
Rp2845
aa(lp2846
g38
(g42
S'\x94\xd2\xbb+\\\x05g?'
p2847
tp2848
Rp2849
aa(lp2850
g38
(g42
S'\xcb\x8e\x95\x14\x00\x80h?'
p2851
tp2852
Rp2853
aa(lp2854
g38
(g42
S'\x8f!=\x80\xe13^?'
p2855
tp2856
Rp2857
aa(lp2858
g38
(g42
S'\xa7U\xd0/\xde\x1fe?'
p2859
tp2860
Rp2861
aa(lp2862
g38
(g42
S'\xb8\xbf1\xf9\xc3\x8a^?'
p2863
tp2864
Rp2865
aa(lp2866
g38
(g42
S'\x94\xd2\xbb+\\\x05g?'
p2867
tp2868
Rp2869
aa(lp2870
g38
(g42
S'\xa9jX\xd2\xb2xp?'
p2871
tp2872
Rp2873
aa(lp2874
g38
(g42
S'\xd8\xb6n;\xf4fj?'
p2875
tp2876
Rp2877
aa(lp2878
g38
(g42
S'\x94\xd2\xbb+\\\x05g?'
p2879
tp2880
Rp2881
aa(lp2882
g38
(g42
S'\x00\x00\x00\x00\x00\x00\x00\x00'
p2883
tp2884
Rp2885
aa(lp2886
g38
(g42
S'\xdcl\xe20\xf9Yb?'
p2887
tp2888
Rp2889
aa(lp2890
g38
(g42
S'V\x8dLg\xe5\x0bf?'
p2891
tp2892
Rp2893
aa(lp2894
g38
(g42
S'yo0\xcd\xaf;j?'
p2895
tp2896
Rp2897
aa(lp2898
g38
(g42
S'yo0\xcd\xaf;j?'
p2899
tp2900
Rp2901
aa(lp2902
g38
(g42
S'yo0\xcd\xaf;j?'
p2903
tp2904
Rp2905
aa(lp2906
g38
(g42
S'\xdc\xbe\xefv\xc2\x0ed?'
p2907
tp2908
Rp2909
aa(lp2910
g38
(g42
S'\x9c9`\x12\x0cqn?'
p2911
tp2912
Rp2913
aa(lp2914
g38
(g42
S'`\x1d\x96\x87\x01&f?'
p2915
tp2916
Rp2917
aa(lp2918
g38
(g42
S'.\xbb\xd4\xa7\n4^?'
p2919
tp2920
Rp2921
aa(lp2922
g38
(g42
S'\xdc\xbe\xefv\xc2\x0ed?'
p2923
tp2924
Rp2925
aasg164
(lp2926
(lp2927
g38
(g42
S'\x96\x10we\xb78A?'
p2928
tp2929
Rp2930
aag2927
a(lp2931
g38
(g42
S'M!\x8a7TG:?'
p2932
tp2933
Rp2934
aa(lp2935
g38
(g42
S'/Z\xee?t{\x14?'
p2936
tp2937
Rp2938
aa(lp2939
g38
(g42
S'\xaeCF k\x91\xff>'
p2940
tp2941
Rp2942
aa(lp2943
g38
(g42
S'/L\xcb\xe7~\xb1.?'
p2944
tp2945
Rp2946
aa(lp2947
g38
(g42
S'\xcd\xa6\xa9 BC$?'
p2948
tp2949
Rp2950
aa(lp2951
g38
(g42
S'\x8f\t\xbf0\x1cU\xf1>'
p2952
tp2953
Rp2954
aa(lp2955
g38
(g42
S'\xbb{\xd7\x9eV\xc6\x0b?'
p2956
tp2957
Rp2958
aa(lp2959
g38
(g42
S'\xeb\xbfmI7`A?'
p2960
tp2961
Rp2962
aa(lp2963
g38
(g42
S'6\x9ck\xaa:+6?'
p2964
tp2965
Rp2966
aa(lp2967
g38
(g42
S'\x1c\xce\xbc\xf7[q!?'
p2968
tp2969
Rp2970
aa(lp2971
g38
(g42
S'P%\x03\xc4{}\x16?'
p2972
tp2973
Rp2974
aa(lp2975
g38
(g42
S'\xe6\x11\xf58%};?'
p2976
tp2977
Rp2978
aa(lp2979
g38
(g42
S'\xbb;\xc7X\xe22(?'
p2980
tp2981
Rp2982
aa(lp2983
g38
(g42
S'\xf8\xa57#\xe2#8?'
p2984
tp2985
Rp2986
aa(lp2987
g38
(g42
S'w\xc6Rh[^/?'
p2988
tp2989
Rp2990
aa(lp2991
g38
(g42
S'\x00\x00\x00\x00\x00\x00\x00\x00'
p2992
tp2993
Rp2994
aa(lp2995
g38
(g42
S'\xd5\xd0\xd9\xcf\xcc\xa6$?'
p2996
tp2997
Rp2998
aa(lp2999
g38
(g42
S'w\xc6Rh[^/?'
p3000
tp3001
Rp3002
aa(lp3003
g38
(g42
S'\x00\x00\x00\x00\x00\x00\x00\x00'
p3004
tp3005
Rp3006
aa(lp3007
g38
(g42
S'Ll.}\xa8\xa35?'
p3008
tp3009
Rp3010
aa(lp3011
g38
(g42
S'\xd8WX\x1a\xf2\xc5"?'
p3012
tp3013
Rp3014
aa(lp3015
g38
(g42
S'\x8b\xa2;q\xc59#?'
p3016
tp3017
Rp3018
aa(lp3019
g38
(g42
S'\x8b\xa2;q\xc59#?'
p3020
tp3021
Rp3022
aa(lp3023
g38
(g42
S'X\x19\x95\xa4\xa4\x93\x07?'
p3024
tp3025
Rp3026
aa(lp3027
g38
(g42
S'\xbb\xc6\x9e7\xf4\xf7.?'
p3028
tp3029
Rp3030
aa(lp3031
g38
(g42
S'\xd9\xb72Y8_\xd9>'
p3032
tp3033
Rp3034
aa(lp3035
g38
(g42
S'\x85X\xf1\x1e\xb4g$?'
p3036
tp3037
Rp3038
aa(lp3039
g38
(g42
S'kq\xd7\xde\xb9Lg?'
p3040
tp3041
Rp3042
aa(lp3043
g38
(g42
S'\xbb\xc6\x9e7\xf4\xf7.?'
p3044
tp3045
Rp3046
aasg286
(lp3047
F3.0205090045928955
aF3.0205090045928955
aF2.861721992492676
aF2.877748966217041
aF2.8870649337768555
aF2.884269952774048
aF2.9162988662719727
aF2.8801169395446777
aF3.069633960723877
aF2.842611074447632
aF2.9073309898376465
aF2.842872142791748
aF2.9471590518951416
aF2.883401870727539
aF2.9576189517974854
aF2.8105180263519287
aF2.7476210594177246
aF2.7046430110931396
aF2.830216884613037
aF2.889320135116577
aF2.903980016708374
aF2.7960729598999023
aF2.742647886276245
aF2.685783863067627
aF3.0161008834838867
aF2.912770986557007
aF2.940480947494507
aF2.7853949069976807
aF2.8062939643859863
aF2.9083969593048096
aF2.9736809730529785
assS'SS-B'
p3048
(dp3049
g3
(lp3050
(lp3051
I50
aag3051
a(lp3052
I50
aa(lp3053
I50
aa(lp3054
I50
aa(lp3055
I50
aa(lp3056
I50
aa(lp3057
I50
aa(lp3058
I50
aa(lp3059
I50
aa(lp3060
I50
aa(lp3061
I50
aa(lp3062
I50
aa(lp3063
I50
aa(lp3064
I50
aa(lp3065
I50
aa(lp3066
I50
aa(lp3067
I50
aa(lp3068
I50
aa(lp3069
I50
aa(lp3070
I50
aa(lp3071
I50
aa(lp3072
I50
aa(lp3073
I50
aa(lp3074
I50
aa(lp3075
I50
aa(lp3076
I50
aa(lp3077
I50
aa(lp3078
I50
aa(lp3079
I50
aa(lp3080
I50
aasg35
(lp3081
(lp3082
g38
(g42
S'\xf5Z\xfa\xb5\x04]l?'
p3083
tp3084
Rp3085
aag3082
a(lp3086
g38
(g42
S'(\xa4\xe1Q\x94>p?'
p3087
tp3088
Rp3089
aa(lp3090
g38
(g42
S'RuR\xadpm\x93?'
p3091
tp3092
Rp3093
aa(lp3094
g38
(g42
S'\xe4sD\xcc\xab\xab\x88?'
p3095
tp3096
Rp3097
aa(lp3098
g38
(g42
S'u6\xbe\xdc)$i?'
p3099
tp3100
Rp3101
aa(lp3102
g38
(g42
S'\xa6t\xe2\x18\xd90j?'
p3103
tp3104
Rp3105
aa(lp3106
g38
(g42
S'\x13\x8a\xe2\xdd\x8fEs?'
p3107
tp3108
Rp3109
aa(lp3110
g38
(g42
S'\xbd\x02\xb1hSPP?'
p3111
tp3112
Rp3113
aa(lp3114
g38
(g42
S'\xd9\x14\xf7\xc5h\x0f\x85?'
p3115
tp3116
Rp3117
aa(lp3118
g38
(g42
S'5\x0e\xa2\n\xeb\x98A?'
p3119
tp3120
Rp3121
aa(lp3122
g38
(g42
S'\x93\x8d\xa5\x08Y!N?'
p3123
tp3124
Rp3125
aa(lp3126
g38
(g42
S'\x93\xd4\xae\xca(\xa8`?'
p3127
tp3128
Rp3129
aa(lp3130
g38
(g42
S'\x02\xeb\xd8\x97\xeb\xd8\x86?'
p3131
tp3132
Rp3133
aa(lp3134
g38
(g42
S's\x9e\x15\x12\t\x03n?'
p3135
tp3136
Rp3137
aa(lp3138
g38
(g42
S'\x93\x8b\x96h\x00f\x81?'
p3139
tp3140
Rp3141
aa(lp3142
g38
(g42
S't\x903\x82\xd9ch?'
p3143
tp3144
Rp3145
aa(lp3146
g38
(g42
S'\x93\x8d\xa5\x08Y!N?'
p3147
tp3148
Rp3149
aa(lp3150
g38
(g42
S'Xw\x98\x9b\xf7\xd6\xa1?'
p3151
tp3152
Rp3153
aa(lp3154
g38
(g42
S'\xa7\x12\xd2\xa8l\xd5 ?'
p3155
tp3156
Rp3157
aa(lp3158
g38
(g42
S'u6\xbe\xdc)$i?'
p3159
tp3160
Rp3161
aa(lp3162
g38
(g42
S'-\xfc9\xa9\x0f,t?'
p3163
tp3164
Rp3165
aa(lp3166
g38
(g42
S'\xb9\xea` \x89\x99d?'
p3167
tp3168
Rp3169
aa(lp3170
g38
(g42
S'\xf7\xa7\xd9A\xbc|\x82?'
p3171
tp3172
Rp3173
aa(lp3174
g38
(g42
S'\xadt\xa6v\xa8lI?'
p3175
tp3176
Rp3177
aa(lp3178
g38
(g42
S'\xf4\x03\xaf\xfc\x0eaq?'
p3179
tp3180
Rp3181
aa(lp3182
g38
(g42
S'\xf9\x1dF|\x9f\xdd\x85?'
p3183
tp3184
Rp3185
aa(lp3186
g38
(g42
S'\x9a8W\xf3=K\x90?'
p3187
tp3188
Rp3189
aa(lp3190
g38
(g42
S'D\xa1}\x82\xb0\x12\x95?'
p3191
tp3192
Rp3193
aa(lp3194
g38
(g42
S'J\xe0\x18G\xfd#i?'
p3195
tp3196
Rp3197
aa(lp3198
g38
(g42
S'\xadt\xa6v\xa8lI?'
p3199
tp3200
Rp3201
aasg164
(lp3202
(lp3203
g38
(g42
S'~|\xfb\xd9r\x877?'
p3204
tp3205
Rp3206
aag3203
a(lp3207
g38
(g42
S'\x00\x00\x00\x00\x00\x00\x00\x00'
p3208
tp3209
Rp3210
aa(lp3211
g38
(g42
S'\x00\x00\x00\x00\x00\x00\x00\x00'
p3212
tp3213
Rp3214
aa(lp3215
g38
(g42
S'N\xdc\xf2j\xfcd\x7f?'
p3216
tp3217
Rp3218
aa(lp3219
g38
(g42
S'\x00\x00\x00\x00\x00\x00\x00\x00'
p3220
tp3221
Rp3222
aa(lp3223
g38
(g42
S'\x18\xf0m\xa2$~M?'
p3224
tp3225
Rp3226
aa(lp3227
g38
(g42
S'\x00\x00\x00\x00\x00\x00\x00\x00'
p3228
tp3229
Rp3230
aa(lp3231
g38
(g42
S'\xff7q.\xa5\x028?'
p3232
tp3233
Rp3234
aa(lp3235
g38
(g42
S'(\xfe\xf9)\xeaK\x83?'
p3236
tp3237
Rp3238
aa(lp3239
g38
(g42
S'\x19{\x03\xb1&}D?'
p3240
tp3241
Rp3242
aa(lp3243
g38
(g42
S'\xa8PO\xcdC_/?'
p3244
tp3245
Rp3246
aa(lp3247
g38
(g42
S'\x00\x00\x00\x00\x00\x00\x00\x00'
p3248
tp3249
Rp3250
aa(lp3251
g38
(g42
S'\x06\x8e\xfe\x8ba^}?'
p3252
tp3253
Rp3254
aa(lp3255
g38
(g42
S'\x817\xf2[<\x14\x17?'
p3256
tp3257
Rp3258
aa(lp3259
g38
(g42
S'\x00\x00\x00\x00\x00\x00\x00\x00'
p3260
tp3261
Rp3262
aa(lp3263
g38
(g42
S'S;&\xf6\xda\xe8m?'
p3264
tp3265
Rp3266
aa(lp3267
g38
(g42
S'>\xa8\xd2O\xb5\xc5=?'
p3268
tp3269
Rp3270
aa(lp3271
g38
(g42
S'.\xcd%\x0e\x1a\xb7\x87?'
p3272
tp3273
Rp3274
aa(lp3275
g38
(g42
S'E\xa0\xa1\xdc\x1ai4?'
p3276
tp3277
Rp3278
aa(lp3279
g38
(g42
S'\x00\x00\x00\x00\x00\x00\x00\x00'
p3280
tp3281
Rp3282
aa(lp3283
g38
(g42
S'\x98|\xdf\xfb)8R?'
p3284
tp3285
Rp3286
aa(lp3287
g38
(g42
S'\x97\xd6\x86\x04I\xbdg?'
p3288
tp3289
Rp3290
aa(lp3291
g38
(g42
S'\x06\x8e\xfe\x8ba^}?'
p3292
tp3293
Rp3294
aa(lp3295
g38
(g42
S'\x00\x00\x00\x00\x00\x00\x00\x00'
p3296
tp3297
Rp3298
aa(lp3299
g38
(g42
S'\x80\x11e\x04b\xaa7?'
p3300
tp3301
Rp3302
aa(lp3303
g38
(g42
S'\xd9q\x95\xaaN\x82\x83?'
p3304
tp3305
Rp3306
aa(lp3307
g38
(g42
S"'\x08\x9c>%\x03\x87?"
p3308
tp3309
Rp3310
aa(lp3311
g38
(g42
S'\x17X\xb1v\x02n\x98?'
p3312
tp3313
Rp3314
aa(lp3315
g38
(g42
S'U\x17\xdc\x05\xd8\x8d/?'
p3316
tp3317
Rp3318
aa(lp3319
g38
(g42
S'\x00\x00\x00\x00\x00\x00\x00\x00'
p3320
tp3321
Rp3322
aasg286
(lp3323
F0.5561389923095703
aF0.5561389923095703
aF0.5362918376922607
aF0.5507059097290039
aF0.5655241012573242
aF0.5487959384918213
aF0.5708000659942627
aF0.5502378940582275
aF0.5535299777984619
aF0.5546739101409912
aF0.5391850471496582
aF0.5246059894561768
aF0.5130560398101807
aF0.5519039630889893
aF0.5152771472930908
aF0.5068590641021729
aF0.5087001323699951
aF0.5501289367675781
aF0.5363278388977051
aF0.5563359260559082
aF0.5591509342193604
aF0.5127160549163818
aF0.5150430202484131
aF0.5409588813781738
aF0.6050739288330078
aF0.5865960121154785
aF0.5930039882659912
aF0.5837719440460205
aF0.5301179885864258
aF0.5139510631561279
aF0.5289669036865234
ass.