(dp0
S'SS-L'
p1
(dp2
S'evals'
p3
(lp4
(lp5
I50
aag5
a(lp6
I50
aa(lp7
I50
aa(lp8
I50
aa(lp9
I50
aa(lp10
I50
aa(lp11
I50
aa(lp12
I50
aa(lp13
I50
aa(lp14
I50
aa(lp15
I50
aa(lp16
I50
aa(lp17
I50
aa(lp18
I50
aa(lp19
I50
aa(lp20
I50
aa(lp21
I50
aa(lp22
I50
aa(lp23
I50
aa(lp24
I50
aa(lp25
I50
aa(lp26
I50
aa(lp27
I50
aa(lp28
I50
aa(lp29
I50
aa(lp30
I50
aa(lp31
I50
aa(lp32
I50
aa(lp33
I50
aa(lp34
I50
aasS'igd'
p35
(lp36
(lp37
cnumpy.core.multiarray
scalar
p38
(cnumpy
dtype
p39
(S'f8'
p40
I0
I1
tp41
Rp42
(I3
S'<'
p43
NNNI-1
I-1
I0
tp44
bS'bb\xf6K3\x99c?'
p45
tp46
Rp47
aag37
a(lp48
g38
(g42
S'\x1c?Gh\xb5\x9cq?'
p49
tp50
Rp51
aa(lp52
g38
(g42
S'\xe6\x06\x19JC\xc8\x82?'
p53
tp54
Rp55
aa(lp56
g38
(g42
S'\xf7\xd4\x9a.\x8cK{?'
p57
tp58
Rp59
aa(lp60
g38
(g42
S'\x85{\xaa\xd4\xda\x16x?'
p61
tp62
Rp63
aa(lp64
g38
(g42
S'#E\x9d,\xf4\r\x81?'
p65
tp66
Rp67
aa(lp68
g38
(g42
S'D\x168\x8d\xa1F~?'
p69
tp70
Rp71
aa(lp72
g38
(g42
S'!\x9de\xf6\x81\x1c\x83?'
p73
tp74
Rp75
aa(lp76
g38
(g42
S'\xc3\xabP\x92\x01rt?'
p77
tp78
Rp79
aa(lp80
g38
(g42
S'\x00ERi\xa6\xe1p?'
p81
tp82
Rp83
aa(lp84
g38
(g42
S' \x05\xdb\xcf\x8c\xd5\x82?'
p85
tp86
Rp87
aa(lp88
g38
(g42
S'\xec\xf91rq\x92\x84?'
p89
tp90
Rp91
aa(lp92
g38
(g42
S'\xf8cE\xba\xf2\x01{?'
p93
tp94
Rp95
aa(lp96
g38
(g42
S'\xf7A6\x825#\x7f?'
p97
tp98
Rp99
aa(lp100
g38
(g42
S'\xf9\xb4\x99\xad)\x8b\x87?'
p101
tp102
Rp103
aa(lp104
g38
(g42
S'"\x85FM\xf8\xd3V?'
p105
tp106
Rp107
aa(lp108
g38
(g42
S'&\xe0,\x90\r@i?'
p109
tp110
Rp111
aa(lp112
g38
(g42
S'\x17\x83\xb5#\xff\xc1x?'
p113
tp114
Rp115
aa(lp116
g38
(g42
S'/n\xaa\x8e-(y?'
p117
tp118
Rp119
aa(lp120
g38
(g42
S'\xc4\xe6\x14E\x98\x1b{?'
p121
tp122
Rp123
aa(lp124
g38
(g42
S'\xad/\x83<\xc9n\x80?'
p125
tp126
Rp127
aa(lp128
g38
(g42
S'\xe0\xd8\xc4^O\r\x7f?'
p129
tp130
Rp131
aa(lp132
g38
(g42
S'\xd2c\xfb\xe8\xd6\xa2d?'
p133
tp134
Rp135
aa(lp136
g38
(g42
S'\r\xb2u\xf3\xff\xbc~?'
p137
tp138
Rp139
aa(lp140
g38
(g42
S'\xdcNy\x11^\xfb\x82?'
p141
tp142
Rp143
aa(lp144
g38
(g42
S'EuP%\x80\xffY?'
p145
tp146
Rp147
aa(lp148
g38
(g42
S'\x18\xd0\xeb\xa4G\xbfx?'
p149
tp150
Rp151
aa(lp152
g38
(g42
S'm\xcbk\xccW\x05b?'
p153
tp154
Rp155
aa(lp156
g38
(g42
S'+\xb3\x16&iI}?'
p157
tp158
Rp159
aa(lp160
g38
(g42
S'\n*wb\xe2\xbfy?'
p161
tp162
Rp163
aasS'gen_dist'
p164
(lp165
(lp166
g38
(g42
S'\xaaa}\xe4\x8b\x15\xa4?'
p167
tp168
Rp169
aag166
a(lp170
g38
(g42
S'\xfb\xfanS\xdc\x04\x80?'
p171
tp172
Rp173
aa(lp174
g38
(g42
S'\xb2\x99\xc6\x0e\x95\x1a\x91?'
p175
tp176
Rp177
aa(lp178
g38
(g42
S'h\x88I\x1bZQ\x92?'
p179
tp180
Rp181
aa(lp182
g38
(g42
S'\xac\x11\ne\xd6rs?'
p183
tp184
Rp185
aa(lp186
g38
(g42
S'\x94\x8c2\xb4\x8d=\x8b?'
p187
tp188
Rp189
aa(lp190
g38
(g42
S'D\x168\x8d\xa1F~?'
p191
tp192
Rp193
aa(lp194
g38
(g42
S'\xbb\xe5U\x1c\xd2\x1a\x88?'
p195
tp196
Rp197
aa(lp198
g38
(g42
S'S\\\xa1\x11qt~?'
p199
tp200
Rp201
aa(lp202
g38
(g42
S'\xach\xed\xe7f\xa3\x84?'
p203
tp204
Rp205
aa(lp206
g38
(g42
S'L\xa3<k\xb3\xe3\x85?'
p207
tp208
Rp209
aa(lp210
g38
(g42
S'R8\x02\x062\x7f\xa5?'
p211
tp212
Rp213
aa(lp214
g38
(g42
S'\xff\xa06\xda\xfaD\x83?'
p215
tp216
Rp217
aa(lp218
g38
(g42
S'=\xc5\nF\x8ey\xa7?'
p219
tp220
Rp221
aa(lp222
g38
(g42
S'\xeb\x12ls\x1b\xb4\x86?'
p223
tp224
Rp225
aa(lp226
g38
(g42
S'\xa5>,|\xf3\xe0@?'
p227
tp228
Rp229
aa(lp230
g38
(g42
S'\xdb\xe3\xa7Y7@\x87?'
p231
tp232
Rp233
aa(lp234
g38
(g42
S'm\xf9\xa57i\x05\x87?'
p235
tp236
Rp237
aa(lp238
g38
(g42
S'\xe3\x18\xc6n\xe2\x00\x95?'
p239
tp240
Rp241
aa(lp242
g38
(g42
S'\x85\x81\xdf\xcc&,\xa3?'
p243
tp244
Rp245
aa(lp246
g38
(g42
S']R\x1e\xfc\xcf\x0e\xa7?'
p247
tp248
Rp249
aa(lp250
g38
(g42
S'7]\xf1(\xe6\xe9\xa4?'
p251
tp252
Rp253
aa(lp254
g38
(g42
S'\x0c\x87\xcb\x1e\x9aG\x9e?'
p255
tp256
Rp257
aa(lp258
g38
(g42
S'\x0e\x19\x1120m\x87?'
p259
tp260
Rp261
aa(lp262
g38
(g42
S'\tpVmdh\x92?'
p263
tp264
Rp265
aa(lp266
g38
(g42
S'B`o\x87\t\xb6\x7f?'
p267
tp268
Rp269
aa(lp270
g38
(g42
S':\x9a)\x9b\xcd\xe6\x83?'
p271
tp272
Rp273
aa(lp274
g38
(g42
S'\xe2\xbdX\xee\x92Nu?'
p275
tp276
Rp277
aa(lp278
g38
(g42
S'/\xa2\xfb\xb8\x04\xa3\x83?'
p279
tp280
Rp281
aa(lp282
g38
(g42
S'\xa7\xdf\xe7\xa2\xd8\xa5\x83?'
p283
tp284
Rp285
aasS'time'
p286
(lp287
F2.0702199935913086
aF2.0702199935913086
aF2.1751348972320557
aF2.1878390312194824
aF2.165802001953125
aF2.12778902053833
aF2.215111017227173
aF2.198009967803955
aF2.1987998485565186
aF2.1438281536102295
aF2.2856240272521973
aF2.276174783706665
aF2.2413909435272217
aF2.192000150680542
aF2.2479100227355957
aF2.262732982635498
aF2.244791030883789
aF2.258207082748413
aF2.232525110244751
aF2.31345796585083
aF2.307184934616089
aF2.2481529712677
aF2.2958550453186035
aF2.1677820682525635
aF2.3010940551757812
aF2.158736228942871
aF2.2010300159454346
aF2.3087050914764404
aF2.2158710956573486
aF2.169239044189453
aF2.114352226257324
assS'SS-I'
p288
(dp289
g3
(lp290
(lp291
I50
aag291
a(lp292
I50
aa(lp293
I50
aa(lp294
I50
aa(lp295
I50
aa(lp296
I50
aa(lp297
I50
aa(lp298
I50
aa(lp299
I50
aa(lp300
I50
aa(lp301
I50
aa(lp302
I50
aa(lp303
I50
aa(lp304
I50
aa(lp305
I50
aa(lp306
I50
aa(lp307
I50
aa(lp308
I50
aa(lp309
I50
aa(lp310
I50
aa(lp311
I50
aa(lp312
I50
aa(lp313
I50
aa(lp314
I50
aa(lp315
I50
aa(lp316
I50
aa(lp317
I50
aa(lp318
I50
aa(lp319
I50
aa(lp320
I50
aasg35
(lp321
(lp322
g38
(g42
S'\x00\x00\x00\x00\x00\x00\x00\x00'
p323
tp324
Rp325
aag322
a(lp326
g38
(g42
S'\x00\x00\x00\x00\x00\x00\x00\x00'
p327
tp328
Rp329
aa(lp330
g38
(g42
S'\x00\x00\x00\x00\x00\x00\x00\x00'
p331
tp332
Rp333
aa(lp334
g38
(g42
S'\x00\x00\x00\x00\x00\x00\x00\x00'
p335
tp336
Rp337
aa(lp338
g38
(g42
S'\x00\x00\x00\x00\x00\x00\x00\x00'
p339
tp340
Rp341
aa(lp342
g38
(g42
S'\x00\x00\x00\x00\x00\x00\x00\x00'
p343
tp344
Rp345
aa(lp346
g38
(g42
S'\x00\x00\x00\x00\x00\x00\x00\x00'
p347
tp348
Rp349
aa(lp350
g38
(g42
S'\x00\x00\x00\x00\x00\x00\x00\x00'
p351
tp352
Rp353
aa(lp354
g38
(g42
S'\x00\x00\x00\x00\x00\x00\x00\x00'
p355
tp356
Rp357
aa(lp358
g38
(g42
S'\x00\x00\x00\x00\x00\x00\x00\x00'
p359
tp360
Rp361
aa(lp362
g38
(g42
S'\x00\x00\x00\x00\x00\x00\x00\x00'
p363
tp364
Rp365
aa(lp366
g38
(g42
S'\x00\x00\x00\x00\x00\x00\x00\x00'
p367
tp368
Rp369
aa(lp370
g38
(g42
S'\x00\x00\x00\x00\x00\x00\x00\x00'
p371
tp372
Rp373
aa(lp374
g38
(g42
S'\x00\x00\x00\x00\x00\x00\x00\x00'
p375
tp376
Rp377
aa(lp378
g38
(g42
S'\x00\x00\x00\x00\x00\x00\x00\x00'
p379
tp380
Rp381
aa(lp382
g38
(g42
S'\x00\x00\x00\x00\x00\x00\x00\x00'
p383
tp384
Rp385
aa(lp386
g38
(g42
S'\x00\x00\x00\x00\x00\x00\x00\x00'
p387
tp388
Rp389
aa(lp390
g38
(g42
S'\x00\x00\x00\x00\x00\x00\x00\x00'
p391
tp392
Rp393
aa(lp394
g38
(g42
S'\x00\x00\x00\x00\x00\x00\x00\x00'
p395
tp396
Rp397
aa(lp398
g38
(g42
S'\x00\x00\x00\x00\x00\x00\x00\x00'
p399
tp400
Rp401
aa(lp402
g38
(g42
S'\x00\x00\x00\x00\x00\x00\x00\x00'
p403
tp404
Rp405
aa(lp406
g38
(g42
S'\x00\x00\x00\x00\x00\x00\x00\x00'
p407
tp408
Rp409
aa(lp410
g38
(g42
S'\x00\x00\x00\x00\x00\x00\x00\x00'
p411
tp412
Rp413
aa(lp414
g38
(g42
S'\x00\x00\x00\x00\x00\x00\x00\x00'
p415
tp416
Rp417
aa(lp418
g38
(g42
S'\x00\x00\x00\x00\x00\x00\x00\x00'
p419
tp420
Rp421
aa(lp422
g38
(g42
S'\x00\x00\x00\x00\x00\x00\x00\x00'
p423
tp424
Rp425
aa(lp426
g38
(g42
S'\x00\x00\x00\x00\x00\x00\x00\x00'
p427
tp428
Rp429
aa(lp430
g38
(g42
S'\x00\x00\x00\x00\x00\x00\x00\x00'
p431
tp432
Rp433
aa(lp434
g38
(g42
S'\x00\x00\x00\x00\x00\x00\x00\x00'
p435
tp436
Rp437
aa(lp438
g38
(g42
S'\x00\x00\x00\x00\x00\x00\x00\x00'
p439
tp440
Rp441
aasg164
(lp442
(lp443
g38
(g42
S'\x00\x00\x00\x00\x00\x00\x00\x00'
p444
tp445
Rp446
aag443
a(lp447
g38
(g42
S'\x00\x00\x00\x00\x00\x00\x00\x00'
p448
tp449
Rp450
aa(lp451
g38
(g42
S'\x00\x00\x00\x00\x00\x00\x00\x00'
p452
tp453
Rp454
aa(lp455
g38
(g42
S'\x00\x00\x00\x00\x00\x00\x00\x00'
p456
tp457
Rp458
aa(lp459
g38
(g42
S'\x00\x00\x00\x00\x00\x00\x00\x00'
p460
tp461
Rp462
aa(lp463
g38
(g42
S'\x00\x00\x00\x00\x00\x00\x00\x00'
p464
tp465
Rp466
aa(lp467
g38
(g42
S'\x00\x00\x00\x00\x00\x00\x00\x00'
p468
tp469
Rp470
aa(lp471
g38
(g42
S'\x00\x00\x00\x00\x00\x00\x00\x00'
p472
tp473
Rp474
aa(lp475
g38
(g42
S'\x00\x00\x00\x00\x00\x00\x00\x00'
p476
tp477
Rp478
aa(lp479
g38
(g42
S'\x00\x00\x00\x00\x00\x00\x00\x00'
p480
tp481
Rp482
aa(lp483
g38
(g42
S'\x00\x00\x00\x00\x00\x00\x00\x00'
p484
tp485
Rp486
aa(lp487
g38
(g42
S'\x00\x00\x00\x00\x00\x00\x00\x00'
p488
tp489
Rp490
aa(lp491
g38
(g42
S'\x00\x00\x00\x00\x00\x00\x00\x00'
p492
tp493
Rp494
aa(lp495
g38
(g42
S'\x00\x00\x00\x00\x00\x00\x00\x00'
p496
tp497
Rp498
aa(lp499
g38
(g42
S'\x00\x00\x00\x00\x00\x00\x00\x00'
p500
tp501
Rp502
aa(lp503
g38
(g42
S'\x00\x00\x00\x00\x00\x00\x00\x00'
p504
tp505
Rp506
aa(lp507
g38
(g42
S'\x00\x00\x00\x00\x00\x00\x00\x00'
p508
tp509
Rp510
aa(lp511
g38
(g42
S'\x00\x00\x00\x00\x00\x00\x00\x00'
p512
tp513
Rp514
aa(lp515
g38
(g42
S'\x00\x00\x00\x00\x00\x00\x00\x00'
p516
tp517
Rp518
aa(lp519
g38
(g42
S'\x00\x00\x00\x00\x00\x00\x00\x00'
p520
tp521
Rp522
aa(lp523
g38
(g42
S'\x00\x00\x00\x00\x00\x00\x00\x00'
p524
tp525
Rp526
aa(lp527
g38
(g42
S'\x00\x00\x00\x00\x00\x00\x00\x00'
p528
tp529
Rp530
aa(lp531
g38
(g42
S'\x00\x00\x00\x00\x00\x00\x00\x00'
p532
tp533
Rp534
aa(lp535
g38
(g42
S'\x00\x00\x00\x00\x00\x00\x00\x00'
p536
tp537
Rp538
aa(lp539
g38
(g42
S'\x00\x00\x00\x00\x00\x00\x00\x00'
p540
tp541
Rp542
aa(lp543
g38
(g42
S'\x00\x00\x00\x00\x00\x00\x00\x00'
p544
tp545
Rp546
aa(lp547
g38
(g42
S'\x00\x00\x00\x00\x00\x00\x00\x00'
p548
tp549
Rp550
aa(lp551
g38
(g42
S'\x00\x00\x00\x00\x00\x00\x00\x00'
p552
tp553
Rp554
aa(lp555
g38
(g42
S'\x00\x00\x00\x00\x00\x00\x00\x00'
p556
tp557
Rp558
aa(lp559
g38
(g42
S'\x00\x00\x00\x00\x00\x00\x00\x00'
p560
tp561
Rp562
aasg286
(lp563
F2.977297067642212
aF2.977297067642212
aF2.8734359741210938
aF3.0044960975646973
aF2.952981948852539
aF3.006824016571045
aF2.9630959033966064
aF2.9961278438568115
aF2.7919349670410156
aF2.7785279750823975
aF2.747251033782959
aF2.745016098022461
aF2.7045021057128906
aF2.8823039531707764
aF3.0372679233551025
aF3.0344550609588623
aF3.032562017440796
aF3.0352070331573486
aF3.038748025894165
aF3.0631160736083984
aF3.0997159481048584
aF3.1318798065185547
aF3.0839078426361084
aF3.030250072479248
aF2.9843270778656006
aF2.8137481212615967
aF2.9432291984558105
aF2.948141098022461
aF3.0321760177612305
aF2.9839789867401123
aF2.994072914123535
assS'SS-H'
p564
(dp565
g3
(lp566
(lp567
I50
aag567
a(lp568
I50
aa(lp569
I50
aa(lp570
I50
aa(lp571
I50
aa(lp572
I50
aa(lp573
I50
aa(lp574
I50
aa(lp575
I50
aa(lp576
I50
aa(lp577
I50
aa(lp578
I50
aa(lp579
I50
aa(lp580
I50
aa(lp581
I50
aa(lp582
I50
aa(lp583
I50
aa(lp584
I50
aa(lp585
I50
aa(lp586
I50
aa(lp587
I50
aa(lp588
I50
aa(lp589
I50
aa(lp590
I50
aa(lp591
I50
aa(lp592
I50
aa(lp593
I50
aa(lp594
I50
aa(lp595
I50
aa(lp596
I50
aasg35
(lp597
(lp598
g38
(g42
S'C\xfc\x0fK\xdct-?'
p599
tp600
Rp601
aag598
a(lp602
g38
(g42
S'\x04k\xa5\xdf.\xbb\x19?'
p603
tp604
Rp605
aa(lp606
g38
(g42
S'\xcek;3PwN?'
p607
tp608
Rp609
aa(lp610
g38
(g42
S'\xf6_1\xe7\xcaB$?'
p611
tp612
Rp613
aa(lp614
g38
(g42
S'Q\x847\xc7\xddqP?'
p615
tp616
Rp617
aa(lp618
g38
(g42
S'H\xddm\xc9\x8d\xfcN?'
p619
tp620
Rp621
aa(lp622
g38
(g42
S'\xc9!\xd2#\x16\x9b9?'
p623
tp624
Rp625
aa(lp626
g38
(g42
S'\xc1\xc5\xb7=c\xcf-?'
p627
tp628
Rp629
aa(lp630
g38
(g42
S'\x00\x00\x00\x00\x00\x00\x00\x00'
p631
tp632
Rp633
aa(lp634
g38
(g42
S'l\xde@\xcc\xd3p0?'
p635
tp636
Rp637
aa(lp638
g38
(g42
S'\xa6\xfc\x80R\x17\xf9 ?'
p639
tp640
Rp641
aa(lp642
g38
(g42
S'\xfc\x0b\x9d\xc8n\xed2?'
p643
tp644
Rp645
aa(lp646
g38
(g42
S'C\xfc\x0fK\xdct-?'
p647
tp648
Rp649
aa(lp650
g38
(g42
S'q_\xf2\xa9\xbc\xa1\xc6>'
p651
tp652
Rp653
aa(lp654
g38
(g42
S'\xef\xdc\xe8\xd2qL%?'
p655
tp656
Rp657
aa(lp658
g38
(g42
S'Z6F\xf2\xe5_+?'
p659
tp660
Rp661
aa(lp662
g38
(g42
S'\xd7\xff\xed\xe4l\xba+?'
p663
tp664
Rp665
aa(lp666
g38
(g42
S'\x01\xe3\x81\xf5Z\xa3_?'
p667
tp668
Rp669
aa(lp670
g38
(g42
S'\x07V/\x06`@"?'
p671
tp672
Rp673
aa(lp674
g38
(g42
S'\x06V/\x06`@"?'
p675
tp676
Rp677
aa(lp678
g38
(g42
S'`\xfb?ie\xfc2?'
p679
tp680
Rp681
aa(lp682
g38
(g42
S'C\xfc\x0fK\xdct-?'
p683
tp684
Rp685
aa(lp686
g38
(g42
S'\xc5\xc8\xa0V\x00t_?'
p687
tp688
Rp689
aa(lp690
g38
(g42
S'?\x10\xe5\xcd\xcb\xf1 ?'
p691
tp692
Rp693
aa(lp694
g38
(g42
S'\xcek;3PwN?'
p695
tp696
Rp697
aa(lp698
g38
(g42
S'\xbd\x17\x16\x9a\x96\xe8*?'
p699
tp700
Rp701
aa(lp702
g38
(g42
S',\xe1\xec\x92e\xc1,?'
p703
tp704
Rp705
aa(lp706
g38
(g42
S'\xff\xfd\xf4\xc4<p\x1a?'
p707
tp708
Rp709
aa(lp710
g38
(g42
S'Rl\x87\xd5a\x934?'
p711
tp712
Rp713
aa(lp714
g38
(g42
S'\xc8\xc9:I\x9e\x92X?'
p715
tp716
Rp717
aasg164
(lp718
(lp719
g38
(g42
S'\x00\x00\x00\x00\x00\x00\x00\x00'
p720
tp721
Rp722
aag719
a(lp723
g38
(g42
S'\x00\x00\x00\x00\x00\x00\x00\x00'
p724
tp725
Rp726
aa(lp727
g38
(g42
S'\x00\x00\x00\x00\x00\x00\x00\x00'
p728
tp729
Rp730
aa(lp731
g38
(g42
S' \x0c\x96\xfeZa\xc7>'
p732
tp733
Rp734
aa(lp735
g38
(g42
S'\x1d\xbb\xc8\xee\xbc\xfe\x18?'
p736
tp737
Rp738
aa(lp739
g38
(g42
S'\x00\x00\x00\x00\x00\x00\x00\x00'
p740
tp741
Rp742
aa(lp743
g38
(g42
S'\xd6\xf3\x99\xc9\x11\x97\x91?'
p744
tp745
Rp746
aa(lp747
g38
(g42
S'\x00\x00\x00\x00\x00\x00\x00\x00'
p748
tp749
Rp750
aa(lp751
g38
(g42
S'\x00\x00\x00\x00\x00\x00\x00\x00'
p752
tp753
Rp754
aa(lp755
g38
(g42
S'"m\xd2\xad\xd3\x8b\x14?'
p756
tp757
Rp758
aa(lp759
g38
(g42
S'\x00Wb\xfeg\xb8\xba>'
p760
tp761
Rp762
aa(lp763
g38
(g42
S'\x00\x00\x00\x00\x00\x00\x00\x00'
p764
tp765
Rp766
aa(lp767
g38
(g42
S'\x00\x00\x00\x00\x00\x00\x00\x00'
p768
tp769
Rp770
aa(lp771
g38
(g42
S'\x00\x00\x00\x00\x00\x00\x00\x00'
p772
tp773
Rp774
aa(lp775
g38
(g42
S'\xf9]`\x87\x12U\x90?'
p776
tp777
Rp778
aa(lp779
g38
(g42
S'\x00\x00\x00\x00\x00\x00\x00\x00'
p780
tp781
Rp782
aa(lp783
g38
(g42
S'\x00\x00\x00\x00\x00\x00\x00\x00'
p784
tp785
Rp786
aa(lp787
g38
(g42
S'\x00\x00\x00\x00\x00\x00\x00\x00'
p788
tp789
Rp790
aa(lp791
g38
(g42
S'\x00\x00\x00\x00\x00\x00\x00\x00'
p792
tp793
Rp794
aa(lp795
g38
(g42
S'\x00\x00\x00\x00\x00\x00\x00\x00'
p796
tp797
Rp798
aa(lp799
g38
(g42
S'\xd5\xbarSy,\xcf>'
p800
tp801
Rp802
aa(lp803
g38
(g42
S'\x00\x00\x00\x00\x00\x00\x00\x00'
p804
tp805
Rp806
aa(lp807
g38
(g42
S'\x00\x00\x00\x00\x00\x00\x00\x00'
p808
tp809
Rp810
aa(lp811
g38
(g42
S'\x00\x00\x00\x00\x00\x00\x00\x00'
p812
tp813
Rp814
aa(lp815
g38
(g42
S'\x00\x00\x00\x00\x00\x00\x00\x00'
p816
tp817
Rp818
aa(lp819
g38
(g42
S"Y'\xb4\x07~^\x0c?"
p820
tp821
Rp822
aa(lp823
g38
(g42
S'\xb5\xbd\x0e\x8b\xdco\x10?'
p824
tp825
Rp826
aa(lp827
g38
(g42
S'\x00\x00\x00\x00\x00\x00\x00\x00'
p828
tp829
Rp830
aa(lp831
g38
(g42
S'\x00\x00\x00\x00\x00\x00\x00\x00'
p832
tp833
Rp834
aa(lp835
g38
(g42
S'\x02\x1do\x9djC!?'
p836
tp837
Rp838
aasg286
(lp839
F1.9550819396972656
aF1.9550819396972656
aF1.5530250072479248
aF1.1509008407592773
aF1.1419990062713623
aF1.3975801467895508
aF1.272447109222412
aF1.4082000255584717
aF1.3200390338897705
aF1.2995460033416748
aF1.258976936340332
aF1.2885141372680664
aF1.2751221656799316
aF1.4701340198516846
aF1.3025970458984375
aF1.3055338859558105
aF1.3060009479522705
aF1.3319590091705322
aF1.3149900436401367
aF1.4831979274749756
aF1.470473051071167
aF1.3352749347686768
aF1.015395164489746
aF0.9744710922241211
aF1.528595209121704
aF1.538489818572998
aF1.514665126800537
aF1.5137789249420166
aF1.5750300884246826
aF1.1563920974731445
aF1.100870132446289
assS'SS-K'
p840
(dp841
g3
(lp842
(lp843
I50
aag843
a(lp844
I50
aa(lp845
I50
aa(lp846
I50
aa(lp847
I50
aa(lp848
I50
aa(lp849
I50
aa(lp850
I50
aa(lp851
I50
aa(lp852
I50
aa(lp853
I50
aa(lp854
I50
aa(lp855
I50
aa(lp856
I50
aa(lp857
I50
aa(lp858
I50
aa(lp859
I50
aa(lp860
I50
aa(lp861
I50
aa(lp862
I50
aa(lp863
I50
aa(lp864
I50
aa(lp865
I50
aa(lp866
I50
aa(lp867
I50
aa(lp868
I50
aa(lp869
I50
aa(lp870
I50
aa(lp871
I50
aa(lp872
I50
aasg35
(lp873
(lp874
g38
(g42
S'\\\xb1\xf8\x07\xc3v\x82?'
p875
tp876
Rp877
aag874
a(lp878
g38
(g42
S'w\x04\xa6RP\xa7\x95?'
p879
tp880
Rp881
aa(lp882
g38
(g42
S'c7<\x1c\xaf\x8a\x84?'
p883
tp884
Rp885
aa(lp886
g38
(g42
S'\xfdA\xfa\xbe\xf1vu?'
p887
tp888
Rp889
aa(lp890
g38
(g42
S'\x11\xc96\xfc\x03\xa8r?'
p891
tp892
Rp893
aa(lp894
g38
(g42
S'\x17i\x80\t\xe0\xce\xa0?'
p895
tp896
Rp897
aa(lp898
g38
(g42
S'\x81n\x99m\xb4\xc8\x86?'
p899
tp900
Rp901
aa(lp902
g38
(g42
S'\xe8\xa0\x96jU\xcb\xa3?'
p903
tp904
Rp905
aa(lp906
g38
(g42
S'\x1e\x1f[\xack\xcc\x80?'
p907
tp908
Rp909
aa(lp910
g38
(g42
S'\x14~\xd0#\xf2\xd1\x81?'
p911
tp912
Rp913
aa(lp914
g38
(g42
S'\xc5\xc5\x0f+%\nu?'
p915
tp916
Rp917
aa(lp918
g38
(g42
S'\xeci\xc3\x85\xbd\xd5\x98?'
p919
tp920
Rp921
aa(lp922
g38
(g42
S'\x06\x0f\xe5O\xe6\x01x?'
p923
tp924
Rp925
aa(lp926
g38
(g42
S'\xf6\xe4\xe5\xb26Y}?'
p927
tp928
Rp929
aa(lp930
g38
(g42
S'O\xd6\xa1Q\xfe:q?'
p931
tp932
Rp933
aa(lp934
g38
(g42
S'\xd0K8\xf4|\xccv?'
p935
tp936
Rp937
aa(lp938
g38
(g42
S'l\x12\x9f\xdc:\x87\x97?'
p939
tp940
Rp941
aa(lp942
g38
(g42
S'\x0f\t&\x876^\x97?'
p943
tp944
Rp945
aa(lp946
g38
(g42
S'J\xa7\x06e\x05\x87h?'
p947
tp948
Rp949
aa(lp950
g38
(g42
S'<z\xf7\x15P\x8d\x8c?'
p951
tp952
Rp953
aa(lp954
g38
(g42
S'\x8d|"\x11\x98\x87p?'
p955
tp956
Rp957
aa(lp958
g38
(g42
S'\xc1\xd6\x15\xa4y\x8f\x88?'
p959
tp960
Rp961
aa(lp962
g38
(g42
S'\xb1\xc1o5\xe8\xe8\x89?'
p963
tp964
Rp965
aa(lp966
g38
(g42
S'\x0f\x95&*u,\x83?'
p967
tp968
Rp969
aa(lp970
g38
(g42
S'\x9f\xbe\xcc\xa3\x8f\x83\x90?'
p971
tp972
Rp973
aa(lp974
g38
(g42
S'A\x16\xda\xa4e\xdf}?'
p975
tp976
Rp977
aa(lp978
g38
(g42
S"\xb5\xd4'\x03\xf5;\x81?"
p979
tp980
Rp981
aa(lp982
g38
(g42
S'\xe9\xde\xe8C\xd9\xed\x8f?'
p983
tp984
Rp985
aa(lp986
g38
(g42
S'\xbf\xb3\xcf:\x8d\xcc\x85?'
p987
tp988
Rp989
aa(lp990
g38
(g42
S'c4\xf7\ro\nx?'
p991
tp992
Rp993
aasg164
(lp994
(lp995
g38
(g42
S'#\xa8\xb3\xba\x94\x12R?'
p996
tp997
Rp998
aag995
a(lp999
g38
(g42
S'\x94\x01\x8cp\xe9\xd3I?'
p1000
tp1001
Rp1002
aa(lp1003
g38
(g42
S'7\xdbU\x80\x19\xde`?'
p1004
tp1005
Rp1006
aa(lp1007
g38
(g42
S'\xac\x98P\xaet\xb7T?'
p1008
tp1009
Rp1010
aa(lp1011
g38
(g42
S'\xbb\xeb\xf4\xa1\xc8\xf1]?'
p1012
tp1013
Rp1014
aa(lp1015
g38
(g42
S'\xc73\xbd\xdb\x8eSe?'
p1016
tp1017
Rp1018
aa(lp1019
g38
(g42
S'\xdb\xf6y\xb6\xabnB?'
p1020
tp1021
Rp1022
aa(lp1023
g38
(g42
S'\x10o\xc6X\xec\x05\x19?'
p1024
tp1025
Rp1026
aa(lp1027
g38
(g42
S'\xd3\xc5|\x16*\x029?'
p1028
tp1029
Rp1030
aa(lp1031
g38
(g42
S'b\x82\xd6\x8b\xfc-X?'
p1032
tp1033
Rp1034
aa(lp1035
g38
(g42
S'W\xc2\xdf\x9e\xf7tP?'
p1036
tp1037
Rp1038
aa(lp1039
g38
(g42
S'\xc2\xf9\x98o\x0bhB?'
p1040
tp1041
Rp1042
aa(lp1043
g38
(g42
S'\xb3\x0ff\xbcLDD?'
p1044
tp1045
Rp1046
aa(lp1047
g38
(g42
S'\\$d;7\x8fK?'
p1048
tp1049
Rp1050
aa(lp1051
g38
(g42
S'\x96\x9b\x8b$\xa9TU?'
p1052
tp1053
Rp1054
aa(lp1055
g38
(g42
S'8\x90#BNzL?'
p1056
tp1057
Rp1058
aa(lp1059
g38
(g42
S'\xf3\xe9P2o%1?'
p1060
tp1061
Rp1062
aa(lp1063
g38
(g42
S"OL\t\x91\xbc'E?"
p1064
tp1065
Rp1066
aa(lp1067
g38
(g42
S'\xf2\x1aW\xabn\xfaS?'
p1068
tp1069
Rp1070
aa(lp1071
g38
(g42
S'\x05\x99\x00\x85\x8c\x8e=?'
p1072
tp1073
Rp1074
aa(lp1075
g38
(g42
S'\xb0\x80\xb1?\xfe~D?'
p1076
tp1077
Rp1078
aa(lp1079
g38
(g42
S'\xb8>\x81\xea#\x9b7?'
p1080
tp1081
Rp1082
aa(lp1083
g38
(g42
S'\x81$\xeb\xe1EB)?'
p1084
tp1085
Rp1086
aa(lp1087
g38
(g42
S'm-S\t5)Q?'
p1088
tp1089
Rp1090
aa(lp1091
g38
(g42
S'E\xf1\xb4\xa4H\xcdb?'
p1092
tp1093
Rp1094
aa(lp1095
g38
(g42
S'6c\xd25dPP?'
p1096
tp1097
Rp1098
aa(lp1099
g38
(g42
S'\x9c\x074\xb9\xec\xafG?'
p1100
tp1101
Rp1102
aa(lp1103
g38
(g42
S'\xe3\x12\xa3\xc1\xd0\xbc\x1a?'
p1104
tp1105
Rp1106
aa(lp1107
g38
(g42
S'V\xdf\xc1J<\xed??'
p1108
tp1109
Rp1110
aa(lp1111
g38
(g42
S'\x11L\xe2\xc5\x8f\x16J?'
p1112
tp1113
Rp1114
aasg286
(lp1115
F8.566320896148682
aF8.566320896148682
aF8.341688871383667
aF8.836610078811646
aF9.032038927078247
aF7.957944869995117
aF8.611432075500488
aF8.610265970230103
aF8.786400079727173
aF9.705216884613037
aF9.098876953125
aF9.037194013595581
aF8.863590002059937
aF8.025954008102417
aF7.917389869689941
aF8.425922155380249
aF8.259395122528076
aF8.078459024429321
aF9.187072038650513
aF9.836333990097046
aF9.62285304069519
aF9.604004144668579
aF10.568814992904663
aF10.313861846923828
aF7.829600095748901
aF7.64277195930481
aF7.51380181312561
aF7.093979120254517
aF7.143807888031006
aF8.587865114212036
aF8.740332126617432
assS'SS-J'
p1116
(dp1117
g3
(lp1118
(lp1119
I50
aag1119
a(lp1120
I50
aa(lp1121
I50
aa(lp1122
I50
aa(lp1123
I50
aa(lp1124
I50
aa(lp1125
I50
aa(lp1126
I50
aa(lp1127
I50
aa(lp1128
I50
aa(lp1129
I50
aa(lp1130
I50
aa(lp1131
I50
aa(lp1132
I50
aa(lp1133
I50
aa(lp1134
I50
aa(lp1135
I50
aa(lp1136
I50
aa(lp1137
I50
aa(lp1138
I50
aa(lp1139
I50
aa(lp1140
I50
aa(lp1141
I50
aa(lp1142
I50
aa(lp1143
I50
aa(lp1144
I50
aa(lp1145
I50
aa(lp1146
I50
aa(lp1147
I50
aa(lp1148
I50
aasg35
(lp1149
(lp1150
g38
(g42
S'p\xbd\x01\xca6\x9cf?'
p1151
tp1152
Rp1153
aag1150
a(lp1154
g38
(g42
S'=\xfd\x0e<\xe4ry?'
p1155
tp1156
Rp1157
aa(lp1158
g38
(g42
S'\xbc\xfa\x18\x91&Fc?'
p1159
tp1160
Rp1161
aa(lp1162
g38
(g42
S')0\n@\x1d.\x82?'
p1163
tp1164
Rp1165
aa(lp1166
g38
(g42
S'5\x1a3\xb1\x16\xe3N?'
p1167
tp1168
Rp1169
aa(lp1170
g38
(g42
S'~\x9b\xe6=\xfb\\\xa1?'
p1171
tp1172
Rp1173
aa(lp1174
g38
(g42
S'\xab\x8c\x95\xcd\\Rq?'
p1175
tp1176
Rp1177
aa(lp1178
g38
(g42
S'y\x1f\xb1\xbc\xab*a?'
p1179
tp1180
Rp1181
aa(lp1182
g38
(g42
S'/\x95\x0b\x89"\xa8\x85?'
p1183
tp1184
Rp1185
aa(lp1186
g38
(g42
S'\r\xd6d\x14-\x80\xa5?'
p1187
tp1188
Rp1189
aa(lp1190
g38
(g42
S'\xf3\x1a\xfe\x91\xc5d\x96?'
p1191
tp1192
Rp1193
aa(lp1194
g38
(g42
S'\xf8\xb5\x83fF\xb2\x98?'
p1195
tp1196
Rp1197
aa(lp1198
g38
(g42
S'\xb0\x16\xb1\xff\xfa\x04\x8c?'
p1199
tp1200
Rp1201
aa(lp1202
g38
(g42
S'h\xaa\x07\x87\xb2\xaf\x9f?'
p1203
tp1204
Rp1205
aa(lp1206
g38
(g42
S'h\xbfqUq-~?'
p1207
tp1208
Rp1209
aa(lp1210
g38
(g42
S'u\xdd\\W[\xd1j?'
p1211
tp1212
Rp1213
aa(lp1214
g38
(g42
S'W\xdd4\xb7\x1f\xf0\x83?'
p1215
tp1216
Rp1217
aa(lp1218
g38
(g42
S'\x84\x00.\x80[H~?'
p1219
tp1220
Rp1221
aa(lp1222
g38
(g42
S'I0\x83o\xbc\xee\x9f?'
p1223
tp1224
Rp1225
aa(lp1226
g38
(g42
S'\xac\x05\x84F\xc49\x80?'
p1227
tp1228
Rp1229
aa(lp1230
g38
(g42
S'\xa9\x8e\xe4e\xfc\xe4\x81?'
p1231
tp1232
Rp1233
aa(lp1234
g38
(g42
S'l]\x92\xc22w\xa5?'
p1235
tp1236
Rp1237
aa(lp1238
g38
(g42
S'\xc9\xc0\xbc{S(c?'
p1239
tp1240
Rp1241
aa(lp1242
g38
(g42
S'%\xeb\x85G\x0cKY?'
p1243
tp1244
Rp1245
aa(lp1246
g38
(g42
S'\x96\x91\x8a\x1df!v?'
p1247
tp1248
Rp1249
aa(lp1250
g38
(g42
S'jZ\x1a}"\x00s?'
p1251
tp1252
Rp1253
aa(lp1254
g38
(g42
S'\xa1\x02P\xea\x1e\x8b\xa1?'
p1255
tp1256
Rp1257
aa(lp1258
g38
(g42
S'\x13:(Ud\xa2\x90?'
p1259
tp1260
Rp1261
aa(lp1262
g38
(g42
S'D\x9b\x81P\xda\xf3\xbb?'
p1263
tp1264
Rp1265
aa(lp1266
g38
(g42
S'\xe5}\xe5m>\x88|?'
p1267
tp1268
Rp1269
aasg164
(lp1270
(lp1271
g38
(g42
S'|[\\\x8di4\x03?'
p1272
tp1273
Rp1274
aag1271
a(lp1275
g38
(g42
S'Llq[S\xb6\x1d?'
p1276
tp1277
Rp1278
aa(lp1279
g38
(g42
S'O\xc6\r\t\xda\xd7\x03?'
p1280
tp1281
Rp1282
aa(lp1283
g38
(g42
S'TFX\x97\xa0\r+?'
p1284
tp1285
Rp1286
aa(lp1287
g38
(g42
S'\xba#\xfc\xfe\xa4a\n?'
p1288
tp1289
Rp1290
aa(lp1291
g38
(g42
S'\x10\x85\x16"\':I?'
p1292
tp1293
Rp1294
aa(lp1295
g38
(g42
S'\xca\x0e\x0c\xd3\x9d\xb5$?'
p1296
tp1297
Rp1298
aa(lp1299
g38
(g42
S'\xb0y{l\xd8k;?'
p1300
tp1301
Rp1302
aa(lp1303
g38
(g42
S'\x1f\x99\x95F\xb8a\x16?'
p1304
tp1305
Rp1306
aa(lp1307
g38
(g42
S'\\\x16\x08\x1d^\x8b/?'
p1308
tp1309
Rp1310
aa(lp1311
g38
(g42
S'e\x8d\xb9\xe7\xb0\x99E?'
p1312
tp1313
Rp1314
aa(lp1315
g38
(g42
S'\x03Q\xa4a\x93\x83\x08?'
p1316
tp1317
Rp1318
aa(lp1319
g38
(g42
S'\x07\xb0\x93\x95\xc5\xc0A?'
p1320
tp1321
Rp1322
aa(lp1323
g38
(g42
S'JH\xeff\x19\xfb5?'
p1324
tp1325
Rp1326
aa(lp1327
g38
(g42
S'\xc9:\r\x1c\x17\x91\x19?'
p1328
tp1329
Rp1330
aa(lp1331
g38
(g42
S'\xba\xcbi\xc5\xb9\xf8C?'
p1332
tp1333
Rp1334
aa(lp1335
g38
(g42
S'\x14QF_\xaf\x90H?'
p1336
tp1337
Rp1338
aa(lp1339
g38
(g42
S'\xa3\xf3\xbf\xc1\xce\xbc\xf7>'
p1340
tp1341
Rp1342
aa(lp1343
g38
(g42
S'\x04e/fL\xaf\xe4>'
p1344
tp1345
Rp1346
aa(lp1347
g38
(g42
S'\xddk\xec5\x94[2?'
p1348
tp1349
Rp1350
aa(lp1351
g38
(g42
S'#+\xdd\xef\xad\xbc\t?'
p1352
tp1353
Rp1354
aa(lp1355
g38
(g42
S'\x80Q)\x0eP\xd4\n?'
p1356
tp1357
Rp1358
aa(lp1359
g38
(g42
S'w\xfau\x8f\xd0-\x18?'
p1360
tp1361
Rp1362
aa(lp1363
g38
(g42
S'\xdckN\xc4\xd3\r"?'
p1364
tp1365
Rp1366
aa(lp1367
g38
(g42
S'\x02\xecZU9\xfd\x1c?'
p1368
tp1369
Rp1370
aa(lp1371
g38
(g42
S'\xe4c|\xae\xa9\x7f\xf4>'
p1372
tp1373
Rp1374
aa(lp1375
g38
(g42
S'\x93vC\x08\xdd\xc5\xd2>'
p1376
tp1377
Rp1378
aa(lp1379
g38
(g42
S'\xf9 \x92\xeb\xcc\xee\x1a?'
p1380
tp1381
Rp1382
aa(lp1383
g38
(g42
S'hP\xaa\xda\x0eo\xff>'
p1384
tp1385
Rp1386
aa(lp1387
g38
(g42
S'e\x90\xa2\xe5!"\x1b?'
p1388
tp1389
Rp1390
aasg286
(lp1391
F9.908972978591919
aF9.908972978591919
aF10.28775405883789
aF10.213795900344849
aF10.33349895477295
aF10.162814855575562
aF10.757089853286743
aF10.12378191947937
aF10.419105052947998
aF9.834707021713257
aF9.852073907852173
aF10.460113048553467
aF10.469598054885864
aF10.242216110229492
aF9.993502140045166
aF10.378179788589478
aF10.39356780052185
aF10.262143850326538
aF10.789612054824829
aF10.77216911315918
aF10.148679971694946
aF9.866214036941528
aF10.383347034454346
aF11.204622983932495
aF9.97157597541809
aF10.629794120788574
aF9.828670978546143
aF10.087555170059204
aF9.99624514579773
aF10.054298877716064
aF10.258975982666016
assS'SS-E'
p1392
(dp1393
g3
(lp1394
(lp1395
I50
aag1395
a(lp1396
I50
aa(lp1397
I50
aa(lp1398
I50
aa(lp1399
I50
aa(lp1400
I50
aa(lp1401
I50
aa(lp1402
I50
aa(lp1403
I50
aa(lp1404
I50
aa(lp1405
I50
aa(lp1406
I50
aa(lp1407
I50
aa(lp1408
I50
aa(lp1409
I50
aa(lp1410
I50
aa(lp1411
I50
aa(lp1412
I50
aa(lp1413
I50
aa(lp1414
I50
aa(lp1415
I50
aa(lp1416
I50
aa(lp1417
I50
aa(lp1418
I50
aa(lp1419
I50
aa(lp1420
I50
aa(lp1421
I50
aa(lp1422
I50
aa(lp1423
I50
aa(lp1424
I50
aasg35
(lp1425
(lp1426
g38
(g42
S'w\x05\x16|\xc8\xe5\xa6?'
p1427
tp1428
Rp1429
aag1426
a(lp1430
g38
(g42
S'kxA\x06a\xf2\x96?'
p1431
tp1432
Rp1433
aa(lp1434
g38
(g42
S'\xad.\x19\x11\xa0\xda\x95?'
p1435
tp1436
Rp1437
aa(lp1438
g38
(g42
S'\xba%Y\xde\xa6\xc5\x92?'
p1439
tp1440
Rp1441
aa(lp1442
g38
(g42
S'4\xd7|K\t\x87\xa0?'
p1443
tp1444
Rp1445
aa(lp1446
g38
(g42
S'\x01Bi`\xbd\xac\xa2?'
p1447
tp1448
Rp1449
aa(lp1450
g38
(g42
S'\xd8\x1c\\\xec\x87\xfb\xa9?'
p1451
tp1452
Rp1453
aa(lp1454
g38
(g42
S'\xeaF+\xb3\x14|z?'
p1455
tp1456
Rp1457
aa(lp1458
g38
(g42
S'\xecX_\xfbr\xea\xa1?'
p1459
tp1460
Rp1461
aa(lp1462
g38
(g42
S'\x960v\xe9\x1dz\x90?'
p1463
tp1464
Rp1465
aa(lp1466
g38
(g42
S'?n\xd6\xa9\x86\xe7\xa4?'
p1467
tp1468
Rp1469
aa(lp1470
g38
(g42
S'\x1e\xb6\xdf\xb6\xce8\x96?'
p1471
tp1472
Rp1473
aa(lp1474
g38
(g42
S'\x7f\x88\x08w:\x04\xad?'
p1475
tp1476
Rp1477
aa(lp1478
g38
(g42
S'\xa4\x9a\xf8G\xfe\x88\xa7?'
p1479
tp1480
Rp1481
aa(lp1482
g38
(g42
S'0\xc7(3L\x1a\x80?'
p1483
tp1484
Rp1485
aa(lp1486
g38
(g42
S'\xf27\xc3\xfc\x1d)\xab?'
p1487
tp1488
Rp1489
aa(lp1490
g38
(g42
S'\x13\x88\xb0\xf6y\x9c\xb0?'
p1491
tp1492
Rp1493
aa(lp1494
g38
(g42
S'D\x96I\xfby\xe5\x94?'
p1495
tp1496
Rp1497
aa(lp1498
g38
(g42
S"\xb7\x99(\x0b'\x7f\xa2?"
p1499
tp1500
Rp1501
aa(lp1502
g38
(g42
S'T\xef\xfb?\xb9\x9d\x9b?'
p1503
tp1504
Rp1505
aa(lp1506
g38
(g42
S'\x8c\xdbn\xc3\x8bx\xac?'
p1507
tp1508
Rp1509
aa(lp1510
g38
(g42
S'YBJ\x16\xf9P\x96?'
p1511
tp1512
Rp1513
aa(lp1514
g38
(g42
S'\xb0\xad\xa8:\x03n\x99?'
p1515
tp1516
Rp1517
aa(lp1518
g38
(g42
S'\x0f\x99\x12\xe7\x95\xfa\x95?'
p1519
tp1520
Rp1521
aa(lp1522
g38
(g42
S'\x14@\xd59\rv\x94?'
p1523
tp1524
Rp1525
aa(lp1526
g38
(g42
S'\xca\x01Pfp\xa0\x9e?'
p1527
tp1528
Rp1529
aa(lp1530
g38
(g42
S'4\xf6\x9d\xe2PQ\x8b?'
p1531
tp1532
Rp1533
aa(lp1534
g38
(g42
S'\xfeY\x15e[\xce\x88?'
p1535
tp1536
Rp1537
aa(lp1538
g38
(g42
S'\x91\x0c\xc7:!g\xab?'
p1539
tp1540
Rp1541
aa(lp1542
g38
(g42
S'\x8ec\xdbQ\x9e\xf3\xa7?'
p1543
tp1544
Rp1545
aasg164
(lp1546
(lp1547
g38
(g42
S'\xb1}>\x977}i?'
p1548
tp1549
Rp1550
aag1547
a(lp1551
g38
(g42
S'\xc3}\xd3\x96\x8c\x92g?'
p1552
tp1553
Rp1554
aa(lp1555
g38
(g42
S'9\xffh\xa3d\x1ep?'
p1556
tp1557
Rp1558
aa(lp1559
g38
(g42
S'\x8e\x14\xf5\xe5=\xd4a?'
p1560
tp1561
Rp1562
aa(lp1563
g38
(g42
S'\x97%3\x9c\xce\xa7r?'
p1564
tp1565
Rp1566
aa(lp1567
g38
(g42
S'r\x80\x90\xbc\xfbu@?'
p1568
tp1569
Rp1570
aa(lp1571
g38
(g42
S'\x95\xb1\xf1\xfb\xaaME?'
p1572
tp1573
Rp1574
aa(lp1575
g38
(g42
S'\xe1&\x03>\xd7\x19s?'
p1576
tp1577
Rp1578
aa(lp1579
g38
(g42
S'\x96%\x94\xde\xb0Sb?'
p1580
tp1581
Rp1582
aa(lp1583
g38
(g42
S'\x06\x15hXb%u?'
p1584
tp1585
Rp1586
aa(lp1587
g38
(g42
S'$\xc1\x94+\xe8\xf7R?'
p1588
tp1589
Rp1590
aa(lp1591
g38
(g42
S'\x9d\xc6\x87s\x88\x01_?'
p1592
tp1593
Rp1594
aa(lp1595
g38
(g42
S'/\xedB\xd2T\x95X?'
p1596
tp1597
Rp1598
aa(lp1599
g38
(g42
S'\x9f\\\x96\xdeq\xb6@?'
p1600
tp1601
Rp1602
aa(lp1603
g38
(g42
S'\x9c\xeb\xc0\xe8m\xe4)?'
p1604
tp1605
Rp1606
aa(lp1607
g38
(g42
S'\x00\xbb\xd6\x048Z\xb8?'
p1608
tp1609
Rp1610
aa(lp1611
g38
(g42
S'kD\xbe\xb3\x8f\xc6\\?'
p1612
tp1613
Rp1614
aa(lp1615
g38
(g42
S'\xf7|\xb5\xd3\xbd\xb6S?'
p1616
tp1617
Rp1618
aa(lp1619
g38
(g42
S'\xe8\xcf4\xc7\x15P}?'
p1620
tp1621
Rp1622
aa(lp1623
g38
(g42
S'\xd6\xe0?b\x99d\x9a?'
p1624
tp1625
Rp1626
aa(lp1627
g38
(g42
S'\x90{\x14\xd5\xe5\xd7Y?'
p1628
tp1629
Rp1630
aa(lp1631
g38
(g42
S'\xb3\x11\x16\xc1^\xab\x80?'
p1632
tp1633
Rp1634
aa(lp1635
g38
(g42
S'K/\x13\xf4\x7f\xc2l?'
p1636
tp1637
Rp1638
aa(lp1639
g38
(g42
S'\x9d\xe7\x06\x1a\x84\x98m?'
p1640
tp1641
Rp1642
aa(lp1643
g38
(g42
S'\xc8\x88jM\xdb\x93\x85?'
p1644
tp1645
Rp1646
aa(lp1647
g38
(g42
S'o!J\n\xd3[b?'
p1648
tp1649
Rp1650
aa(lp1651
g38
(g42
S'GO%5\x14<x?'
p1652
tp1653
Rp1654
aa(lp1655
g38
(g42
S'\x11cO\r\xb3\xf5f?'
p1656
tp1657
Rp1658
aa(lp1659
g38
(g42
S'\xcedy\xda\x17u3?'
p1660
tp1661
Rp1662
aa(lp1663
g38
(g42
S':Xx\x85\xab\xefB?'
p1664
tp1665
Rp1666
aasg286
(lp1667
F2.6122500896453857
aF2.6122500896453857
aF2.565303087234497
aF2.478950023651123
aF2.407663106918335
aF2.536418914794922
aF2.44999098777771
aF2.528792142868042
aF2.4456770420074463
aF2.3907060623168945
aF2.400632858276367
aF2.428349018096924
aF2.3428540229797363
aF2.5900380611419678
aF2.4406440258026123
aF2.447195053100586
aF2.4706218242645264
aF2.481482982635498
aF2.687037944793701
aF2.5348191261291504
aF2.5626840591430664
aF2.6149699687957764
aF2.3699657917022705
aF2.5292508602142334
aF2.4829118251800537
aF2.5320088863372803
aF2.4978511333465576
aF2.5178141593933105
aF2.597334146499634
aF2.5210609436035156
aF2.469148874282837
assS'SS-D'
p1668
(dp1669
g3
(lp1670
(lp1671
I50
aag1671
a(lp1672
I50
aa(lp1673
I50
aa(lp1674
I50
aa(lp1675
I50
aa(lp1676
I50
aa(lp1677
I50
aa(lp1678
I50
aa(lp1679
I50
aa(lp1680
I50
aa(lp1681
I50
aa(lp1682
I50
aa(lp1683
I50
aa(lp1684
I50
aa(lp1685
I50
aa(lp1686
I50
aa(lp1687
I50
aa(lp1688
I50
aa(lp1689
I50
aa(lp1690
I50
aa(lp1691
I50
aa(lp1692
I50
aa(lp1693
I50
aa(lp1694
I50
aa(lp1695
I50
aa(lp1696
I50
aa(lp1697
I50
aa(lp1698
I50
aa(lp1699
I50
aa(lp1700
I50
aasg35
(lp1701
(lp1702
g38
(g42
S'\x04\x95"\x8d\xcc\xf8\xa2?'
p1703
tp1704
Rp1705
aag1702
a(lp1706
g38
(g42
S'\x87y\x9d\xcdD\x1e\xa0?'
p1707
tp1708
Rp1709
aa(lp1710
g38
(g42
S'\xdf\xf7d\x08FY\xb6?'
p1711
tp1712
Rp1713
aa(lp1714
g38
(g42
S'\xc7\xcd\xd1`\xe2x\xa4?'
p1715
tp1716
Rp1717
aa(lp1718
g38
(g42
S'\xb9\xeas\xf0KY\xb6?'
p1719
tp1720
Rp1721
aa(lp1722
g38
(g42
S')(%\x17\xf8p\xb1?'
p1723
tp1724
Rp1725
aa(lp1726
g38
(g42
S'a\x80!\x7f\xf3\xc6\xa0?'
p1727
tp1728
Rp1729
aa(lp1730
g38
(g42
S'Y\x9c\xa0m\xc3J\xb2?'
p1731
tp1732
Rp1733
aa(lp1734
g38
(g42
S'\xf91r\x04\xad\xa4\xa5?'
p1735
tp1736
Rp1737
aa(lp1738
g38
(g42
S'\x1c\n\xb1B&x\x9b?'
p1739
tp1740
Rp1741
aa(lp1742
g38
(g42
S'7A*\xee\xca"\xb0?'
p1743
tp1744
Rp1745
aa(lp1746
g38
(g42
S':\xab\xf2_\x9e\xe4\xa9?'
p1747
tp1748
Rp1749
aa(lp1750
g38
(g42
S'&\xad\x95\x1a\xcd\xdf\xa0?'
p1751
tp1752
Rp1753
aa(lp1754
g38
(g42
S'\xa0\xea\xfb\x89\xc4y\xa7?'
p1755
tp1756
Rp1757
aa(lp1758
g38
(g42
S'\xe3\xec\xba\xf0\xae\x12\xa7?'
p1759
tp1760
Rp1761
aa(lp1762
g38
(g42
S'BI\x89\xd8\xb5\x9a\xa4?'
p1763
tp1764
Rp1765
aa(lp1766
g38
(g42
S'\x97\xa3\xe3\x1c\xff\x1f\xaf?'
p1767
tp1768
Rp1769
aa(lp1770
g38
(g42
S'?\xf8\xfa0\x95\xc4\x90?'
p1771
tp1772
Rp1773
aa(lp1774
g38
(g42
S'\xd3\x86\x12\xc7"\xa5\x8f?'
p1775
tp1776
Rp1777
aa(lp1778
g38
(g42
S'\xba\x9d\xad\xd3\xed\xd7\xa0?'
p1779
tp1780
Rp1781
aa(lp1782
g38
(g42
S'\xcb\xc3&*\xeb=\xab?'
p1783
tp1784
Rp1785
aa(lp1786
g38
(g42
S'o\n\xcb\xb6\xac\xde\xa0?'
p1787
tp1788
Rp1789
aa(lp1790
g38
(g42
S'\xc6\x9d`\xe5\x8d\xac\xa9?'
p1791
tp1792
Rp1793
aa(lp1794
g38
(g42
S'\xb5\x99\x1e\x12\xc4\xcc\xa6?'
p1795
tp1796
Rp1797
aa(lp1798
g38
(g42
S'\xca\xcd\xdd}\x1a\xb0\xa0?'
p1799
tp1800
Rp1801
aa(lp1802
g38
(g42
S'\xfe\x96\xd6@s#\xaa?'
p1803
tp1804
Rp1805
aa(lp1806
g38
(g42
S'\xee|\xdeq\x19^\x9a?'
p1807
tp1808
Rp1809
aa(lp1810
g38
(g42
S'&\xbb\x91\xb4~\x05\x8d?'
p1811
tp1812
Rp1813
aa(lp1814
g38
(g42
S'\xce\xe3\xa1\xbdU\xb0}?'
p1815
tp1816
Rp1817
aa(lp1818
g38
(g42
S'\xa2\r\xed\x8a\x83j\x9e?'
p1819
tp1820
Rp1821
aasg164
(lp1822
(lp1823
g38
(g42
S'\xfd{\xaa73\xbfy?'
p1824
tp1825
Rp1826
aag1823
a(lp1827
g38
(g42
S'(\xa8tz\xd4O\x90?'
p1828
tp1829
Rp1830
aa(lp1831
g38
(g42
S'X7k\xec\xd8<\x14?'
p1832
tp1833
Rp1834
aa(lp1835
g38
(g42
S'Z\x14\n\xb4\xfe-\xac?'
p1836
tp1837
Rp1838
aa(lp1839
g38
(g42
S'X7k\xec\xd8<\x14?'
p1840
tp1841
Rp1842
aa(lp1843
g38
(g42
S'\x8b\x9d\xb1\n \x90\xd9>'
p1844
tp1845
Rp1846
aa(lp1847
g38
(g42
S'\x02\xfe\xff\xe1\xfcK\x92?'
p1848
tp1849
Rp1850
aa(lp1851
g38
(g42
S'\xf7\xbbgdU\x9f\x18?'
p1852
tp1853
Rp1854
aa(lp1855
g38
(g42
S'\xf6\xd03\xe1\xff\x8e\x92?'
p1856
tp1857
Rp1858
aa(lp1859
g38
(g42
S'\x06\xda\x18R\xfe\x06a?'
p1860
tp1861
Rp1862
aa(lp1863
g38
(g42
S'\xb3I\xf3\xd2A\xac\xff>'
p1864
tp1865
Rp1866
aa(lp1867
g38
(g42
S"G3\xf0\x9c'\x94@?"
p1868
tp1869
Rp1870
aa(lp1871
g38
(g42
S'g\xd6Z\xb0h_\x96?'
p1872
tp1873
Rp1874
aa(lp1875
g38
(g42
S"\xc5\xbc\x8d\x83\xca\xcc'?"
p1876
tp1877
Rp1878
aa(lp1879
g38
(g42
S'\xea\xae\xe0wrF\xa6?'
p1880
tp1881
Rp1882
aa(lp1883
g38
(g42
S'm\xcb2\xb7\xadk\x00?'
p1884
tp1885
Rp1886
aa(lp1887
g38
(g42
S'\x08\x12\x94\x13[\r\x17?'
p1888
tp1889
Rp1890
aa(lp1891
g38
(g42
S'\xc2D\xd0\xe7Q\xa2\xa9?'
p1892
tp1893
Rp1894
aa(lp1895
g38
(g42
S'\x8d\xd1\xf3\xbbj\x13\x91?'
p1896
tp1897
Rp1898
aa(lp1899
g38
(g42
S'\x0e;\xfb\x1d\x90Ja?'
p1900
tp1901
Rp1902
aa(lp1903
g38
(g42
S'\xee\xe1w\x84\x9fB5?'
p1904
tp1905
Rp1906
aa(lp1907
g38
(g42
S'\xd8\\\xf9\x14L\x01g?'
p1908
tp1909
Rp1910
aa(lp1911
g38
(g42
S'\x83Q\xa2\xd2\xbf\xba\x13?'
p1912
tp1913
Rp1914
aa(lp1915
g38
(g42
S'\x1b\x99\x8c=\x90\xc3"?'
p1916
tp1917
Rp1918
aa(lp1919
g38
(g42
S'a<[\xc9SG`?'
p1920
tp1921
Rp1922
aa(lp1923
g38
(g42
S'\xf6*\xday\xf8~B?'
p1924
tp1925
Rp1926
aa(lp1927
g38
(g42
S'\xe0N\x08Y\xed5\x90?'
p1928
tp1929
Rp1930
aa(lp1931
g38
(g42
S'\xbas\x0e\xd9S\xfa\x86?'
p1932
tp1933
Rp1934
aa(lp1935
g38
(g42
S'\x16\x12\x9ev\x15\x05g?'
p1936
tp1937
Rp1938
aa(lp1939
g38
(g42
S'\xc5\xf4\x90\xe6\xfb\xbcp?'
p1940
tp1941
Rp1942
aasg286
(lp1943
F0.6730120182037354
aF0.6730120182037354
aF0.6867351531982422
aF0.6891069412231445
aF0.7321898937225342
aF0.717797040939331
aF0.7376129627227783
aF0.704941987991333
aF0.66851806640625
aF0.665294885635376
aF0.6644978523254395
aF0.6662979125976562
aF0.6680600643157959
aF0.71726393699646
aF0.6854248046875
aF0.7251639366149902
aF0.7049870491027832
aF0.7099330425262451
aF0.6979351043701172
aF0.6405501365661621
aF0.6823720932006836
aF0.6600611209869385
aF0.6660850048065186
aF0.7633039951324463
aF0.7155749797821045
aF0.7051529884338379
aF0.6733181476593018
aF0.716670036315918
aF0.7004649639129639
aF0.6935060024261475
aF0.7287659645080566
assS'SS-G'
p1944
(dp1945
g3
(lp1946
(lp1947
I50
aag1947
a(lp1948
I50
aa(lp1949
I50
aa(lp1950
I50
aa(lp1951
I50
aa(lp1952
I50
aa(lp1953
I50
aa(lp1954
I50
aa(lp1955
I50
aa(lp1956
I50
aa(lp1957
I50
aa(lp1958
I50
aa(lp1959
I50
aa(lp1960
I50
aa(lp1961
I50
aa(lp1962
I50
aa(lp1963
I50
aa(lp1964
I50
aa(lp1965
I50
aa(lp1966
I50
aa(lp1967
I50
aa(lp1968
I50
aa(lp1969
I50
aa(lp1970
I50
aa(lp1971
I50
aa(lp1972
I50
aa(lp1973
I50
aa(lp1974
I50
aa(lp1975
I50
aa(lp1976
I50
aasg35
(lp1977
(lp1978
g38
(g42
S'\x02u,5Q\x83\xc2?'
p1979
tp1980
Rp1981
aag1978
a(lp1982
g38
(g42
S'.\x02&6\xe0\xf6\x84?'
p1983
tp1984
Rp1985
aa(lp1986
g38
(g42
S'# \xc1o\x06,\x9c?'
p1987
tp1988
Rp1989
aa(lp1990
g38
(g42
S'\xde\xfbF\xc0\xe6\xed\x80?'
p1991
tp1992
Rp1993
aa(lp1994
g38
(g42
S'\xe9X\xd7vF\x8f\xc1?'
p1995
tp1996
Rp1997
aa(lp1998
g38
(g42
S'\x11\x9fw\xda\xeb\x85\x9c?'
p1999
tp2000
Rp2001
aa(lp2002
g38
(g42
S'`\xe3s)8-\xb0?'
p2003
tp2004
Rp2005
aa(lp2006
g38
(g42
S'\xa7n\x02\x03V"\xa7?'
p2007
tp2008
Rp2009
aa(lp2010
g38
(g42
S'\xa9\xe9\xb6s\xde\xf8\xa1?'
p2011
tp2012
Rp2013
aa(lp2014
g38
(g42
S'\xa9Q\x97\x04\xe2\xf1\xbc?'
p2015
tp2016
Rp2017
aa(lp2018
g38
(g42
S'\x99\x01\xfa,\xd7\xbe\xa7?'
p2019
tp2020
Rp2021
aa(lp2022
g38
(g42
S'\xf1\x04\xff\x99(\xf3\xa3?'
p2023
tp2024
Rp2025
aa(lp2026
g38
(g42
S'qO\x89\xf3|\x84\x97?'
p2027
tp2028
Rp2029
aa(lp2030
g38
(g42
S'uNHo\x7f\xf2\xae?'
p2031
tp2032
Rp2033
aa(lp2034
g38
(g42
S'\x1fT&T\x1fV\xc1?'
p2035
tp2036
Rp2037
aa(lp2038
g38
(g42
S'\x13\xf1\x98\x8fQ\x85\x91?'
p2039
tp2040
Rp2041
aa(lp2042
g38
(g42
S'f\xe6Rc\x8f\x05\x9d?'
p2043
tp2044
Rp2045
aa(lp2046
g38
(g42
S'\xdb\xb0\x85\x82[\x91\x9d?'
p2047
tp2048
Rp2049
aa(lp2050
g38
(g42
S'\xfd\xed\xcdu\xb6\xce\xa5?'
p2051
tp2052
Rp2053
aa(lp2054
g38
(g42
S'kQ\x15\x83P\xbe\xaf?'
p2055
tp2056
Rp2057
aa(lp2058
g38
(g42
S'\xad~\xb4t\xf6\xd4\x96?'
p2059
tp2060
Rp2061
aa(lp2062
g38
(g42
S'_\x1c\xe7\xd9L\xdc\xa5?'
p2063
tp2064
Rp2065
aa(lp2066
g38
(g42
S'\xde\xad\x8bc\xc8\xda\xc2?'
p2067
tp2068
Rp2069
aa(lp2070
g38
(g42
S'\xb8\x86\xba<\x85\xeb\x92?'
p2071
tp2072
Rp2073
aa(lp2074
g38
(g42
S'\nXBww\x93\x98?'
p2075
tp2076
Rp2077
aa(lp2078
g38
(g42
S'f\xe0]W#\x85\xbc?'
p2079
tp2080
Rp2081
aa(lp2082
g38
(g42
S'\xe82>\x1eB\x16\x9b?'
p2083
tp2084
Rp2085
aa(lp2086
g38
(g42
S'\xfe\xbb\xbf\x89g\x88\xa9?'
p2087
tp2088
Rp2089
aa(lp2090
g38
(g42
S'\xf9l\xa7\x80\xb1o\xa1?'
p2091
tp2092
Rp2093
aa(lp2094
g38
(g42
S'\x9f&-\xb7\x9c\x14\xc1?'
p2095
tp2096
Rp2097
aasg164
(lp2098
(lp2099
g38
(g42
S'\xe9\x7f\xd1\xa7\xba2\xe2>'
p2100
tp2101
Rp2102
aag2099
a(lp2103
g38
(g42
S'&\xd0Bp\xddt\x80?'
p2104
tp2105
Rp2106
aa(lp2107
g38
(g42
S'\x07%\x1fI@\xca\x83?'
p2108
tp2109
Rp2110
aa(lp2111
g38
(g42
S'\r\x96\xd7L\xe2Sr?'
p2112
tp2113
Rp2114
aa(lp2115
g38
(g42
S'\xa2\x0e\xe5*Fu,?'
p2116
tp2117
Rp2118
aa(lp2119
g38
(g42
S'p\xe6~@\x87\xd4\x97?'
p2120
tp2121
Rp2122
aa(lp2123
g38
(g42
S"\xc5}'\xe7\xfaxv?"
p2124
tp2125
Rp2126
aa(lp2127
g38
(g42
S'B\x14\xa8\xb3Q\x0b\x95?'
p2128
tp2129
Rp2130
aa(lp2131
g38
(g42
S'\xb1\xdbAQ\xaa\xe8t?'
p2132
tp2133
Rp2134
aa(lp2135
g38
(g42
S'\xfd\xceKw\x93L??'
p2136
tp2137
Rp2138
aa(lp2139
g38
(g42
S'\xe4\xc4\x19\xf4\x96\x1d\x95?'
p2140
tp2141
Rp2142
aa(lp2143
g38
(g42
S'be\xd9\xe0\xb8\x14\xa2?'
p2144
tp2145
Rp2146
aa(lp2147
g38
(g42
S'\xba\xea-J\xa3*A?'
p2148
tp2149
Rp2150
aa(lp2151
g38
(g42
S'\x08\x87a\x90\x18\x00s?'
p2152
tp2153
Rp2154
aa(lp2155
g38
(g42
S'[o\xb0UR\xe54?'
p2156
tp2157
Rp2158
aa(lp2159
g38
(g42
S']\x03\xb8\xf9\x98uy?'
p2160
tp2161
Rp2162
aa(lp2163
g38
(g42
S'[\xc3\xbe\xff\xde}\x97?'
p2164
tp2165
Rp2166
aa(lp2167
g38
(g42
S'\xfb\x0c\x01/\x04\xac\xa0?'
p2168
tp2169
Rp2170
aa(lp2171
g38
(g42
S'<z\x18\xc7,.\x92?'
p2172
tp2173
Rp2174
aa(lp2175
g38
(g42
S't\xe4\xf5COOk?'
p2176
tp2177
Rp2178
aa(lp2179
g38
(g42
S'\x1b\x14$e\xab3<?'
p2180
tp2181
Rp2182
aa(lp2183
g38
(g42
S'\x90\xefy\xa6\x04X\x90?'
p2184
tp2185
Rp2186
aa(lp2187
g38
(g42
S'\x00\x00\x00\x00\x00\x00\x00\x00'
p2188
tp2189
Rp2190
aa(lp2191
g38
(g42
S'H\x8dawy\t\x1b?'
p2192
tp2193
Rp2194
aa(lp2195
g38
(g42
S'w3\xcez\x89\x141?'
p2196
tp2197
Rp2198
aa(lp2199
g38
(g42
S'd[H*yI\x14?'
p2200
tp2201
Rp2202
aa(lp2203
g38
(g42
S'\xb8\xe5\x98g\xb9A;?'
p2204
tp2205
Rp2206
aa(lp2207
g38
(g42
S'\xf5\xe6k\xdd[\x0c\xa6?'
p2208
tp2209
Rp2210
aa(lp2211
g38
(g42
S'\xaf\xe3R\n\x9b\xa4\x8a?'
p2212
tp2213
Rp2214
aa(lp2215
g38
(g42
S'\x94\xb1\xe1\x0en@4?'
p2216
tp2217
Rp2218
aasg286
(lp2219
F0.6877899169921875
aF0.6877899169921875
aF0.7165048122406006
aF0.7315270900726318
aF0.7431790828704834
aF0.6998610496520996
aF0.7085199356079102
aF0.7175049781799316
aF0.6878218650817871
aF0.6989040374755859
aF0.7166240215301514
aF0.7120869159698486
aF0.6979889869689941
aF0.710521936416626
aF0.7230570316314697
aF0.701103925704956
aF0.7220978736877441
aF0.718224048614502
aF0.7113668918609619
aF0.7504301071166992
aF0.7244679927825928
aF0.7157571315765381
aF1.0421748161315918
aF1.0904309749603271
aF0.6992709636688232
aF0.7305729389190674
aF0.7328481674194336
aF0.702686071395874
aF0.7299301624298096
aF0.7291140556335449
aF0.7180759906768799
assS'SS-F'
p2220
(dp2221
g3
(lp2222
(lp2223
I50
aag2223
a(lp2224
I50
aa(lp2225
I50
aa(lp2226
I50
aa(lp2227
I50
aa(lp2228
I50
aa(lp2229
I50
aa(lp2230
I50
aa(lp2231
I50
aa(lp2232
I50
aa(lp2233
I50
aa(lp2234
I50
aa(lp2235
I50
aa(lp2236
I50
aa(lp2237
I50
aa(lp2238
I50
aa(lp2239
I50
aa(lp2240
I50
aa(lp2241
I50
aa(lp2242
I50
aa(lp2243
I50
aa(lp2244
I50
aa(lp2245
I50
aa(lp2246
I50
aa(lp2247
I50
aa(lp2248
I50
aa(lp2249
I50
aa(lp2250
I50
aa(lp2251
I50
aa(lp2252
I50
aasg35
(lp2253
(lp2254
g38
(g42
S'\xc6\xdd\x0eA\xca\xa7\xb2?'
p2255
tp2256
Rp2257
aag2254
a(lp2258
g38
(g42
S'\x89\x98Z\xbcU+g?'
p2259
tp2260
Rp2261
aa(lp2262
g38
(g42
S'\xe6\xaf\xf5\x9d\x1fM\x90?'
p2263
tp2264
Rp2265
aa(lp2266
g38
(g42
S'\x01&v\xef\xd3h\xad?'
p2267
tp2268
Rp2269
aa(lp2270
g38
(g42
S'\x9cQp\x96\xf6w|?'
p2271
tp2272
Rp2273
aa(lp2274
g38
(g42
S'\xa5\x04\x80\xe8&\xf8\x88?'
p2275
tp2276
Rp2277
aa(lp2278
g38
(g42
S'I\xbeolfK\xb4?'
p2279
tp2280
Rp2281
aa(lp2282
g38
(g42
S'OT\xc8\xf7\x88_\x94?'
p2283
tp2284
Rp2285
aa(lp2286
g38
(g42
S'\x95\xbcQ\xd9\xb7D\x98?'
p2287
tp2288
Rp2289
aa(lp2290
g38
(g42
S'\x19\x0e \xa6V \x83?'
p2291
tp2292
Rp2293
aa(lp2294
g38
(g42
S';\xaa\xc9n\xd8M\xb4?'
p2295
tp2296
Rp2297
aa(lp2298
g38
(g42
S':\x9c\xfb<\x89^\xb4?'
p2299
tp2300
Rp2301
aa(lp2302
g38
(g42
S'\x8aVO\xad\xcd\xe8\x8d?'
p2303
tp2304
Rp2305
aa(lp2306
g38
(g42
S'\x89`\x7f\x8du:x?'
p2307
tp2308
Rp2309
aa(lp2310
g38
(g42
S'Gi\x83\x19Y\xfe\xba?'
p2311
tp2312
Rp2313
aa(lp2314
g38
(g42
S'\xe2\xd3\x88\xd77!\x94?'
p2315
tp2316
Rp2317
aa(lp2318
g38
(g42
S'3\x9cO\xff\xb9(Y?'
p2319
tp2320
Rp2321
aa(lp2322
g38
(g42
S'FR\xdd\xb6\\\xa3\x9c?'
p2323
tp2324
Rp2325
aa(lp2326
g38
(g42
S'}\xdb\x87\x08\xad=\xad?'
p2327
tp2328
Rp2329
aa(lp2330
g38
(g42
S'\xdd\xa5\xf8\xfeK\x0b\xbd?'
p2331
tp2332
Rp2333
aa(lp2334
g38
(g42
S'\xffS\xd7i\xa5w\xaa?'
p2335
tp2336
Rp2337
aa(lp2338
g38
(g42
S'\x99\x82\xab\x9e \xb2\x91?'
p2339
tp2340
Rp2341
aa(lp2342
g38
(g42
S'\xcfEW\xe4\xdb\xadw?'
p2343
tp2344
Rp2345
aa(lp2346
g38
(g42
S'\x8eK{\xb1\x88(\x8f?'
p2347
tp2348
Rp2349
aa(lp2350
g38
(g42
S'\xc3\x8f;\xf6\x17\x13\xba?'
p2351
tp2352
Rp2353
aa(lp2354
g38
(g42
S'\xb1\x80\xfbuLGG?'
p2355
tp2356
Rp2357
aa(lp2358
g38
(g42
S'F"\x9dZ=\xe8\x92?'
p2359
tp2360
Rp2361
aa(lp2362
g38
(g42
S'\xae\x82$d\xcf\x06\xba?'
p2363
tp2364
Rp2365
aa(lp2366
g38
(g42
S'[\xebX\x170\x8d\x9b?'
p2367
tp2368
Rp2369
aa(lp2370
g38
(g42
S'a*{\xfc\xca\n\xb7?'
p2371
tp2372
Rp2373
aasg164
(lp2374
(lp2375
g38
(g42
S'\x9f\x8f|h\x1d\xe0\xbc>'
p2376
tp2377
Rp2378
aag2375
a(lp2379
g38
(g42
S'\x96w.\xee+\x08%?'
p2380
tp2381
Rp2382
aa(lp2383
g38
(g42
S'\xa8\xb8\xbaQ6\xbc\xa6?'
p2384
tp2385
Rp2386
aa(lp2387
g38
(g42
S'\x9a\x88K\xaeJ\xe6\x8f?'
p2388
tp2389
Rp2390
aa(lp2391
g38
(g42
S'\x99\xa20\x84E\xb0\x88?'
p2392
tp2393
Rp2394
aa(lp2395
g38
(g42
S'\xc8\xd9Z5\x13c\x8f?'
p2396
tp2397
Rp2398
aa(lp2399
g38
(g42
S'\xed8\xe6\xb4u\xc7>?'
p2400
tp2401
Rp2402
aa(lp2403
g38
(g42
S'.l\xa6U\xdb\x12\x8b?'
p2404
tp2405
Rp2406
aa(lp2407
g38
(g42
S'\xf7\x08\xc0\xf0\xbf\xa9\xa7?'
p2408
tp2409
Rp2410
aa(lp2411
g38
(g42
S'-\xd8y\xca\xbd}\x88?'
p2412
tp2413
Rp2414
aa(lp2415
g38
(g42
S'\xaa\xd3\x9fl\xa4-8?'
p2416
tp2417
Rp2418
aa(lp2419
g38
(g42
S'\xf2g\x84\xe2\xee\x85=?'
p2420
tp2421
Rp2422
aa(lp2423
g38
(g42
S'\x85\xde\xffG\x84R\x96?'
p2424
tp2425
Rp2426
aa(lp2427
g38
(g42
S'@O\x06\x1fx\x9d:?'
p2428
tp2429
Rp2430
aa(lp2431
g38
(g42
S'\x0c\x0f3\x13aM ?'
p2432
tp2433
Rp2434
aa(lp2435
g38
(g42
S'f\xc3\x1f\x8c\x13\xb1\x9d?'
p2436
tp2437
Rp2438
aa(lp2439
g38
(g42
S'\x00\x00\x00\x00\x00\x00\x00\x00'
p2440
tp2441
Rp2442
aa(lp2443
g38
(g42
S'\x91\xc5\x93\x13p\xfc\x9f?'
p2444
tp2445
Rp2446
aa(lp2447
g38
(g42
S'\xcc\xafG#L+\x91?'
p2448
tp2449
Rp2450
aa(lp2451
g38
(g42
S'T\xde\x9b\xc7mz\xc6>'
p2452
tp2453
Rp2454
aa(lp2455
g38
(g42
S'O\x16\xb4c\x12R\x8a?'
p2456
tp2457
Rp2458
aa(lp2459
g38
(g42
S'\x9c\x1c\x13\xeaO3\x97?'
p2460
tp2461
Rp2462
aa(lp2463
g38
(g42
S'\x9b\x10c%\xf6{|?'
p2464
tp2465
Rp2466
aa(lp2467
g38
(g42
S'\xb2d}\x9e\xf0\xbe\x9a?'
p2468
tp2469
Rp2470
aa(lp2471
g38
(g42
S'\xa3r8\x11^E0?'
p2472
tp2473
Rp2474
aa(lp2475
g38
(g42
S'\xad\x04T5\xa2|\n?'
p2476
tp2477
Rp2478
aa(lp2479
g38
(g42
S'@{\x99\xf2Q\xed\x98?'
p2480
tp2481
Rp2482
aa(lp2483
g38
(g42
S"p\xf7\\\x08'27?"
p2484
tp2485
Rp2486
aa(lp2487
g38
(g42
S'{^)M+\x17\x9e?'
p2488
tp2489
Rp2490
aa(lp2491
g38
(g42
S'\xcd\x9f\x80\x91\x96\xf3)?'
p2492
tp2493
Rp2494
aasg286
(lp2495
F0.6557159423828125
aF0.6557159423828125
aF0.6527001857757568
aF0.6984179019927979
aF0.6913180351257324
aF0.7075049877166748
aF0.6999340057373047
aF0.7179388999938965
aF0.7020478248596191
aF0.6864931583404541
aF0.7330129146575928
aF0.7287611961364746
aF0.6910648345947266
aF0.7125899791717529
aF0.7266490459442139
aF0.6578850746154785
aF0.6844959259033203
aF0.7009458541870117
aF0.6784389019012451
aF0.7717080116271973
aF0.7797188758850098
aF0.7857370376586914
aF0.7914729118347168
aF0.6799571514129639
aF0.6837341785430908
aF0.69576096534729
aF0.6697201728820801
aF0.6954870223999023
aF0.669478178024292
aF0.6892938613891602
aF0.6951169967651367
assS'SS-A'
p2496
(dp2497
g3
(lp2498
(lp2499
I50
aag2499
a(lp2500
I50
aa(lp2501
I50
aa(lp2502
I50
aa(lp2503
I50
aa(lp2504
I50
aa(lp2505
I50
aa(lp2506
I50
aa(lp2507
I50
aa(lp2508
I50
aa(lp2509
I50
aa(lp2510
I50
aa(lp2511
I50
aa(lp2512
I50
aa(lp2513
I50
aa(lp2514
I50
aa(lp2515
I50
aa(lp2516
I50
aa(lp2517
I50
aa(lp2518
I50
aa(lp2519
I50
aa(lp2520
I50
aa(lp2521
I50
aa(lp2522
I50
aa(lp2523
I50
aa(lp2524
I50
aa(lp2525
I50
aa(lp2526
I50
aa(lp2527
I50
aa(lp2528
I50
aasg35
(lp2529
(lp2530
g38
(g42
S'9\xb0\xa8\xa5C\x8f\x10?'
p2531
tp2532
Rp2533
aag2530
a(lp2534
g38
(g42
S'Y\x078\xb3*x\x87>'
p2535
tp2536
Rp2537
aa(lp2538
g38
(g42
S'\xf3}\x86jc6\n?'
p2539
tp2540
Rp2541
aa(lp2542
g38
(g42
S'\x00\x00\x00\x00\x00\x00\x00\x00'
p2543
tp2544
Rp2545
aa(lp2546
g38
(g42
S'\xd7c\xc0\xeb\x8e\xa5\t?'
p2547
tp2548
Rp2549
aa(lp2550
g38
(g42
S'\x0b\xb0\xaa?TI6?'
p2551
tp2552
Rp2553
aa(lp2554
g38
(g42
S'\x00\x00\x00\x00\x00\x00\x00\x00'
p2555
tp2556
Rp2557
aa(lp2558
g38
(g42
S'\x00\x00\x00\x00\x00\x00\x00\x00'
p2559
tp2560
Rp2561
aa(lp2562
g38
(g42
S'\xd7c\xc0\xeb\x8e\xa5\t?'
p2563
tp2564
Rp2565
aa(lp2566
g38
(g42
S'\x00\x00\x00\x00\x00\x00\x00\x00'
p2567
tp2568
Rp2569
aa(lp2570
g38
(g42
S'p\xf2C~\xe1\xe3\xed>'
p2571
tp2572
Rp2573
aa(lp2574
g38
(g42
S'\xe1\x8f\xb4\xbcI\x90(?'
p2575
tp2576
Rp2577
aa(lp2578
g38
(g42
S'\x00\x00\x00\x00\x00\x00\x00\x00'
p2579
tp2580
Rp2581
aa(lp2582
g38
(g42
S'p\xf2C~\xe1\xe3\xed>'
p2583
tp2584
Rp2585
aa(lp2586
g38
(g42
S'@\x1d\xac\x8eI\xe4\x06?'
p2587
tp2588
Rp2589
aa(lp2590
g38
(g42
S'9\xb0\xa8\xa5C\x8f\x10?'
p2591
tp2592
Rp2593
aa(lp2594
g38
(g42
S'{9\xd1bSnD?'
p2595
tp2596
Rp2597
aa(lp2598
g38
(g42
S'\x00\x00\x00\x00\x00\x00\x00\x00'
p2599
tp2600
Rp2601
aa(lp2602
g38
(g42
S'\xdf\x9bs\x16\x07\xbd\t?'
p2603
tp2604
Rp2605
aa(lp2606
g38
(g42
S'\xf4c/\x04\x11\xdf5?'
p2607
tp2608
Rp2609
aa(lp2610
g38
(g42
S'w\x12\xc3\x8aa8<?'
p2611
tp2612
Rp2613
aa(lp2614
g38
(g42
S'9\xb0\xa8\xa5C\x8f\x10?'
p2615
tp2616
Rp2617
aa(lp2618
g38
(g42
S'\x90X\xcd O\xc8{?'
p2619
tp2620
Rp2621
aa(lp2622
g38
(g42
S'\x95\xa4\xf1 \x1b;\x1a?'
p2623
tp2624
Rp2625
aa(lp2626
g38
(g42
S'\x00\x00\x00\x00\x00\x00\x00\x00'
p2627
tp2628
Rp2629
aa(lp2630
g38
(g42
S'\xd5\x88\x1dh<\x18E?'
p2631
tp2632
Rp2633
aa(lp2634
g38
(g42
S'9\xb0\xa8\xa5C\x8f\x10?'
p2635
tp2636
Rp2637
aa(lp2638
g38
(g42
S'HA6^\xa2\xd6\xfe>'
p2639
tp2640
Rp2641
aa(lp2642
g38
(g42
S'\x83\xed\xb1\xf3\x145;?'
p2643
tp2644
Rp2645
aa(lp2646
g38
(g42
S'%<\x90~5\x83\x16?'
p2647
tp2648
Rp2649
aasg164
(lp2650
(lp2651
g38
(g42
S'\xd4\xf5\xb2\x1e\xe9j\xf6>'
p2652
tp2653
Rp2654
aag2651
a(lp2655
g38
(g42
S'\xea\x9d\xcc\x9eQ\xb1\xe6>'
p2656
tp2657
Rp2658
aa(lp2659
g38
(g42
S'\xc6.\xbf\xa3.X^?'
p2660
tp2661
Rp2662
aa(lp2663
g38
(g42
S'\x00\x00\x00\x00\x00\x00\x00\x00'
p2664
tp2665
Rp2666
aa(lp2667
g38
(g42
S'\x00\x00\x00\x00\x00\x00\x00\x00'
p2668
tp2669
Rp2670
aa(lp2671
g38
(g42
S'\xaa\x94FOf0M?'
p2672
tp2673
Rp2674
aa(lp2675
g38
(g42
S'\x00\x00\x00\x00\x00\x00\x00\x00'
p2676
tp2677
Rp2678
aa(lp2679
g38
(g42
S'\x00\x00\x00\x00\x00\x00\x00\x00'
p2680
tp2681
Rp2682
aa(lp2683
g38
(g42
S'\x00\x00\x00\x00\x00\x00\x00\x00'
p2684
tp2685
Rp2686
aa(lp2687
g38
(g42
S'\x00\x00\x00\x00\x00\x00\x00\x00'
p2688
tp2689
Rp2690
aa(lp2691
g38
(g42
S'p\xf2C~\xe1\xe3\xed>'
p2692
tp2693
Rp2694
aa(lp2695
g38
(g42
S'\xe6/1\x91UtT?'
p2696
tp2697
Rp2698
aa(lp2699
g38
(g42
S'\x00\x00\x00\x00\x00\x00\x00\x00'
p2700
tp2701
Rp2702
aa(lp2703
g38
(g42
S'p\xf2C~\xe1\xe3\xed>'
p2704
tp2705
Rp2706
aa(lp2707
g38
(g42
S'\xb3\xa7\xb6\xa5\xdf\x9a\x16?'
p2708
tp2709
Rp2710
aa(lp2711
g38
(g42
S'\xd4\xf5\xb2\x1e\xe9j\xf6>'
p2712
tp2713
Rp2714
aa(lp2715
g38
(g42
S'\xcd\xd6\x8c\xc8 \x96X?'
p2716
tp2717
Rp2718
aa(lp2719
g38
(g42
S'\x00\x00\x00\x00\x00\x00\x00\x00'
p2720
tp2721
Rp2722
aa(lp2723
g38
(g42
S'\x8d\xd2\x10)\xc2A\xee>'
p2724
tp2725
Rp2726
aa(lp2727
g38
(g42
S'\x81#ZL\x19c!?'
p2728
tp2729
Rp2730
aa(lp2731
g38
(g42
S'\xfaB0\x14O3g?'
p2732
tp2733
Rp2734
aa(lp2735
g38
(g42
S'\xd4\xf5\xb2\x1e\xe9j\xf6>'
p2736
tp2737
Rp2738
aa(lp2739
g38
(g42
S'#y\x94\xa7Q\xces?'
p2740
tp2741
Rp2742
aa(lp2743
g38
(g42
S'\x00,\x9a\x80}\x1c\x14?'
p2744
tp2745
Rp2746
aa(lp2747
g38
(g42
S'\x00\x00\x00\x00\x00\x00\x00\x00'
p2748
tp2749
Rp2750
aa(lp2751
g38
(g42
S'm\xea\t\xe1\xb7\xd8c?'
p2752
tp2753
Rp2754
aa(lp2755
g38
(g42
S'\xd4\xf5\xb2\x1e\xe9j\xf6>'
p2756
tp2757
Rp2758
aa(lp2759
g38
(g42
S'<\x13D1\xf8\xb9\xe2>'
p2760
tp2761
Rp2762
aa(lp2763
g38
(g42
S"wtT\x13\xa9\xd4'?"
p2764
tp2765
Rp2766
aa(lp2767
g38
(g42
S'\x90\xa5\xd0\xbc\x96\xe6U?'
p2768
tp2769
Rp2770
aasg286
(lp2771
F4.826420068740845
aF4.826420068740845
aF4.886974096298218
aF3.626720905303955
aF3.5002501010894775
aF3.313978910446167
aF3.2972960472106934
aF3.4387001991271973
aF3.3467719554901123
aF3.4960319995880127
aF3.417257070541382
aF3.4861531257629395
aF3.3609120845794678
aF4.942521095275879
aF3.384599208831787
aF3.2867159843444824
aF3.461826801300049
aF3.497483968734741
aF3.490852117538452
aF3.5460760593414307
aF3.586699962615967
aF3.3633158206939697
aF3.4162180423736572
aF3.5281620025634766
aF5.049794912338257
aF3.5350401401519775
aF3.5379068851470947
aF3.28938889503479
aF3.3696749210357666
aF3.5484402179718018
aF3.497955083847046
assS'SS-C'
p2772
(dp2773
g3
(lp2774
(lp2775
I50
aag2775
a(lp2776
I50
aa(lp2777
I50
aa(lp2778
I50
aa(lp2779
I50
aa(lp2780
I50
aa(lp2781
I50
aa(lp2782
I50
aa(lp2783
I50
aa(lp2784
I50
aa(lp2785
I50
aa(lp2786
I50
aa(lp2787
I50
aa(lp2788
I50
aa(lp2789
I50
aa(lp2790
I50
aa(lp2791
I50
aa(lp2792
I50
aa(lp2793
I50
aa(lp2794
I50
aa(lp2795
I50
aa(lp2796
I50
aa(lp2797
I50
aa(lp2798
I50
aa(lp2799
I50
aa(lp2800
I50
aa(lp2801
I50
aa(lp2802
I50
aa(lp2803
I50
aa(lp2804
I50
aasg35
(lp2805
(lp2806
g38
(g42
S'\x00\x00\x00\x00\x00\x00\x00\x00'
p2807
tp2808
Rp2809
aag2806
a(lp2810
g38
(g42
S'\x172\x17\xb1/;g?'
p2811
tp2812
Rp2813
aa(lp2814
g38
(g42
S'\x06\x9d\x0e\x9e"Ke?'
p2815
tp2816
Rp2817
aa(lp2818
g38
(g42
S'M\x01Cr\x8f\xc5g?'
p2819
tp2820
Rp2821
aa(lp2822
g38
(g42
S'\x8c~\r\xed\r\xeff?'
p2823
tp2824
Rp2825
aa(lp2826
g38
(g42
S'\xd0\xab\x06n\xe3He?'
p2827
tp2828
Rp2829
aa(lp2830
g38
(g42
S'\xeda\xbdD\xffYl?'
p2831
tp2832
Rp2833
aa(lp2834
g38
(g42
S'\xfd\xe8\xcfb6Ae?'
p2835
tp2836
Rp2837
aa(lp2838
g38
(g42
S'\x19n\xb2\x92\xfd>g?'
p2839
tp2840
Rp2841
aa(lp2842
g38
(g42
S'\xfeH`_\xd44e?'
p2843
tp2844
Rp2845
aa(lp2846
g38
(g42
S'M\x01Cr\x8f\xc5g?'
p2847
tp2848
Rp2849
aa(lp2850
g38
(g42
S'*,\x8eW\xc2#f?'
p2851
tp2852
Rp2853
aa(lp2854
g38
(g42
S'M\x01Cr\x8f\xc5g?'
p2855
tp2856
Rp2857
aa(lp2858
g38
(g42
S'\x00\x00\x00\x00\x00\x00\x00\x00'
p2859
tp2860
Rp2861
aa(lp2862
g38
(g42
S'\nc\xb0\xbb\x81Ib?'
p2863
tp2864
Rp2865
aa(lp2866
g38
(g42
S'\x00\x00\x00\x00\x00\x00\x00\x00'
p2867
tp2868
Rp2869
aa(lp2870
g38
(g42
S'\xa9jX\xd2\xb2xp?'
p2871
tp2872
Rp2873
aa(lp2874
g38
(g42
S'\x8f\x85\x8e\xa1#\x18e?'
p2875
tp2876
Rp2877
aa(lp2878
g38
(g42
S'\xfc\x0c\xc5}\x061e?'
p2879
tp2880
Rp2881
aa(lp2882
g38
(g42
S'\xd0\xab\x06n\xe3He?'
p2883
tp2884
Rp2885
aa(lp2886
g38
(g42
S'\x934\xc0\x92\x97;j?'
p2887
tp2888
Rp2889
aa(lp2890
g38
(g42
S'\xfeH`_\xd44e?'
p2891
tp2892
Rp2893
aa(lp2894
g38
(g42
S'\x8b\xbc\\\xf4|\x8f^?'
p2895
tp2896
Rp2897
aa(lp2898
g38
(g42
S'\x80\x83A\xef\xea\xd9f?'
p2899
tp2900
Rp2901
aa(lp2902
g38
(g42
S'1P\x9a\xc0\xd9\xbde?'
p2903
tp2904
Rp2905
aa(lp2906
g38
(g42
S'Y\x94\x86q\xe4\x15e?'
p2907
tp2908
Rp2909
aa(lp2910
g38
(g42
S'jw\x1cl\xfe\xf6c?'
p2911
tp2912
Rp2913
aa(lp2914
g38
(g42
S'^\xe1\xb3\xfb\x1c\x03g?'
p2915
tp2916
Rp2917
aa(lp2918
g38
(g42
S'\x00\x00\x00\x00\x00\x00\x00\x00'
p2919
tp2920
Rp2921
aa(lp2922
g38
(g42
S'\x94\xd2\xbb+\\\x05g?'
p2923
tp2924
Rp2925
aasg164
(lp2926
(lp2927
g38
(g42
S'\x00\x00\x00\x00\x00\x00\x00\x00'
p2928
tp2929
Rp2930
aag2927
a(lp2931
g38
(g42
S'A\xa7\x87Yq\xf3 ?'
p2932
tp2933
Rp2934
aa(lp2935
g38
(g42
S'N\xa5|\x9f9\xff0?'
p2936
tp2937
Rp2938
aa(lp2939
g38
(g42
S'6\x9ck\xaa:+6?'
p2940
tp2941
Rp2942
aa(lp2943
g38
(g42
S'\xa5Jl5\x16N-?'
p2944
tp2945
Rp2946
aa(lp2947
g38
(g42
S'\x0f\x03*\xe9\xd2\xb31?'
p2948
tp2949
Rp2950
aa(lp2951
g38
(g42
S'\x01&\xa3~\xa6\xd9\x13?'
p2952
tp2953
Rp2954
aa(lp2955
g38
(g42
S'\xd5\xeaKJ\x93\xd79?'
p2956
tp2957
Rp2958
aa(lp2959
g38
(g42
S'\x80\x15u\x82\xc2\xe1\x1a?'
p2960
tp2961
Rp2962
aa(lp2963
g38
(g42
S'\xd1\x17bg\xdar*?'
p2964
tp2965
Rp2966
aa(lp2967
g38
(g42
S'6\x9ck\xaa:+6?'
p2968
tp2969
Rp2970
aa(lp2971
g38
(g42
S'=\xe0e\x16\xfa\x9f0?'
p2972
tp2973
Rp2974
aa(lp2975
g38
(g42
S'V\xc7\xdc\x98\x1d>8?'
p2976
tp2977
Rp2978
aa(lp2979
g38
(g42
S'\x00\x00\x00\x00\x00\x00\x00\x00'
p2980
tp2981
Rp2982
aa(lp2983
g38
(g42
S'\xa0\xd3\x8a/\x9b\xa9(?'
p2984
tp2985
Rp2986
aa(lp2987
g38
(g42
S'\x00\x00\x00\x00\x00\x00\x00\x00'
p2988
tp2989
Rp2990
aa(lp2991
g38
(g42
S'\x00\x00\x00\x00\x00\x00\x00\x00'
p2992
tp2993
Rp2994
aa(lp2995
g38
(g42
S'8q\xcdLsq(?'
p2996
tp2997
Rp2998
aa(lp2999
g38
(g42
S'"eV\x1e\xc9\x960?'
p3000
tp3001
Rp3002
aa(lp3003
g38
(g42
S'\xcd\xcb\x1e\xf8\xf2h-?'
p3004
tp3005
Rp3006
aa(lp3007
g38
(g42
S'\xbe<\xe8\xc6\xb5Y`?'
p3008
tp3009
Rp3010
aa(lp3011
g38
(g42
S'\xd9R\x82y\xc8\n(?'
p3012
tp3013
Rp3014
aa(lp3015
g38
(g42
S'w\x13\xcaCY\xc7S?'
p3016
tp3017
Rp3018
aa(lp3019
g38
(g42
S'qC\xd7C\xad\xb1\x14?'
p3020
tp3021
Rp3022
aa(lp3023
g38
(g42
S'\xf8q\xab)\x16\xca2?'
p3024
tp3025
Rp3026
aa(lp3027
g38
(g42
S'\xb8\xd8\x11m\xc0\xfe+?'
p3028
tp3029
Rp3030
aa(lp3031
g38
(g42
S'=\xd8\x0f\xdc\x88\x13.?'
p3032
tp3033
Rp3034
aa(lp3035
g38
(g42
S'\xca\x03\xd1\xf1T\xd0(?'
p3036
tp3037
Rp3038
aa(lp3039
g38
(g42
S'\x00\x00\x00\x00\x00\x00\x00\x00'
p3040
tp3041
Rp3042
aa(lp3043
g38
(g42
S'w\xc6Rh[^/?'
p3044
tp3045
Rp3046
aasg286
(lp3047
F3.8059439659118652
aF3.8059439659118652
aF3.5797572135925293
aF4.730270147323608
aF4.810751914978027
aF4.110541105270386
aF4.049655914306641
aF4.081977128982544
aF4.169384956359863
aF3.9035909175872803
aF3.8546810150146484
aF3.9341518878936768
aF4.082747936248779
aF3.774954080581665
aF3.8624649047851562
aF3.823179006576538
aF3.9284679889678955
aF4.01269793510437
aF4.12074613571167
aF4.075634956359863
aF4.052080869674683
aF4.065403938293457
aF3.8255269527435303
aF4.050245046615601
aF3.62090802192688
aF3.765784978866577
aF3.813175916671753
aF3.847357988357544
aF3.966994047164917
aF4.728606939315796
aF4.7872960567474365
assS'SS-B'
p3048
(dp3049
g3
(lp3050
(lp3051
I50
aag3051
a(lp3052
I50
aa(lp3053
I50
aa(lp3054
I50
aa(lp3055
I50
aa(lp3056
I50
aa(lp3057
I50
aa(lp3058
I50
aa(lp3059
I50
aa(lp3060
I50
aa(lp3061
I50
aa(lp3062
I50
aa(lp3063
I50
aa(lp3064
I50
aa(lp3065
I50
aa(lp3066
I50
aa(lp3067
I50
aa(lp3068
I50
aa(lp3069
I50
aa(lp3070
I50
aa(lp3071
I50
aa(lp3072
I50
aa(lp3073
I50
aa(lp3074
I50
aa(lp3075
I50
aa(lp3076
I50
aa(lp3077
I50
aa(lp3078
I50
aa(lp3079
I50
aa(lp3080
I50
aasg35
(lp3081
(lp3082
g38
(g42
S')\x8d\x99u\xf2\x11V?'
p3083
tp3084
Rp3085
aag3082
a(lp3086
g38
(g42
S'\x03\xb4;\x8a7mL?'
p3087
tp3088
Rp3089
aa(lp3090
g38
(g42
S'Z\x98\xa0^9\xd4\x7f?'
p3091
tp3092
Rp3093
aa(lp3094
g38
(g42
S'\xadt\xa6v\xa8lI?'
p3095
tp3096
Rp3097
aa(lp3098
g38
(g42
S'\xadt\xa6v\xa8lI?'
p3099
tp3100
Rp3101
aa(lp3102
g38
(g42
S'\xaa\xccG\x0c\xbd\\\x86?'
p3103
tp3104
Rp3105
aa(lp3106
g38
(g42
S'\xabK\xb8\x9f\xc74\x80?'
p3107
tp3108
Rp3109
aa(lp3110
g38
(g42
S'pf\x17\xb3`\x01l?'
p3111
tp3112
Rp3113
aa(lp3114
g38
(g42
S"\xe6xy\xa2\xf2\xa5'?"
p3115
tp3116
Rp3117
aa(lp3118
g38
(g42
S'\x13\x8a\xe2\xdd\x8fEs?'
p3119
tp3120
Rp3121
aa(lp3122
g38
(g42
S'\xc3\xb6\x8b\xcb\xc2\x94\x88?'
p3123
tp3124
Rp3125
aa(lp3126
g38
(g42
S'pf\x17\xb3`\x01l?'
p3127
tp3128
Rp3129
aa(lp3130
g38
(g42
S'\x19;\xe4\xe0\xfa\xc4\x86?'
p3131
tp3132
Rp3133
aa(lp3134
g38
(g42
S'RuR\xadpm\x93?'
p3135
tp3136
Rp3137
aa(lp3138
g38
(g42
S"\x1b\xf0\xcd*\xe5\xc1'?"
p3139
tp3140
Rp3141
aa(lp3142
g38
(g42
S'Y\x04\xc4Bz\x98h?'
p3143
tp3144
Rp3145
aa(lp3146
g38
(g42
S'\xa7\x12\xd2\xa8l\xd5 ?'
p3147
tp3148
Rp3149
aa(lp3150
g38
(g42
S'8dY%\x9d\x89\x82?'
p3151
tp3152
Rp3153
aa(lp3154
g38
(g42
S'\x0c\x828\xfb\xbaQ\x86?'
p3155
tp3156
Rp3157
aa(lp3158
g38
(g42
S':t\xb7d\xf4)\x9b?'
p3159
tp3160
Rp3161
aa(lp3162
g38
(g42
S'\xc6\xe96\xc7^\x05\x80?'
p3163
tp3164
Rp3165
aa(lp3166
g38
(g42
S'\xf5Z\xfa\xb5\x04]l?'
p3167
tp3168
Rp3169
aa(lp3170
g38
(g42
S'\x829\x0e5\xd0\xd2r?'
p3171
tp3172
Rp3173
aa(lp3174
g38
(g42
S':U\xf4i\xc1L\x03?'
p3175
tp3176
Rp3177
aa(lp3178
g38
(g42
S'\xfe1U\xc0\xa1\xa5s?'
p3179
tp3180
Rp3181
aa(lp3182
g38
(g42
S'\xe1Q$\xce\xf9]\x87?'
p3183
tp3184
Rp3185
aa(lp3186
g38
(g42
S'\x93\xd4\xae\xca(\xa8`?'
p3187
tp3188
Rp3189
aa(lp3190
g38
(g42
S't\x903\x82\xd9ch?'
p3191
tp3192
Rp3193
aa(lp3194
g38
(g42
S'\x93\xd4\xae\xca(\xa8`?'
p3195
tp3196
Rp3197
aa(lp3198
g38
(g42
S'\xd0\x02\x98\x9b, x?'
p3199
tp3200
Rp3201
aasg164
(lp3202
(lp3203
g38
(g42
S'\x817\xf2[<\x14\x17?'
p3204
tp3205
Rp3206
aag3203
a(lp3207
g38
(g42
S'\x94\xfb\xe2\xd7\xb9\x03$?'
p3208
tp3209
Rp3210
aa(lp3211
g38
(g42
S'\xb9\xa2@\xa9o\xf3m?'
p3212
tp3213
Rp3214
aa(lp3215
g38
(g42
S'\x00\x00\x00\x00\x00\x00\x00\x00'
p3216
tp3217
Rp3218
aa(lp3219
g38
(g42
S'\x00\x00\x00\x00\x00\x00\x00\x00'
p3220
tp3221
Rp3222
aa(lp3223
g38
(g42
S'\xc9\xbd\xf6{\xc9X\x82?'
p3224
tp3225
Rp3226
aa(lp3227
g38
(g42
S'\xdf\x83i&;\x8ft?'
p3228
tp3229
Rp3230
aa(lp3231
g38
(g42
S'^y\xd4\xc3\x96\x05.?'
p3232
tp3233
Rp3234
aa(lp3235
g38
(g42
S"~|\xfb\xd9r\x87'?"
p3236
tp3237
Rp3238
aa(lp3239
g38
(g42
S'Y\t\xff\x07A\x94s?'
p3240
tp3241
Rp3242
aa(lp3243
g38
(g42
S'\xd85\x86\x1c\x12\xbdw?'
p3244
tp3245
Rp3246
aa(lp3247
g38
(g42
S'\xe4Z1\rA\x02A?'
p3248
tp3249
Rp3250
aa(lp3251
g38
(g42
S'\x11s\x0b+\xdc\x0c\x8c?'
p3252
tp3253
Rp3254
aa(lp3255
g38
(g42
S'\x00\x00\x00\x00\x00\x00\x00\x00'
p3256
tp3257
Rp3258
aa(lp3259
g38
(g42
S"\x80\x11e\x04b\xaa'?"
p3260
tp3261
Rp3262
aa(lp3263
g38
(g42
S'Shf\xe7\xeauh?'
p3264
tp3265
Rp3266
aa(lp3267
g38
(g42
S'^y\xd4\xc3\x96\x05\x1e?'
p3268
tp3269
Rp3270
aa(lp3271
g38
(g42
S'\x15\xe7a\x10\x9c\x85j?'
p3272
tp3273
Rp3274
aa(lp3275
g38
(g42
S'\x00\x00\x00\x00\x00\x00\x00\x00'
p3276
tp3277
Rp3278
aa(lp3279
g38
(g42
S'v\xd8\xc5\xf7\x7fZ\xac?'
p3280
tp3281
Rp3282
aa(lp3283
g38
(g42
S'\x0bh\x97H(\xa9n?'
p3284
tp3285
Rp3286
aa(lp3287
g38
(g42
S')p\x8c\x8a#\xd9C?'
p3288
tp3289
Rp3290
aa(lp3291
g38
(g42
S'\xff\xe9\xd4\xe2\xfb\x01B?'
p3292
tp3293
Rp3294
aa(lp3295
g38
(g42
S'\x00\x00\x00\x00\x00\x00\x00\x00'
p3296
tp3297
Rp3298
aa(lp3299
g38
(g42
S'K\x17K;\xd3\xb6h?'
p3300
tp3301
Rp3302
aa(lp3303
g38
(g42
S'\x9d_[$\x8b{\x80?'
p3304
tp3305
Rp3306
aa(lp3307
g38
(g42
S'\x00\x00\x00\x00\x00\x00\x00\x00'
p3308
tp3309
Rp3310
aa(lp3311
g38
(g42
S'\x817\xf2[<\x14\x17?'
p3312
tp3313
Rp3314
aa(lp3315
g38
(g42
S'\x00\x00\x00\x00\x00\x00\x00\x00'
p3316
tp3317
Rp3318
aa(lp3319
g38
(g42
S'\x83=\xb2{6\xcf\x7f?'
p3320
tp3321
Rp3322
aasg286
(lp3323
F0.5958502292633057
aF0.5958502292633057
aF0.7160279750823975
aF0.7016611099243164
aF0.7025308609008789
aF0.6976380348205566
aF0.6777069568634033
aF0.6516249179840088
aF0.6721398830413818
aF0.6920139789581299
aF0.6546368598937988
aF0.6825459003448486
aF0.692080020904541
aF0.7086300849914551
aF0.6716208457946777
aF0.7470319271087646
aF0.7270030975341797
aF0.7166340351104736
aF0.7441341876983643
aF0.7011508941650391
aF0.67901611328125
aF0.6765251159667969
aF0.7155730724334717
aF0.756615161895752
aF0.7061328887939453
aF0.7202801704406738
aF0.7381398677825928
aF0.7306170463562012
aF0.77370285987854
aF0.8352839946746826
aF0.7725098133087158
ass.