(dp0
S'wc-6d-c1_0.01'
p1
(lp2
(lp3
I221
aI111
aa(lp4
I121
aI61
aa(lp5
I319
aI160
aa(lp6
I147
aI74
aa(lp7
I229
aI115
aa(lp8
I63
aI32
aa(lp9
I105
aI53
aa(lp10
I321
aI161
aa(lp11
I341
aI171
aa(lp12
I291
aI146
aa(lp13
I605
aI303
aa(lp14
I177
aI89
aa(lp15
I297
aI149
aa(lp16
I79
aI40
aa(lp17
I635
aI318
aa(lp18
I259
aI130
aa(lp19
I1461
aI731
aa(lp20
I111
aI56
aa(lp21
I121
aI61
aa(lp22
I71
aI36
aa(lp23
I173
aI87
aa(lp24
I513
aI257
aa(lp25
I77
aI39
aa(lp26
I155
aI78
aa(lp27
I391
aI196
aa(lp28
I149
aI75
aa(lp29
I97
aI49
aa(lp30
I141
aI71
aa(lp31
I167
aI84
aa(lp32
I127
aI64
aa(lp33
I829
aI415
aa(lp34
I501
aI251
aa(lp35
I83
aI42
aa(lp36
I375
aI188
aa(lp37
I805
aI403
aa(lp38
I85
aI43
aa(lp39
I201
aI101
aa(lp40
I111
aI56
aa(lp41
I289
aI145
aa(lp42
I79
aI40
aasS'noc_cm_0.01'
p43
(lp44
(lp45
I157
aI79
aa(lp46
I29
aI15
aa(lp47
I47
aI24
aa(lp48
I61
aI31
aa(lp49
I25
aI13
aa(lp50
I55
aI28
aa(lp51
I49
aI25
aa(lp52
I37
aI19
aa(lp53
I35
aI18
aa(lp54
I79
aI40
aa(lp55
I105
aI53
aa(lp56
I27
aI14
aa(lp57
I33
aI17
aa(lp58
I41
aI21
aa(lp59
I27
aI14
aa(lp60
I25
aI13
aa(lp61
I31
aI16
aa(lp62
I29
aI15
aa(lp63
I47
aI24
aa(lp64
I49
aI25
aa(lp65
I35
aI18
aa(lp66
I35
aI18
aa(lp67
I45
aI23
aa(lp68
I123
aI62
aa(lp69
I37
aI19
aa(lp70
I89
aI45
aa(lp71
I55
aI28
aa(lp72
I83
aI42
aa(lp73
I79
aI40
aa(lp74
I31
aI16
aa(lp75
I23
aI12
aa(lp76
I33
aI17
aa(lp77
I35
aI18
aa(lp78
I191
aI96
aa(lp79
I117
aI59
aa(lp80
I49
aI25
aa(lp81
I31
aI16
aa(lp82
I33
aI17
aa(lp83
I83
aI42
aa(lp84
I161
aI81
aasS'wc+wc-3d-c4_0.01'
p85
(lp86
(lp87
I67
aI34
aa(lp88
I73
aI37
aa(lp89
I109
aI55
aa(lp90
I167
aI84
aa(lp91
I167
aI84
aa(lp92
I47
aI24
aa(lp93
I43
aI22
aa(lp94
I103
aI52
aa(lp95
I97
aI49
aa(lp96
I79
aI40
aa(lp97
I141
aI71
aa(lp98
I153
aI77
aa(lp99
I87
aI44
aa(lp100
I63
aI32
aa(lp101
I121
aI61
aa(lp102
I95
aI48
aa(lp103
I103
aI52
aa(lp104
I87
aI44
aa(lp105
I167
aI84
aa(lp106
I135
aI68
aa(lp107
I89
aI45
aa(lp108
I61
aI31
aa(lp109
I73
aI37
aa(lp110
I161
aI81
aa(lp111
I79
aI40
aa(lp112
I167
aI84
aa(lp113
I101
aI51
aa(lp114
I143
aI72
aa(lp115
I159
aI80
aa(lp116
I153
aI77
aa(lp117
I153
aI77
aa(lp118
I71
aI36
aa(lp119
I111
aI56
aa(lp120
I97
aI49
aa(lp121
I87
aI44
aa(lp122
I107
aI54
aa(lp123
I79
aI40
aa(lp124
I155
aI78
aa(lp125
I109
aI55
aa(lp126
I107
aI54
aasS'llvm_0.3'
p127
(lp128
(lp129
I23
aI12
aa(lp130
I25
aI13
aa(lp131
I29
aI15
aa(lp132
I27
aI14
aa(lp133
I109
aI55
aa(lp134
I27
aI14
aa(lp135
I27
aI14
aa(lp136
I81
aI41
aa(lp137
I31
aI16
aa(lp138
I31
aI16
aa(lp139
I23
aI12
aa(lp140
I25
aI13
aa(lp141
I23
aI12
aa(lp142
I35
aI18
aa(lp143
I71
aI36
aa(lp144
I25
aI13
aa(lp145
I47
aI24
aa(lp146
I37
aI19
aa(lp147
I63
aI32
aa(lp148
I43
aI22
aa(lp149
I37
aI19
aa(lp150
I27
aI14
aa(lp151
I29
aI15
aa(lp152
I25
aI13
aa(lp153
I27
aI14
aa(lp154
I39
aI20
aa(lp155
I31
aI16
aa(lp156
I41
aI21
aa(lp157
I55
aI28
aa(lp158
I31
aI16
aa(lp159
I33
aI17
aa(lp160
I27
aI14
aa(lp161
I29
aI15
aa(lp162
I29
aI15
aa(lp163
I27
aI14
aa(lp164
I27
aI14
aa(lp165
I29
aI15
aa(lp166
I33
aI17
aa(lp167
I31
aI16
aa(lp168
I27
aI14
aasS'noc_cm_0.3'
p169
(lp170
(lp171
I17
aI9
aa(lp172
I81
aI41
aa(lp173
I29
aI15
aa(lp174
I19
aI10
aa(lp175
I35
aI18
aa(lp176
I17
aI9
aa(lp177
I13
aI7
aa(lp178
I63
aI32
aa(lp179
I61
aI31
aa(lp180
I21
aI11
aa(lp181
I11
aI6
aa(lp182
I11
aI6
aa(lp183
I33
aI17
aa(lp184
I21
aI11
aa(lp185
I25
aI13
aa(lp186
I19
aI10
aa(lp187
I41
aI21
aa(lp188
I37
aI19
aa(lp189
I25
aI13
aa(lp190
I17
aI9
aa(lp191
I17
aI9
aa(lp192
I15
aI8
aa(lp193
I17
aI9
aa(lp194
I17
aI9
aa(lp195
I15
aI8
aa(lp196
I21
aI11
aa(lp197
I17
aI9
aa(lp198
I19
aI10
aa(lp199
I41
aI21
aa(lp200
I25
aI13
aa(lp201
I65
aI33
aa(lp202
I19
aI10
aa(lp203
I153
aI77
aa(lp204
I19
aI10
aa(lp205
I23
aI12
aa(lp206
I27
aI14
aa(lp207
I15
aI8
aa(lp208
I43
aI22
aa(lp209
I27
aI14
aa(lp210
I23
aI12
aasS'sort_256_0.3'
p211
(lp212
(lp213
I19
aI10
aa(lp214
I19
aI10
aa(lp215
I11
aI6
aa(lp216
I17
aI9
aa(lp217
I19
aI10
aa(lp218
I17
aI9
aa(lp219
I21
aI11
aa(lp220
I19
aI10
aa(lp221
I15
aI8
aa(lp222
I13
aI7
aa(lp223
I17
aI9
aa(lp224
I13
aI7
aa(lp225
I21
aI11
aa(lp226
I13
aI7
aa(lp227
I17
aI9
aa(lp228
I23
aI12
aa(lp229
I15
aI8
aa(lp230
I17
aI9
aa(lp231
I15
aI8
aa(lp232
I25
aI13
aa(lp233
I17
aI9
aa(lp234
I17
aI9
aa(lp235
I21
aI11
aa(lp236
I13
aI7
aa(lp237
I31
aI16
aa(lp238
I15
aI8
aa(lp239
I21
aI11
aa(lp240
I21
aI11
aa(lp241
I13
aI7
aa(lp242
I17
aI9
aa(lp243
I15
aI8
aa(lp244
I17
aI9
aa(lp245
I15
aI8
aa(lp246
I17
aI9
aa(lp247
I17
aI9
aa(lp248
I19
aI10
aa(lp249
I21
aI11
aa(lp250
I15
aI8
aa(lp251
I17
aI9
aa(lp252
I19
aI10
aasS'wc+wc-3d-c4_0.3'
p253
(lp254
(lp255
I45
aI23
aa(lp256
I45
aI23
aa(lp257
I89
aI45
aa(lp258
I29
aI15
aa(lp259
I87
aI44
aa(lp260
I105
aI53
aa(lp261
I145
aI73
aa(lp262
I47
aI24
aa(lp263
I49
aI25
aa(lp264
I63
aI32
aa(lp265
I167
aI84
aa(lp266
I97
aI49
aa(lp267
I71
aI36
aa(lp268
I53
aI27
aa(lp269
I45
aI23
aa(lp270
I39
aI20
aa(lp271
I73
aI37
aa(lp272
I49
aI25
aa(lp273
I55
aI28
aa(lp274
I65
aI33
aa(lp275
I59
aI30
aa(lp276
I61
aI31
aa(lp277
I47
aI24
aa(lp278
I85
aI43
aa(lp279
I49
aI25
aa(lp280
I55
aI28
aa(lp281
I47
aI24
aa(lp282
I59
aI30
aa(lp283
I73
aI37
aa(lp284
I31
aI16
aa(lp285
I167
aI84
aa(lp286
I47
aI24
aa(lp287
I53
aI27
aa(lp288
I45
aI23
aa(lp289
I45
aI23
aa(lp290
I45
aI23
aa(lp291
I107
aI54
aa(lp292
I77
aI39
aa(lp293
I151
aI76
aa(lp294
I65
aI33
aasS'wc-c1-3d-c1_0.01'
p295
(lp296
(lp297
I71
aI36
aa(lp298
I95
aI48
aa(lp299
I159
aI80
aa(lp300
I95
aI48
aa(lp301
I163
aI82
aa(lp302
I161
aI81
aa(lp303
I87
aI44
aa(lp304
I167
aI84
aa(lp305
I59
aI30
aa(lp306
I85
aI43
aa(lp307
I115
aI58
aa(lp308
I113
aI57
aa(lp309
I113
aI57
aa(lp310
I59
aI30
aa(lp311
I49
aI25
aa(lp312
I91
aI46
aa(lp313
I77
aI39
aa(lp314
I165
aI83
aa(lp315
I99
aI50
aa(lp316
I43
aI22
aa(lp317
I119
aI60
aa(lp318
I163
aI82
aa(lp319
I171
aI86
aa(lp320
I161
aI81
aa(lp321
I101
aI51
aa(lp322
I49
aI25
aa(lp323
I71
aI36
aa(lp324
I87
aI44
aa(lp325
I135
aI68
aa(lp326
I125
aI63
aa(lp327
I41
aI21
aa(lp328
I47
aI24
aa(lp329
I43
aI22
aa(lp330
I161
aI81
aa(lp331
I51
aI26
aa(lp332
I65
aI33
aa(lp333
I97
aI49
aa(lp334
I163
aI82
aa(lp335
I101
aI51
aa(lp336
I107
aI54
aasS'wc+rs-3d-c4_0.3'
p337
(lp338
(lp339
I83
aI42
aa(lp340
I49
aI25
aa(lp341
I63
aI32
aa(lp342
I53
aI27
aa(lp343
I175
aI88
aa(lp344
I33
aI17
aa(lp345
I73
aI37
aa(lp346
I63
aI32
aa(lp347
I53
aI27
aa(lp348
I83
aI42
aa(lp349
I53
aI27
aa(lp350
I67
aI34
aa(lp351
I29
aI15
aa(lp352
I51
aI26
aa(lp353
I63
aI32
aa(lp354
I39
aI20
aa(lp355
I85
aI43
aa(lp356
I71
aI36
aa(lp357
I47
aI24
aa(lp358
I47
aI24
aa(lp359
I75
aI38
aa(lp360
I51
aI26
aa(lp361
I69
aI35
aa(lp362
I59
aI30
aa(lp363
I51
aI26
aa(lp364
I83
aI42
aa(lp365
I83
aI42
aa(lp366
I67
aI34
aa(lp367
I31
aI16
aa(lp368
I61
aI31
aa(lp369
I55
aI28
aa(lp370
I33
aI17
aa(lp371
I51
aI26
aa(lp372
I65
aI33
aa(lp373
I101
aI51
aa(lp374
I61
aI31
aa(lp375
I41
aI21
aa(lp376
I71
aI36
aa(lp377
I59
aI30
aa(lp378
I69
aI35
aasS'wc+sol-3d-c4_0.3'
p379
(lp380
(lp381
I31
aI16
aa(lp382
I31
aI16
aa(lp383
I51
aI26
aa(lp384
I45
aI23
aa(lp385
I47
aI24
aa(lp386
I175
aI88
aa(lp387
I77
aI39
aa(lp388
I53
aI27
aa(lp389
I51
aI26
aa(lp390
I67
aI34
aa(lp391
I49
aI25
aa(lp392
I43
aI22
aa(lp393
I113
aI57
aa(lp394
I71
aI36
aa(lp395
I63
aI32
aa(lp396
I103
aI52
aa(lp397
I53
aI27
aa(lp398
I55
aI28
aa(lp399
I73
aI37
aa(lp400
I135
aI68
aa(lp401
I63
aI32
aa(lp402
I47
aI24
aa(lp403
I81
aI41
aa(lp404
I175
aI88
aa(lp405
I33
aI17
aa(lp406
I39
aI20
aa(lp407
I73
aI37
aa(lp408
I73
aI37
aa(lp409
I51
aI26
aa(lp410
I79
aI40
aa(lp411
I41
aI21
aa(lp412
I59
aI30
aa(lp413
I79
aI40
aa(lp414
I33
aI17
aa(lp415
I37
aI19
aa(lp416
I103
aI52
aa(lp417
I37
aI19
aa(lp418
I77
aI39
aa(lp419
I57
aI29
aa(lp420
I63
aI32
aasS'wc-6d-c1_0.3'
p421
(lp422
(lp423
I65
aI33
aa(lp424
I123
aI62
aa(lp425
I77
aI39
aa(lp426
I85
aI43
aa(lp427
I867
aI434
aa(lp428
I321
aI161
aa(lp429
I733
aI367
aa(lp430
I377
aI189
aa(lp431
I433
aI217
aa(lp432
I93
aI47
aa(lp433
I115
aI58
aa(lp434
I73
aI37
aa(lp435
I293
aI147
aa(lp436
I97
aI49
aa(lp437
I65
aI33
aa(lp438
I123
aI62
aa(lp439
I111
aI56
aa(lp440
I125
aI63
aa(lp441
I203
aI102
aa(lp442
I85
aI43
aa(lp443
I57
aI29
aa(lp444
I73
aI37
aa(lp445
I203
aI102
aa(lp446
I297
aI149
aa(lp447
I279
aI140
aa(lp448
I183
aI92
aa(lp449
I71
aI36
aa(lp450
I75
aI38
aa(lp451
I97
aI49
aa(lp452
I77
aI39
aa(lp453
I117
aI59
aa(lp454
I203
aI102
aa(lp455
I185
aI93
aa(lp456
I95
aI48
aa(lp457
I219
aI110
aa(lp458
I67
aI34
aa(lp459
I275
aI138
aa(lp460
I141
aI71
aa(lp461
I69
aI35
aa(lp462
I99
aI50
aasS'wc-c3-3d-c1_0.3'
p463
(lp464
(lp465
I95
aI48
aa(lp466
I115
aI58
aa(lp467
I99
aI50
aa(lp468
I85
aI43
aa(lp469
I105
aI53
aa(lp470
I125
aI63
aa(lp471
I45
aI23
aa(lp472
I61
aI31
aa(lp473
I27
aI14
aa(lp474
I101
aI51
aa(lp475
I123
aI62
aa(lp476
I97
aI49
aa(lp477
I87
aI44
aa(lp478
I35
aI18
aa(lp479
I123
aI62
aa(lp480
I61
aI31
aa(lp481
I27
aI14
aa(lp482
I111
aI56
aa(lp483
I153
aI77
aa(lp484
I91
aI46
aa(lp485
I113
aI57
aa(lp486
I27
aI14
aa(lp487
I111
aI56
aa(lp488
I41
aI21
aa(lp489
I33
aI17
aa(lp490
I121
aI61
aa(lp491
I143
aI72
aa(lp492
I25
aI13
aa(lp493
I35
aI18
aa(lp494
I121
aI61
aa(lp495
I33
aI17
aa(lp496
I29
aI15
aa(lp497
I89
aI45
aa(lp498
I39
aI20
aa(lp499
I125
aI63
aa(lp500
I31
aI16
aa(lp501
I109
aI55
aa(lp502
I47
aI24
aa(lp503
I77
aI39
aa(lp504
I83
aI42
aasS'wc+sol-3d-c4_0.01'
p505
(lp506
(lp507
I123
aI62
aa(lp508
I79
aI40
aa(lp509
I117
aI59
aa(lp510
I127
aI64
aa(lp511
I89
aI45
aa(lp512
I121
aI61
aa(lp513
I59
aI30
aa(lp514
I71
aI36
aa(lp515
I59
aI30
aa(lp516
I155
aI78
aa(lp517
I87
aI44
aa(lp518
I129
aI65
aa(lp519
I93
aI47
aa(lp520
I175
aI88
aa(lp521
I127
aI64
aa(lp522
I93
aI47
aa(lp523
I141
aI71
aa(lp524
I173
aI87
aa(lp525
I135
aI68
aa(lp526
I161
aI81
aa(lp527
I175
aI88
aa(lp528
I105
aI53
aa(lp529
I165
aI83
aa(lp530
I79
aI40
aa(lp531
I79
aI40
aa(lp532
I89
aI45
aa(lp533
I111
aI56
aa(lp534
I175
aI88
aa(lp535
I83
aI42
aa(lp536
I139
aI70
aa(lp537
I119
aI60
aa(lp538
I95
aI48
aa(lp539
I81
aI41
aa(lp540
I65
aI33
aa(lp541
I99
aI50
aa(lp542
I149
aI75
aa(lp543
I175
aI88
aa(lp544
I151
aI76
aa(lp545
I91
aI46
aa(lp546
I43
aI22
aasS'wc-c3-3d-c1_0.01'
p547
(lp548
(lp549
I57
aI29
aa(lp550
I75
aI38
aa(lp551
I243
aI122
aa(lp552
I41
aI21
aa(lp553
I289
aI145
aa(lp554
I221
aI111
aa(lp555
I229
aI115
aa(lp556
I313
aI157
aa(lp557
I221
aI111
aa(lp558
I229
aI115
aa(lp559
I101
aI51
aa(lp560
I45
aI23
aa(lp561
I227
aI114
aa(lp562
I91
aI46
aa(lp563
I299
aI150
aa(lp564
I321
aI161
aa(lp565
I221
aI111
aa(lp566
I49
aI25
aa(lp567
I227
aI114
aa(lp568
I45
aI23
aa(lp569
I57
aI29
aa(lp570
I93
aI47
aa(lp571
I317
aI159
aa(lp572
I275
aI138
aa(lp573
I95
aI48
aa(lp574
I307
aI154
aa(lp575
I111
aI56
aa(lp576
I69
aI35
aa(lp577
I139
aI70
aa(lp578
I221
aI111
aa(lp579
I285
aI143
aa(lp580
I63
aI32
aa(lp581
I309
aI155
aa(lp582
I55
aI28
aa(lp583
I225
aI113
aa(lp584
I115
aI58
aa(lp585
I251
aI126
aa(lp586
I231
aI116
aa(lp587
I57
aI29
aa(lp588
I217
aI109
aasS'sort_256_0.01'
p589
(lp590
(lp591
I77
aI39
aa(lp592
I133
aI67
aa(lp593
I67
aI34
aa(lp594
I41
aI21
aa(lp595
I41
aI21
aa(lp596
I109
aI55
aa(lp597
I47
aI24
aa(lp598
I75
aI38
aa(lp599
I57
aI29
aa(lp600
I47
aI24
aa(lp601
I103
aI52
aa(lp602
I69
aI35
aa(lp603
I105
aI53
aa(lp604
I179
aI90
aa(lp605
I101
aI51
aa(lp606
I53
aI27
aa(lp607
I51
aI26
aa(lp608
I99
aI50
aa(lp609
I99
aI50
aa(lp610
I71
aI36
aa(lp611
I115
aI58
aa(lp612
I67
aI34
aa(lp613
I59
aI30
aa(lp614
I119
aI60
aa(lp615
I45
aI23
aa(lp616
I67
aI34
aa(lp617
I123
aI62
aa(lp618
I47
aI24
aa(lp619
I53
aI27
aa(lp620
I67
aI34
aa(lp621
I87
aI44
aa(lp622
I83
aI42
aa(lp623
I75
aI38
aa(lp624
I89
aI45
aa(lp625
I91
aI46
aa(lp626
I63
aI32
aa(lp627
I67
aI34
aa(lp628
I49
aI25
aa(lp629
I35
aI18
aa(lp630
I79
aI40
aasS'wc-5d-c5_0.3'
p631
(lp632
(lp633
I25
aI13
aa(lp634
I27
aI14
aa(lp635
I25
aI13
aa(lp636
I23
aI12
aa(lp637
I23
aI12
aa(lp638
I23
aI12
aa(lp639
I23
aI12
aa(lp640
I27
aI14
aa(lp641
I27
aI14
aa(lp642
I23
aI12
aa(lp643
I25
aI13
aa(lp644
I25
aI13
aa(lp645
I23
aI12
aa(lp646
I23
aI12
aa(lp647
I25
aI13
aa(lp648
I21
aI11
aa(lp649
I27
aI14
aa(lp650
I25
aI13
aa(lp651
I27
aI14
aa(lp652
I23
aI12
aa(lp653
I29
aI15
aa(lp654
I25
aI13
aa(lp655
I23
aI12
aa(lp656
I25
aI13
aa(lp657
I25
aI13
aa(lp658
I25
aI13
aa(lp659
I25
aI13
aa(lp660
I27
aI14
aa(lp661
I25
aI13
aa(lp662
I27
aI14
aa(lp663
I25
aI13
aa(lp664
I27
aI14
aa(lp665
I25
aI13
aa(lp666
I25
aI13
aa(lp667
I25
aI13
aa(lp668
I25
aI13
aa(lp669
I27
aI14
aa(lp670
I23
aI12
aa(lp671
I27
aI14
aa(lp672
I25
aI13
aasS'rs-6d-c3_0.01'
p673
(lp674
(lp675
I231
aI116
aa(lp676
I53
aI27
aa(lp677
I107
aI54
aa(lp678
I247
aI124
aa(lp679
I85
aI43
aa(lp680
I169
aI85
aa(lp681
I291
aI146
aa(lp682
I135
aI68
aa(lp683
I315
aI158
aa(lp684
I117
aI59
aa(lp685
I57
aI29
aa(lp686
I265
aI133
aa(lp687
I75
aI38
aa(lp688
I103
aI52
aa(lp689
I155
aI78
aa(lp690
I129
aI65
aa(lp691
I217
aI109
aa(lp692
I471
aI236
aa(lp693
I59
aI30
aa(lp694
I153
aI77
aa(lp695
I177
aI89
aa(lp696
I163
aI82
aa(lp697
I173
aI87
aa(lp698
I77
aI39
aa(lp699
I433
aI217
aa(lp700
I341
aI171
aa(lp701
I273
aI137
aa(lp702
I183
aI92
aa(lp703
I77
aI39
aa(lp704
I117
aI59
aa(lp705
I163
aI82
aa(lp706
I117
aI59
aa(lp707
I247
aI124
aa(lp708
I213
aI107
aa(lp709
I115
aI58
aa(lp710
I53
aI27
aa(lp711
I67
aI34
aa(lp712
I155
aI78
aa(lp713
I161
aI81
aa(lp714
I273
aI137
aasS'wc+rs-3d-c4_0.01'
p715
(lp716
(lp717
I75
aI38
aa(lp718
I95
aI48
aa(lp719
I139
aI70
aa(lp720
I69
aI35
aa(lp721
I73
aI37
aa(lp722
I95
aI48
aa(lp723
I121
aI61
aa(lp724
I177
aI89
aa(lp725
I73
aI37
aa(lp726
I177
aI89
aa(lp727
I115
aI58
aa(lp728
I75
aI38
aa(lp729
I125
aI63
aa(lp730
I173
aI87
aa(lp731
I127
aI64
aa(lp732
I173
aI87
aa(lp733
I89
aI45
aa(lp734
I111
aI56
aa(lp735
I99
aI50
aa(lp736
I75
aI38
aa(lp737
I97
aI49
aa(lp738
I115
aI58
aa(lp739
I165
aI83
aa(lp740
I115
aI58
aa(lp741
I85
aI43
aa(lp742
I171
aI86
aa(lp743
I127
aI64
aa(lp744
I127
aI64
aa(lp745
I139
aI70
aa(lp746
I119
aI60
aa(lp747
I159
aI80
aa(lp748
I97
aI49
aa(lp749
I113
aI57
aa(lp750
I97
aI49
aa(lp751
I177
aI89
aa(lp752
I95
aI48
aa(lp753
I171
aI86
aa(lp754
I101
aI51
aa(lp755
I137
aI69
aa(lp756
I141
aI71
aasS'wc-c1-3d-c1_0.3'
p757
(lp758
(lp759
I43
aI22
aa(lp760
I43
aI22
aa(lp761
I47
aI24
aa(lp762
I65
aI33
aa(lp763
I47
aI24
aa(lp764
I69
aI35
aa(lp765
I65
aI33
aa(lp766
I65
aI33
aa(lp767
I35
aI18
aa(lp768
I65
aI33
aa(lp769
I69
aI35
aa(lp770
I61
aI31
aa(lp771
I31
aI16
aa(lp772
I69
aI35
aa(lp773
I61
aI31
aa(lp774
I67
aI34
aa(lp775
I29
aI15
aa(lp776
I37
aI19
aa(lp777
I45
aI23
aa(lp778
I37
aI19
aa(lp779
I69
aI35
aa(lp780
I69
aI35
aa(lp781
I71
aI36
aa(lp782
I67
aI34
aa(lp783
I71
aI36
aa(lp784
I63
aI32
aa(lp785
I59
aI30
aa(lp786
I65
aI33
aa(lp787
I69
aI35
aa(lp788
I47
aI24
aa(lp789
I71
aI36
aa(lp790
I67
aI34
aa(lp791
I65
aI33
aa(lp792
I39
aI20
aa(lp793
I63
aI32
aa(lp794
I35
aI18
aa(lp795
I69
aI35
aa(lp796
I67
aI34
aa(lp797
I67
aI34
aa(lp798
I35
aI18
aasS'wc-3d-c4_0.01'
p799
(lp800
(lp801
I107
aI54
aa(lp802
I531
aI266
aa(lp803
I373
aI187
aa(lp804
I205
aI103
aa(lp805
I297
aI149
aa(lp806
I231
aI116
aa(lp807
I667
aI334
aa(lp808
I543
aI272
aa(lp809
I189
aI95
aa(lp810
I155
aI78
aa(lp811
I69
aI35
aa(lp812
I235
aI118
aa(lp813
I171
aI86
aa(lp814
I57
aI29
aa(lp815
I413
aI207
aa(lp816
I175
aI88
aa(lp817
I113
aI57
aa(lp818
I315
aI158
aa(lp819
I51
aI26
aa(lp820
I213
aI107
aa(lp821
I283
aI142
aa(lp822
I131
aI66
aa(lp823
I313
aI157
aa(lp824
I165
aI83
aa(lp825
I177
aI89
aa(lp826
I125
aI63
aa(lp827
I69
aI35
aa(lp828
I107
aI54
aa(lp829
I55
aI28
aa(lp830
I209
aI105
aa(lp831
I85
aI43
aa(lp832
I233
aI117
aa(lp833
I57
aI29
aa(lp834
I51
aI26
aa(lp835
I415
aI208
aa(lp836
I501
aI251
aa(lp837
I49
aI25
aa(lp838
I61
aI31
aa(lp839
I259
aI130
aa(lp840
I41
aI21
aasS'llvm_0.01'
p841
(lp842
(lp843
I67
aI34
aa(lp844
I35
aI18
aa(lp845
I51
aI26
aa(lp846
I43
aI22
aa(lp847
I47
aI24
aa(lp848
I69
aI35
aa(lp849
I99
aI50
aa(lp850
I51
aI26
aa(lp851
I75
aI38
aa(lp852
I51
aI26
aa(lp853
I53
aI27
aa(lp854
I87
aI44
aa(lp855
I31
aI16
aa(lp856
I53
aI27
aa(lp857
I31
aI16
aa(lp858
I57
aI29
aa(lp859
I41
aI21
aa(lp860
I251
aI126
aa(lp861
I55
aI28
aa(lp862
I93
aI47
aa(lp863
I85
aI43
aa(lp864
I77
aI39
aa(lp865
I45
aI23
aa(lp866
I107
aI54
aa(lp867
I53
aI27
aa(lp868
I83
aI42
aa(lp869
I47
aI24
aa(lp870
I57
aI29
aa(lp871
I39
aI20
aa(lp872
I77
aI39
aa(lp873
I63
aI32
aa(lp874
I139
aI70
aa(lp875
I67
aI34
aa(lp876
I51
aI26
aa(lp877
I61
aI31
aa(lp878
I93
aI47
aa(lp879
I271
aI136
aa(lp880
I459
aI230
aa(lp881
I43
aI22
aa(lp882
I43
aI22
aasS'wc-3d-c4_0.3'
p883
(lp884
(lp885
I45
aI23
aa(lp886
I37
aI19
aa(lp887
I95
aI48
aa(lp888
I45
aI23
aa(lp889
I33
aI17
aa(lp890
I93
aI47
aa(lp891
I75
aI38
aa(lp892
I39
aI20
aa(lp893
I93
aI47
aa(lp894
I67
aI34
aa(lp895
I73
aI37
aa(lp896
I35
aI18
aa(lp897
I37
aI19
aa(lp898
I47
aI24
aa(lp899
I35
aI18
aa(lp900
I273
aI137
aa(lp901
I35
aI18
aa(lp902
I45
aI23
aa(lp903
I63
aI32
aa(lp904
I85
aI43
aa(lp905
I31
aI16
aa(lp906
I27
aI14
aa(lp907
I45
aI23
aa(lp908
I83
aI42
aa(lp909
I29
aI15
aa(lp910
I41
aI21
aa(lp911
I41
aI21
aa(lp912
I59
aI30
aa(lp913
I37
aI19
aa(lp914
I23
aI12
aa(lp915
I95
aI48
aa(lp916
I105
aI53
aa(lp917
I73
aI37
aa(lp918
I63
aI32
aa(lp919
I51
aI26
aa(lp920
I79
aI40
aa(lp921
I59
aI30
aa(lp922
I35
aI18
aa(lp923
I47
aI24
aa(lp924
I35
aI18
aasS'rs-6d-c3_0.3'
p925
(lp926
(lp927
I23
aI12
aa(lp928
I23
aI12
aa(lp929
I33
aI17
aa(lp930
I23
aI12
aa(lp931
I23
aI12
aa(lp932
I23
aI12
aa(lp933
I29
aI15
aa(lp934
I21
aI11
aa(lp935
I23
aI12
aa(lp936
I23
aI12
aa(lp937
I23
aI12
aa(lp938
I25
aI13
aa(lp939
I21
aI11
aa(lp940
I25
aI13
aa(lp941
I25
aI13
aa(lp942
I25
aI13
aa(lp943
I25
aI13
aa(lp944
I25
aI13
aa(lp945
I25
aI13
aa(lp946
I27
aI14
aa(lp947
I23
aI12
aa(lp948
I23
aI12
aa(lp949
I35
aI18
aa(lp950
I25
aI13
aa(lp951
I25
aI13
aa(lp952
I25
aI13
aa(lp953
I23
aI12
aa(lp954
I25
aI13
aa(lp955
I25
aI13
aa(lp956
I25
aI13
aa(lp957
I25
aI13
aa(lp958
I23
aI12
aa(lp959
I27
aI14
aa(lp960
I27
aI14
aa(lp961
I25
aI13
aa(lp962
I23
aI12
aa(lp963
I23
aI12
aa(lp964
I27
aI14
aa(lp965
I27
aI14
aa(lp966
I25
aI13
aasS'wc-5d-c5_0.01'
p967
(lp968
(lp969
I37
aI19
aa(lp970
I67
aI34
aa(lp971
I25
aI13
aa(lp972
I85
aI43
aa(lp973
I43
aI22
aa(lp974
I35
aI18
aa(lp975
I29
aI15
aa(lp976
I51
aI26
aa(lp977
I25
aI13
aa(lp978
I35
aI18
aa(lp979
I27
aI14
aa(lp980
I37
aI19
aa(lp981
I29
aI15
aa(lp982
I49
aI25
aa(lp983
I53
aI27
aa(lp984
I27
aI14
aa(lp985
I27
aI14
aa(lp986
I29
aI15
aa(lp987
I57
aI29
aa(lp988
I77
aI39
aa(lp989
I33
aI17
aa(lp990
I25
aI13
aa(lp991
I53
aI27
aa(lp992
I37
aI19
aa(lp993
I27
aI14
aa(lp994
I27
aI14
aa(lp995
I53
aI27
aa(lp996
I73
aI37
aa(lp997
I45
aI23
aa(lp998
I41
aI21
aa(lp999
I47
aI24
aa(lp1000
I73
aI37
aa(lp1001
I33
aI17
aa(lp1002
I75
aI38
aa(lp1003
I43
aI22
aa(lp1004
I41
aI21
aa(lp1005
I29
aI15
aa(lp1006
I39
aI20
aa(lp1007
I79
aI40
aa(lp1008
I69
aI35
aas.