(dp0
S'sort_256'
p1
(lp2
(lp3
I17
aI9
aa(lp4
I19
aI10
aa(lp5
I19
aI10
aa(lp6
I17
aI9
aa(lp7
I23
aI12
aa(lp8
I19
aI10
aa(lp9
I21
aI11
aa(lp10
I17
aI9
aa(lp11
I21
aI11
aa(lp12
I17
aI9
aa(lp13
I21
aI11
aa(lp14
I19
aI10
aa(lp15
I23
aI12
aa(lp16
I15
aI8
aa(lp17
I23
aI12
aa(lp18
I17
aI9
aa(lp19
I19
aI10
aa(lp20
I17
aI9
aa(lp21
I17
aI9
aa(lp22
I19
aI10
aasS'wc-c1-3d-c1'
p23
(lp24
(lp25
I27
aI14
aa(lp26
I23
aI12
aa(lp27
I25
aI13
aa(lp28
I33
aI17
aa(lp29
I25
aI13
aa(lp30
I29
aI15
aa(lp31
I31
aI16
aa(lp32
I21
aI11
aa(lp33
I25
aI13
aa(lp34
I27
aI14
aa(lp35
I31
aI16
aa(lp36
I29
aI15
aa(lp37
I25
aI13
aa(lp38
I29
aI15
aa(lp39
I23
aI12
aa(lp40
I27
aI14
aa(lp41
I19
aI10
aa(lp42
I25
aI13
aa(lp43
I21
aI11
aa(lp44
I21
aI11
aasS'wc-c3-3d-c1'
p45
(lp46
(lp47
I27
aI14
aa(lp48
I25
aI13
aa(lp49
I31
aI16
aa(lp50
I23
aI12
aa(lp51
I25
aI13
aa(lp52
I19
aI10
aa(lp53
I19
aI10
aa(lp54
I27
aI14
aa(lp55
I27
aI14
aa(lp56
I19
aI10
aa(lp57
I25
aI13
aa(lp58
I27
aI14
aa(lp59
I27
aI14
aa(lp60
I25
aI13
aa(lp61
I27
aI14
aa(lp62
I23
aI12
aa(lp63
I27
aI14
aa(lp64
I21
aI11
aa(lp65
I21
aI11
aa(lp66
I19
aI10
aasS'xomo_all'
p67
(lp68
(lp69
I43
aI22
aa(lp70
I45
aI23
aa(lp71
I39
aI20
aa(lp72
I43
aI22
aa(lp73
I41
aI21
aa(lp74
I45
aI23
aa(lp75
I47
aI24
aa(lp76
I43
aI22
aa(lp77
I43
aI22
aa(lp78
I41
aI21
aa(lp79
I43
aI22
aa(lp80
I41
aI21
aa(lp81
I43
aI22
aa(lp82
I43
aI22
aa(lp83
I45
aI23
aa(lp84
I41
aI21
aa(lp85
I47
aI24
aa(lp86
I43
aI22
aa(lp87
I43
aI22
aa(lp88
I37
aI19
aasS'xomo_osp'
p89
(lp90
(lp91
I43
aI22
aa(lp92
I43
aI22
aa(lp93
I49
aI25
aa(lp94
I43
aI22
aa(lp95
I41
aI21
aa(lp96
I41
aI21
aa(lp97
I43
aI22
aa(lp98
I43
aI22
aa(lp99
I43
aI22
aa(lp100
I43
aI22
aa(lp101
I43
aI22
aa(lp102
I23
aI12
aa(lp103
I47
aI24
aa(lp104
I49
aI25
aa(lp105
I45
aI23
aa(lp106
I39
aI20
aa(lp107
I47
aI24
aa(lp108
I49
aI25
aa(lp109
I41
aI21
aa(lp110
I45
aI23
aasS'noc_CM_log'
p111
(lp112
(lp113
I25
aI13
aa(lp114
I25
aI13
aa(lp115
I27
aI14
aa(lp116
I25
aI13
aa(lp117
I23
aI12
aa(lp118
I19
aI10
aa(lp119
I27
aI14
aa(lp120
I25
aI13
aa(lp121
I25
aI13
aa(lp122
I25
aI13
aa(lp123
I29
aI15
aa(lp124
I23
aI12
aa(lp125
I21
aI11
aa(lp126
I25
aI13
aa(lp127
I33
aI17
aa(lp128
I21
aI11
aa(lp129
I21
aI11
aa(lp130
I21
aI11
aa(lp131
I27
aI14
aa(lp132
I25
aI13
aasS'POM3C'
p133
(lp134
(lp135
I61
aI31
aa(lp136
I57
aI29
aa(lp137
I65
aI33
aa(lp138
I57
aI29
aa(lp139
I59
aI30
aa(lp140
I59
aI30
aa(lp141
I57
aI29
aa(lp142
I43
aI22
aa(lp143
I51
aI26
aa(lp144
I59
aI30
aa(lp145
I59
aI30
aa(lp146
I55
aI28
aa(lp147
I59
aI30
aa(lp148
I51
aI26
aa(lp149
I61
aI31
aa(lp150
I45
aI23
aa(lp151
I63
aI32
aa(lp152
I63
aI32
aa(lp153
I59
aI30
aa(lp154
I53
aI27
aasS'MONRP_50_4_5_4_90'
p155
(lp156
(lp157
I53
aI27
aa(lp158
I51
aI26
aa(lp159
I53
aI27
aa(lp160
I61
aI31
aa(lp161
I59
aI30
aa(lp162
I53
aI27
aa(lp163
I45
aI23
aa(lp164
I47
aI24
aa(lp165
I55
aI28
aa(lp166
I47
aI24
aa(lp167
I53
aI27
aa(lp168
I71
aI36
aa(lp169
I51
aI26
aa(lp170
I55
aI28
aa(lp171
I59
aI30
aa(lp172
I61
aI31
aa(lp173
I55
aI28
aa(lp174
I53
aI27
aa(lp175
I55
aI28
aa(lp176
I51
aI26
aasS'wc-6d-c1'
p177
(lp178
(lp179
I35
aI18
aa(lp180
I27
aI14
aa(lp181
I29
aI15
aa(lp182
I23
aI12
aa(lp183
I27
aI14
aa(lp184
I29
aI15
aa(lp185
I27
aI14
aa(lp186
I31
aI16
aa(lp187
I35
aI18
aa(lp188
I29
aI15
aa(lp189
I35
aI18
aa(lp190
I25
aI13
aa(lp191
I31
aI16
aa(lp192
I27
aI14
aa(lp193
I25
aI13
aa(lp194
I31
aI16
aa(lp195
I33
aI17
aa(lp196
I31
aI16
aa(lp197
I31
aI16
aa(lp198
I25
aI13
aasS'wc+sol-3d-c4'
p199
(lp200
(lp201
I29
aI15
aa(lp202
I31
aI16
aa(lp203
I29
aI15
aa(lp204
I31
aI16
aa(lp205
I29
aI15
aa(lp206
I31
aI16
aa(lp207
I35
aI18
aa(lp208
I29
aI15
aa(lp209
I29
aI15
aa(lp210
I21
aI11
aa(lp211
I27
aI14
aa(lp212
I29
aI15
aa(lp213
I35
aI18
aa(lp214
I31
aI16
aa(lp215
I33
aI17
aa(lp216
I27
aI14
aa(lp217
I29
aI15
aa(lp218
I29
aI15
aa(lp219
I27
aI14
aa(lp220
I35
aI18
aasS'xomo_ground'
p221
(lp222
(lp223
I41
aI21
aa(lp224
I51
aI26
aa(lp225
I45
aI23
aa(lp226
I45
aI23
aa(lp227
I43
aI22
aa(lp228
I41
aI21
aa(lp229
I39
aI20
aa(lp230
I49
aI25
aa(lp231
I53
aI27
aa(lp232
I43
aI22
aa(lp233
I45
aI23
aa(lp234
I41
aI21
aa(lp235
I25
aI13
aa(lp236
I41
aI21
aa(lp237
I47
aI24
aa(lp238
I43
aI22
aa(lp239
I43
aI22
aa(lp240
I45
aI23
aa(lp241
I45
aI23
aa(lp242
I39
aI20
aasS'MONRP_50_4_5_0_90'
p243
(lp244
(lp245
I59
aI30
aa(lp246
I47
aI24
aa(lp247
I53
aI27
aa(lp248
I53
aI27
aa(lp249
I57
aI29
aa(lp250
I51
aI26
aa(lp251
I47
aI24
aa(lp252
I59
aI30
aa(lp253
I51
aI26
aa(lp254
I53
aI27
aa(lp255
I53
aI27
aa(lp256
I55
aI28
aa(lp257
I57
aI29
aa(lp258
I51
aI26
aa(lp259
I47
aI24
aa(lp260
I41
aI21
aa(lp261
I45
aI23
aa(lp262
I53
aI27
aa(lp263
I45
aI23
aa(lp264
I53
aI27
aasS'wc-5d-c5'
p265
(lp266
(lp267
I19
aI10
aa(lp268
I23
aI12
aa(lp269
I21
aI11
aa(lp270
I19
aI10
aa(lp271
I19
aI10
aa(lp272
I27
aI14
aa(lp273
I17
aI9
aa(lp274
I21
aI11
aa(lp275
I25
aI13
aa(lp276
I27
aI14
aa(lp277
I23
aI12
aa(lp278
I19
aI10
aa(lp279
I23
aI12
aa(lp280
I27
aI14
aa(lp281
I23
aI12
aa(lp282
I23
aI12
aa(lp283
I29
aI15
aa(lp284
I23
aI12
aa(lp285
I23
aI12
aa(lp286
I27
aI14
aasS'wc+wc-3d-c4'
p287
(lp288
(lp289
I29
aI15
aa(lp290
I31
aI16
aa(lp291
I29
aI15
aa(lp292
I31
aI16
aa(lp293
I27
aI14
aa(lp294
I27
aI14
aa(lp295
I25
aI13
aa(lp296
I35
aI18
aa(lp297
I31
aI16
aa(lp298
I29
aI15
aa(lp299
I33
aI17
aa(lp300
I31
aI16
aa(lp301
I29
aI15
aa(lp302
I35
aI18
aa(lp303
I29
aI15
aa(lp304
I31
aI16
aa(lp305
I31
aI16
aa(lp306
I27
aI14
aa(lp307
I33
aI17
aa(lp308
I37
aI19
aasS'MONRP_50_4_5_0_110'
p309
(lp310
(lp311
I45
aI23
aa(lp312
I53
aI27
aa(lp313
I45
aI23
aa(lp314
I45
aI23
aa(lp315
I61
aI31
aa(lp316
I55
aI28
aa(lp317
I51
aI26
aa(lp318
I49
aI25
aa(lp319
I55
aI28
aa(lp320
I61
aI31
aa(lp321
I51
aI26
aa(lp322
I69
aI35
aa(lp323
I59
aI30
aa(lp324
I51
aI26
aa(lp325
I55
aI28
aa(lp326
I61
aI31
aa(lp327
I53
aI27
aa(lp328
I49
aI25
aa(lp329
I61
aI31
aa(lp330
I47
aI24
aasS'xomoo2'
p331
(lp332
(lp333
I45
aI23
aa(lp334
I43
aI22
aa(lp335
I41
aI21
aa(lp336
I49
aI25
aa(lp337
I47
aI24
aa(lp338
I51
aI26
aa(lp339
I47
aI24
aa(lp340
I47
aI24
aa(lp341
I37
aI19
aa(lp342
I41
aI21
aa(lp343
I29
aI15
aa(lp344
I45
aI23
aa(lp345
I43
aI22
aa(lp346
I41
aI21
aa(lp347
I41
aI21
aa(lp348
I43
aI22
aa(lp349
I43
aI22
aa(lp350
I47
aI24
aa(lp351
I47
aI24
aa(lp352
I41
aI21
aasS'MONRP_50_4_5_4_110'
p353
(lp354
(lp355
I59
aI30
aa(lp356
I55
aI28
aa(lp357
I53
aI27
aa(lp358
I49
aI25
aa(lp359
I59
aI30
aa(lp360
I51
aI26
aa(lp361
I49
aI25
aa(lp362
I55
aI28
aa(lp363
I45
aI23
aa(lp364
I57
aI29
aa(lp365
I47
aI24
aa(lp366
I63
aI32
aa(lp367
I59
aI30
aa(lp368
I47
aI24
aa(lp369
I51
aI26
aa(lp370
I65
aI33
aa(lp371
I51
aI26
aa(lp372
I55
aI28
aa(lp373
I59
aI30
aa(lp374
I59
aI30
aasS'wc-3d-c4'
p375
(lp376
(lp377
I29
aI15
aa(lp378
I31
aI16
aa(lp379
I31
aI16
aa(lp380
I31
aI16
aa(lp381
I31
aI16
aa(lp382
I25
aI13
aa(lp383
I27
aI14
aa(lp384
I33
aI17
aa(lp385
I31
aI16
aa(lp386
I27
aI14
aa(lp387
I29
aI15
aa(lp388
I31
aI16
aa(lp389
I31
aI16
aa(lp390
I29
aI15
aa(lp391
I29
aI15
aa(lp392
I27
aI14
aa(lp393
I33
aI17
aa(lp394
I27
aI14
aa(lp395
I23
aI12
aa(lp396
I29
aI15
aasS'wc+rs-3d-c4'
p397
(lp398
(lp399
I33
aI17
aa(lp400
I31
aI16
aa(lp401
I31
aI16
aa(lp402
I29
aI15
aa(lp403
I27
aI14
aa(lp404
I27
aI14
aa(lp405
I33
aI17
aa(lp406
I25
aI13
aa(lp407
I31
aI16
aa(lp408
I29
aI15
aa(lp409
I29
aI15
aa(lp410
I31
aI16
aa(lp411
I35
aI18
aa(lp412
I29
aI15
aa(lp413
I33
aI17
aa(lp414
I31
aI16
aa(lp415
I29
aI15
aa(lp416
I27
aI14
aa(lp417
I29
aI15
aa(lp418
I29
aI15
aasS'POM3D'
p419
(lp420
(lp421
I47
aI24
aa(lp422
I49
aI25
aa(lp423
I45
aI23
aa(lp424
I53
aI27
aa(lp425
I49
aI25
aa(lp426
I49
aI25
aa(lp427
I47
aI24
aa(lp428
I47
aI24
aa(lp429
I43
aI22
aa(lp430
I45
aI23
aa(lp431
I39
aI20
aa(lp432
I47
aI24
aa(lp433
I43
aI22
aa(lp434
I59
aI30
aa(lp435
I53
aI27
aa(lp436
I53
aI27
aa(lp437
I47
aI24
aa(lp438
I47
aI24
aa(lp439
I49
aI25
aa(lp440
I49
aI25
aasS'rs-6d-c3'
p441
(lp442
(lp443
I29
aI15
aa(lp444
I29
aI15
aa(lp445
I29
aI15
aa(lp446
I31
aI16
aa(lp447
I29
aI15
aa(lp448
I27
aI14
aa(lp449
I31
aI16
aa(lp450
I27
aI14
aa(lp451
I29
aI15
aa(lp452
I31
aI16
aa(lp453
I31
aI16
aa(lp454
I33
aI17
aa(lp455
I35
aI18
aa(lp456
I25
aI13
aa(lp457
I33
aI17
aa(lp458
I31
aI16
aa(lp459
I29
aI15
aa(lp460
I29
aI15
aa(lp461
I29
aI15
aa(lp462
I27
aI14
aasS'llvm_input'
p463
(lp464
(lp465
I27
aI14
aa(lp466
I25
aI13
aa(lp467
I27
aI14
aa(lp468
I29
aI15
aa(lp469
I29
aI15
aa(lp470
I27
aI14
aa(lp471
I27
aI14
aa(lp472
I25
aI13
aa(lp473
I27
aI14
aa(lp474
I27
aI14
aa(lp475
I25
aI13
aa(lp476
I29
aI15
aa(lp477
I29
aI15
aa(lp478
I23
aI12
aa(lp479
I23
aI12
aa(lp480
I25
aI13
aa(lp481
I31
aI16
aa(lp482
I29
aI15
aa(lp483
I29
aI15
aa(lp484
I25
aI13
aasS'POM3A'
p485
(lp486
(lp487
I39
aI20
aa(lp488
I61
aI31
aa(lp489
I55
aI28
aa(lp490
I55
aI28
aa(lp491
I57
aI29
aa(lp492
I43
aI22
aa(lp493
I47
aI24
aa(lp494
I53
aI27
aa(lp495
I31
aI16
aa(lp496
I65
aI33
aa(lp497
I51
aI26
aa(lp498
I59
aI30
aa(lp499
I47
aI24
aa(lp500
I45
aI23
aa(lp501
I57
aI29
aa(lp502
I29
aI15
aa(lp503
I53
aI27
aa(lp504
I53
aI27
aa(lp505
I47
aI24
aa(lp506
I55
aI28
aasS'POM3B'
p507
(lp508
(lp509
I61
aI31
aa(lp510
I49
aI25
aa(lp511
I47
aI24
aa(lp512
I61
aI31
aa(lp513
I55
aI28
aa(lp514
I59
aI30
aa(lp515
I53
aI27
aa(lp516
I45
aI23
aa(lp517
I45
aI23
aa(lp518
I53
aI27
aa(lp519
I45
aI23
aa(lp520
I57
aI29
aa(lp521
I53
aI27
aa(lp522
I61
aI31
aa(lp523
I63
aI32
aa(lp524
I67
aI34
aa(lp525
I57
aI29
aa(lp526
I51
aI26
aa(lp527
I47
aI24
aa(lp528
I57
aI29
aasS'xomo_flight'
p529
(lp530
(lp531
I45
aI23
aa(lp532
I51
aI26
aa(lp533
I41
aI21
aa(lp534
I43
aI22
aa(lp535
I41
aI21
aa(lp536
I43
aI22
aa(lp537
I45
aI23
aa(lp538
I43
aI22
aa(lp539
I43
aI22
aa(lp540
I47
aI24
aa(lp541
I45
aI23
aa(lp542
I43
aI22
aa(lp543
I45
aI23
aa(lp544
I43
aI22
aa(lp545
I49
aI25
aa(lp546
I43
aI22
aa(lp547
I49
aI25
aa(lp548
I43
aI22
aa(lp549
I41
aI21
aa(lp550
I45
aI23
aas.