(dp0
S'xomo_ground'
p1
(lp2
(lp3
I479
aI240
aa(lp4
I519
aI260
aa(lp5
I551
aI276
aa(lp6
I533
aI267
aa(lp7
I511
aI256
aa(lp8
I501
aI251
aa(lp9
I509
aI255
aa(lp10
I525
aI263
aa(lp11
I521
aI261
aa(lp12
I513
aI257
aa(lp13
I525
aI263
aa(lp14
I529
aI265
aa(lp15
I515
aI258
aa(lp16
I527
aI264
aa(lp17
I543
aI272
aa(lp18
I507
aI254
aa(lp19
I501
aI251
aa(lp20
I533
aI267
aa(lp21
I511
aI256
aa(lp22
I493
aI247
aasS'MONRP_50_4_5_0_90'
p23
(lp24
(lp25
I183
aI92
aa(lp26
I183
aI92
aa(lp27
I183
aI92
aa(lp28
I227
aI114
aa(lp29
I207
aI104
aa(lp30
I245
aI123
aa(lp31
I201
aI101
aa(lp32
I191
aI96
aa(lp33
I267
aI134
aa(lp34
I163
aI82
aa(lp35
I205
aI103
aa(lp36
I213
aI107
aa(lp37
I241
aI121
aa(lp38
I235
aI118
aa(lp39
I225
aI113
aa(lp40
I261
aI131
aa(lp41
I255
aI128
aa(lp42
I163
aI82
aa(lp43
I239
aI120
aa(lp44
I227
aI114
aasS'POM3D'
p45
(lp46
(lp47
I681
aI341
aa(lp48
I701
aI351
aa(lp49
I639
aI320
aa(lp50
I679
aI340
aa(lp51
I659
aI330
aa(lp52
I685
aI343
aa(lp53
I651
aI326
aa(lp54
I677
aI339
aa(lp55
I745
aI373
aa(lp56
I673
aI337
aa(lp57
I677
aI339
aa(lp58
I675
aI338
aa(lp59
I667
aI334
aa(lp60
I651
aI326
aa(lp61
I695
aI348
aa(lp62
I615
aI308
aa(lp63
I629
aI315
aa(lp64
I699
aI350
aa(lp65
I697
aI349
aa(lp66
I737
aI369
aasS'xomo_flight'
p67
(lp68
(lp69
I535
aI268
aa(lp70
I523
aI262
aa(lp71
I517
aI259
aa(lp72
I495
aI248
aa(lp73
I509
aI255
aa(lp74
I499
aI250
aa(lp75
I543
aI272
aa(lp76
I521
aI261
aa(lp77
I493
aI247
aa(lp78
I535
aI268
aa(lp79
I541
aI271
aa(lp80
I527
aI264
aa(lp81
I557
aI279
aa(lp82
I505
aI253
aa(lp83
I507
aI254
aa(lp84
I535
aI268
aa(lp85
I531
aI266
aa(lp86
I555
aI278
aa(lp87
I545
aI273
aa(lp88
I489
aI245
aasS'MONRP_50_4_5_4_90'
p89
(lp90
(lp91
I197
aI99
aa(lp92
I259
aI130
aa(lp93
I255
aI128
aa(lp94
I299
aI150
aa(lp95
I155
aI78
aa(lp96
I209
aI105
aa(lp97
I191
aI96
aa(lp98
I253
aI127
aa(lp99
I263
aI132
aa(lp100
I241
aI121
aa(lp101
I261
aI131
aa(lp102
I303
aI152
aa(lp103
I237
aI119
aa(lp104
I279
aI140
aa(lp105
I225
aI113
aa(lp106
I189
aI95
aa(lp107
I253
aI127
aa(lp108
I231
aI116
aa(lp109
I185
aI93
aa(lp110
I257
aI129
aasS'POM3B'
p111
(lp112
(lp113
I719
aI360
aa(lp114
I741
aI371
aa(lp115
I739
aI370
aa(lp116
I685
aI343
aa(lp117
I709
aI355
aa(lp118
I711
aI356
aa(lp119
I733
aI367
aa(lp120
I687
aI344
aa(lp121
I691
aI346
aa(lp122
I709
aI355
aa(lp123
I699
aI350
aa(lp124
I659
aI330
aa(lp125
I673
aI337
aa(lp126
I697
aI349
aa(lp127
I653
aI327
aa(lp128
I681
aI341
aa(lp129
I751
aI376
aa(lp130
I707
aI354
aa(lp131
I687
aI344
aa(lp132
I745
aI373
aasS'POM3A'
p133
(lp134
(lp135
I779
aI390
aa(lp136
I705
aI353
aa(lp137
I733
aI367
aa(lp138
I767
aI384
aa(lp139
I765
aI383
aa(lp140
I713
aI357
aa(lp141
I729
aI365
aa(lp142
I765
aI383
aa(lp143
I767
aI384
aa(lp144
I749
aI375
aa(lp145
I741
aI371
aa(lp146
I741
aI371
aa(lp147
I741
aI371
aa(lp148
I743
aI372
aa(lp149
I729
aI365
aa(lp150
I731
aI366
aa(lp151
I755
aI378
aa(lp152
I821
aI411
aa(lp153
I761
aI381
aa(lp154
I799
aI400
aasS'xomo_all'
p155
(lp156
(lp157
I543
aI272
aa(lp158
I531
aI266
aa(lp159
I521
aI261
aa(lp160
I521
aI261
aa(lp161
I507
aI254
aa(lp162
I569
aI285
aa(lp163
I517
aI259
aa(lp164
I529
aI265
aa(lp165
I527
aI264
aa(lp166
I521
aI261
aa(lp167
I499
aI250
aa(lp168
I523
aI262
aa(lp169
I529
aI265
aa(lp170
I527
aI264
aa(lp171
I529
aI265
aa(lp172
I501
aI251
aa(lp173
I555
aI278
aa(lp174
I511
aI256
aa(lp175
I529
aI265
aa(lp176
I501
aI251
aasS'xomo_osp'
p177
(lp178
(lp179
I497
aI249
aa(lp180
I503
aI252
aa(lp181
I519
aI260
aa(lp182
I535
aI268
aa(lp183
I555
aI278
aa(lp184
I531
aI266
aa(lp185
I491
aI246
aa(lp186
I507
aI254
aa(lp187
I501
aI251
aa(lp188
I517
aI259
aa(lp189
I527
aI264
aa(lp190
I493
aI247
aa(lp191
I491
aI246
aa(lp192
I507
aI254
aa(lp193
I497
aI249
aa(lp194
I517
aI259
aa(lp195
I529
aI265
aa(lp196
I513
aI257
aa(lp197
I517
aI259
aa(lp198
I533
aI267
aasS'MONRP_50_4_5_0_110'
p199
(lp200
(lp201
I273
aI137
aa(lp202
I289
aI145
aa(lp203
I285
aI143
aa(lp204
I209
aI105
aa(lp205
I291
aI146
aa(lp206
I315
aI158
aa(lp207
I289
aI145
aa(lp208
I319
aI160
aa(lp209
I279
aI140
aa(lp210
I245
aI123
aa(lp211
I251
aI126
aa(lp212
I313
aI157
aa(lp213
I265
aI133
aa(lp214
I257
aI129
aa(lp215
I297
aI149
aa(lp216
I405
aI203
aa(lp217
I275
aI138
aa(lp218
I273
aI137
aa(lp219
I319
aI160
aa(lp220
I321
aI161
aasS'xomoo2'
p221
(lp222
(lp223
I555
aI278
aa(lp224
I543
aI272
aa(lp225
I505
aI253
aa(lp226
I499
aI250
aa(lp227
I511
aI256
aa(lp228
I527
aI264
aa(lp229
I529
aI265
aa(lp230
I511
aI256
aa(lp231
I495
aI248
aa(lp232
I497
aI249
aa(lp233
I517
aI259
aa(lp234
I543
aI272
aa(lp235
I499
aI250
aa(lp236
I495
aI248
aa(lp237
I551
aI276
aa(lp238
I489
aI245
aa(lp239
I543
aI272
aa(lp240
I541
aI271
aa(lp241
I489
aI245
aa(lp242
I495
aI248
aasS'POM3C'
p243
(lp244
(lp245
I749
aI375
aa(lp246
I683
aI342
aa(lp247
I697
aI349
aa(lp248
I725
aI363
aa(lp249
I703
aI352
aa(lp250
I801
aI401
aa(lp251
I703
aI352
aa(lp252
I709
aI355
aa(lp253
I727
aI364
aa(lp254
I711
aI356
aa(lp255
I733
aI367
aa(lp256
I699
aI350
aa(lp257
I697
aI349
aa(lp258
I741
aI371
aa(lp259
I751
aI376
aa(lp260
I695
aI348
aa(lp261
I737
aI369
aa(lp262
I693
aI347
aa(lp263
I725
aI363
aa(lp264
I719
aI360
aasS'MONRP_50_4_5_4_110'
p265
(lp266
(lp267
I245
aI123
aa(lp268
I397
aI199
aa(lp269
I341
aI171
aa(lp270
I323
aI162
aa(lp271
I351
aI176
aa(lp272
I351
aI176
aa(lp273
I383
aI192
aa(lp274
I301
aI151
aa(lp275
I239
aI120
aa(lp276
I355
aI178
aa(lp277
I331
aI166
aa(lp278
I243
aI122
aa(lp279
I283
aI142
aa(lp280
I289
aI145
aa(lp281
I353
aI177
aa(lp282
I291
aI146
aa(lp283
I277
aI139
aa(lp284
I317
aI159
aa(lp285
I375
aI188
aa(lp286
I373
aI187
aas.