(dp0
S'xomo_ground'
p1
(lp2
(lp3
I499
aI250
aa(lp4
I465
aI233
aa(lp5
I511
aI256
aa(lp6
I501
aI251
aa(lp7
I497
aI249
aa(lp8
I477
aI239
aa(lp9
I477
aI239
aa(lp10
I511
aI256
aa(lp11
I499
aI250
aa(lp12
I547
aI274
aa(lp13
I497
aI249
aa(lp14
I523
aI262
aa(lp15
I519
aI260
aa(lp16
I521
aI261
aa(lp17
I515
aI258
aa(lp18
I495
aI248
aa(lp19
I523
aI262
aa(lp20
I491
aI246
aa(lp21
I515
aI258
aa(lp22
I503
aI252
aasS'MONRP_50_4_5_0_90'
p23
(lp24
(lp25
I337
aI169
aa(lp26
I239
aI120
aa(lp27
I165
aI83
aa(lp28
I201
aI101
aa(lp29
I239
aI120
aa(lp30
I217
aI109
aa(lp31
I251
aI126
aa(lp32
I207
aI104
aa(lp33
I219
aI110
aa(lp34
I335
aI168
aa(lp35
I271
aI136
aa(lp36
I275
aI138
aa(lp37
I261
aI131
aa(lp38
I229
aI115
aa(lp39
I265
aI133
aa(lp40
I307
aI154
aa(lp41
I299
aI150
aa(lp42
I315
aI158
aa(lp43
I265
aI133
aa(lp44
I243
aI122
aasS'POM3D'
p45
(lp46
(lp47
I675
aI338
aa(lp48
I701
aI351
aa(lp49
I601
aI301
aa(lp50
I695
aI348
aa(lp51
I671
aI336
aa(lp52
I639
aI320
aa(lp53
I645
aI323
aa(lp54
I657
aI329
aa(lp55
I639
aI320
aa(lp56
I669
aI335
aa(lp57
I705
aI353
aa(lp58
I665
aI333
aa(lp59
I645
aI323
aa(lp60
I643
aI322
aa(lp61
I653
aI327
aa(lp62
I659
aI330
aa(lp63
I649
aI325
aa(lp64
I655
aI328
aa(lp65
I685
aI343
aa(lp66
I693
aI347
aasS'xomo_flight'
p67
(lp68
(lp69
I515
aI258
aa(lp70
I525
aI263
aa(lp71
I471
aI236
aa(lp72
I511
aI256
aa(lp73
I489
aI245
aa(lp74
I491
aI246
aa(lp75
I535
aI268
aa(lp76
I493
aI247
aa(lp77
I519
aI260
aa(lp78
I499
aI250
aa(lp79
I501
aI251
aa(lp80
I483
aI242
aa(lp81
I507
aI254
aa(lp82
I475
aI238
aa(lp83
I535
aI268
aa(lp84
I481
aI241
aa(lp85
I509
aI255
aa(lp86
I521
aI261
aa(lp87
I505
aI253
aa(lp88
I489
aI245
aasS'MONRP_50_4_5_4_90'
p89
(lp90
(lp91
I259
aI130
aa(lp92
I289
aI145
aa(lp93
I291
aI146
aa(lp94
I325
aI163
aa(lp95
I337
aI169
aa(lp96
I275
aI138
aa(lp97
I345
aI173
aa(lp98
I341
aI171
aa(lp99
I283
aI142
aa(lp100
I319
aI160
aa(lp101
I347
aI174
aa(lp102
I297
aI149
aa(lp103
I273
aI137
aa(lp104
I237
aI119
aa(lp105
I295
aI148
aa(lp106
I315
aI158
aa(lp107
I345
aI173
aa(lp108
I299
aI150
aa(lp109
I295
aI148
aa(lp110
I265
aI133
aasS'POM3B'
p111
(lp112
(lp113
I715
aI358
aa(lp114
I629
aI315
aa(lp115
I661
aI331
aa(lp116
I689
aI345
aa(lp117
I725
aI363
aa(lp118
I715
aI358
aa(lp119
I695
aI348
aa(lp120
I677
aI339
aa(lp121
I709
aI355
aa(lp122
I751
aI376
aa(lp123
I667
aI334
aa(lp124
I697
aI349
aa(lp125
I687
aI344
aa(lp126
I677
aI339
aa(lp127
I729
aI365
aa(lp128
I701
aI351
aa(lp129
I685
aI343
aa(lp130
I685
aI343
aa(lp131
I653
aI327
aa(lp132
I663
aI332
aasS'POM3A'
p133
(lp134
(lp135
I773
aI387
aa(lp136
I669
aI335
aa(lp137
I787
aI394
aa(lp138
I733
aI367
aa(lp139
I713
aI357
aa(lp140
I713
aI357
aa(lp141
I725
aI363
aa(lp142
I757
aI379
aa(lp143
I737
aI369
aa(lp144
I781
aI391
aa(lp145
I771
aI386
aa(lp146
I785
aI393
aa(lp147
I695
aI348
aa(lp148
I741
aI371
aa(lp149
I685
aI343
aa(lp150
I693
aI347
aa(lp151
I753
aI377
aa(lp152
I707
aI354
aa(lp153
I813
aI407
aa(lp154
I687
aI344
aasS'xomo_all'
p155
(lp156
(lp157
I527
aI264
aa(lp158
I545
aI273
aa(lp159
I499
aI250
aa(lp160
I523
aI262
aa(lp161
I523
aI262
aa(lp162
I497
aI249
aa(lp163
I509
aI255
aa(lp164
I539
aI270
aa(lp165
I541
aI271
aa(lp166
I503
aI252
aa(lp167
I487
aI244
aa(lp168
I511
aI256
aa(lp169
I513
aI257
aa(lp170
I541
aI271
aa(lp171
I579
aI290
aa(lp172
I495
aI248
aa(lp173
I489
aI245
aa(lp174
I529
aI265
aa(lp175
I529
aI265
aa(lp176
I527
aI264
aasS'xomo_osp'
p177
(lp178
(lp179
I505
aI253
aa(lp180
I511
aI256
aa(lp181
I489
aI245
aa(lp182
I517
aI259
aa(lp183
I511
aI256
aa(lp184
I483
aI242
aa(lp185
I523
aI262
aa(lp186
I519
aI260
aa(lp187
I493
aI247
aa(lp188
I477
aI239
aa(lp189
I503
aI252
aa(lp190
I527
aI264
aa(lp191
I497
aI249
aa(lp192
I515
aI258
aa(lp193
I539
aI270
aa(lp194
I501
aI251
aa(lp195
I519
aI260
aa(lp196
I485
aI243
aa(lp197
I509
aI255
aa(lp198
I499
aI250
aasS'MONRP_50_4_5_0_110'
p199
(lp200
(lp201
I275
aI138
aa(lp202
I287
aI144
aa(lp203
I301
aI151
aa(lp204
I365
aI183
aa(lp205
I365
aI183
aa(lp206
I349
aI175
aa(lp207
I321
aI161
aa(lp208
I303
aI152
aa(lp209
I413
aI207
aa(lp210
I395
aI198
aa(lp211
I377
aI189
aa(lp212
I305
aI153
aa(lp213
I277
aI139
aa(lp214
I331
aI166
aa(lp215
I381
aI191
aa(lp216
I297
aI149
aa(lp217
I351
aI176
aa(lp218
I343
aI172
aa(lp219
I295
aI148
aa(lp220
I283
aI142
aasS'xomoo2'
p221
(lp222
(lp223
I519
aI260
aa(lp224
I491
aI246
aa(lp225
I521
aI261
aa(lp226
I493
aI247
aa(lp227
I503
aI252
aa(lp228
I517
aI259
aa(lp229
I493
aI247
aa(lp230
I527
aI264
aa(lp231
I493
aI247
aa(lp232
I529
aI265
aa(lp233
I491
aI246
aa(lp234
I513
aI257
aa(lp235
I519
aI260
aa(lp236
I517
aI259
aa(lp237
I495
aI248
aa(lp238
I499
aI250
aa(lp239
I507
aI254
aa(lp240
I509
aI255
aa(lp241
I531
aI266
aa(lp242
I499
aI250
aasS'POM3C'
p243
(lp244
(lp245
I707
aI354
aa(lp246
I697
aI349
aa(lp247
I719
aI360
aa(lp248
I751
aI376
aa(lp249
I743
aI372
aa(lp250
I693
aI347
aa(lp251
I713
aI357
aa(lp252
I757
aI379
aa(lp253
I739
aI370
aa(lp254
I649
aI325
aa(lp255
I673
aI337
aa(lp256
I677
aI339
aa(lp257
I683
aI342
aa(lp258
I717
aI359
aa(lp259
I715
aI358
aa(lp260
I719
aI360
aa(lp261
I719
aI360
aa(lp262
I761
aI381
aa(lp263
I783
aI392
aa(lp264
I667
aI334
aasS'MONRP_50_4_5_4_110'
p265
(lp266
(lp267
I399
aI200
aa(lp268
I413
aI207
aa(lp269
I429
aI215
aa(lp270
I447
aI224
aa(lp271
I315
aI158
aa(lp272
I469
aI235
aa(lp273
I459
aI230
aa(lp274
I383
aI192
aa(lp275
I429
aI215
aa(lp276
I459
aI230
aa(lp277
I491
aI246
aa(lp278
I455
aI228
aa(lp279
I407
aI204
aa(lp280
I401
aI201
aa(lp281
I367
aI184
aa(lp282
I405
aI203
aa(lp283
I357
aI179
aa(lp284
I421
aI211
aa(lp285
I453
aI227
aa(lp286
I413
aI207
aas.