(dp0
S'SS-M'
p1
(dp2
S'evals'
p3
(lp4
(lp5
I51
aag5
a(lp6
I51
aa(lp7
I51
aa(lp8
I51
aa(lp9
I51
aa(lp10
I51
aa(lp11
I51
aa(lp12
I51
aa(lp13
I51
aa(lp14
I52
aa(lp15
I51
aa(lp16
I51
aa(lp17
I52
aa(lp18
I51
aa(lp19
I51
aa(lp20
I51
aa(lp21
I51
aa(lp22
I51
aa(lp23
I51
aa(lp24
I51
aasS'igd'
p25
(lp26
(lp27
cnumpy.core.multiarray
scalar
p28
(cnumpy
dtype
p29
(S'f8'
p30
I0
I1
tp31
Rp32
(I3
S'<'
p33
NNNI-1
I-1
I0
tp34
bS'\x17\x14N\xbc\xc0l\xe5>'
p35
tp36
Rp37
aag27
a(lp38
g28
(g32
S'\xa0V$QU\xd5\xf0>'
p39
tp40
Rp41
aa(lp42
g28
(g32
S'v\x04\x1a\xf5\xe0O\xd9>'
p43
tp44
Rp45
aa(lp46
g28
(g32
S'\x94\x1f\xff=c\xce\xe0>'
p47
tp48
Rp49
aa(lp50
g28
(g32
S'\x93\x98\x12\x7f\x18\xd2\xec>'
p51
tp52
Rp53
aa(lp54
g28
(g32
S'J\xf1\xee\xd9\xbcA\xe5>'
p55
tp56
Rp57
aa(lp58
g28
(g32
S'G\x0fzF_\x10\xe7>'
p59
tp60
Rp61
aa(lp62
g28
(g32
S'((wX6<\xd9>'
p63
tp64
Rp65
aa(lp66
g28
(g32
S'\n\xc4\x8a3\xb5\xa4\xdb>'
p67
tp68
Rp69
aa(lp70
g28
(g32
S'\xee\x19RU\xd7\x0c\xf4>'
p71
tp72
Rp73
aa(lp74
g28
(g32
S'\x1b\xa5\x8f\x92\xd9 \xd5>'
p75
tp76
Rp77
aa(lp78
g28
(g32
S'0n\xe7\xb2E\x1a\xdf>'
p79
tp80
Rp81
aa(lp82
g28
(g32
S'\xb30}\xdc\xc5\xa2\xf3>'
p83
tp84
Rp85
aa(lp86
g28
(g32
S'[}\x0b\r\xa9\x1e\xe3>'
p87
tp88
Rp89
aa(lp90
g28
(g32
S'J\x07\x97p:\xa9\xea>'
p91
tp92
Rp93
aa(lp94
g28
(g32
S'\x953\x84\x1a\x01\x97\xf3>'
p95
tp96
Rp97
aa(lp98
g28
(g32
S'\x16\xcd\xb4\x1e\x80\x14\xe3>'
p99
tp100
Rp101
aa(lp102
g28
(g32
S'\xber\x16\x1a\xca_\xeb>'
p103
tp104
Rp105
aa(lp106
g28
(g32
S'\x9f\xc3Z\xdf\xc9\xbb\xe7>'
p107
tp108
Rp109
aa(lp110
g28
(g32
S'\xf0\x8bcn\xa2X\xd2>'
p111
tp112
Rp113
aasS'gen_dist'
p114
(lp115
(lp116
g28
(g32
S'p&W9\xe0"\xec>'
p117
tp118
Rp119
aag116
a(lp120
g28
(g32
S'\xd5\x03\xe7u\xf8\xca\xf1>'
p121
tp122
Rp123
aa(lp124
g28
(g32
S'z\x9axtP\x1d\xe9>'
p125
tp126
Rp127
aa(lp128
g28
(g32
S'K?\xcf\x85 \x8c\xf8>'
p129
tp130
Rp131
aa(lp132
g28
(g32
S'\xf1\xd8\xa7\x9c\x05_\xf1>'
p133
tp134
Rp135
aa(lp136
g28
(g32
S'\xdb\xef\x1e\xef\x05\\\xf7>'
p137
tp138
Rp139
aa(lp140
g28
(g32
S'&\xd7\xa5 Ba\xed>'
p141
tp142
Rp143
aa(lp144
g28
(g32
S'\xbb\xe6~\x97(k\xe7>'
p145
tp146
Rp147
aa(lp148
g28
(g32
S'\n\xc4\x8a3\xb5\xa4\xdb>'
p149
tp150
Rp151
aa(lp152
g28
(g32
S'\xb4o\x03IK\t\x03?'
p153
tp154
Rp155
aa(lp156
g28
(g32
S'\xd8\x8c2\xa9\xde\xae\x0b?'
p157
tp158
Rp159
aa(lp160
g28
(g32
S'+\xa8\n\x15\xcfv\xf6>'
p161
tp162
Rp163
aa(lp164
g28
(g32
S'\x83:\x0eY\xb8\xd7\x02?'
p165
tp166
Rp167
aa(lp168
g28
(g32
S'\x0f\xf52\xb3\x8f \x00?'
p169
tp170
Rp171
aa(lp172
g28
(g32
S'K\x82\xa5\xa4\xee\xa6\x19?'
p173
tp174
Rp175
aa(lp176
g28
(g32
S'C\xf5\x8d\xf4Wu\x02?'
p177
tp178
Rp179
aa(lp180
g28
(g32
S'_\x98\xea\xf3\x9c\xd8\xee>'
p181
tp182
Rp183
aa(lp184
g28
(g32
S'f%\xa9x\xe7\x97\x03?'
p185
tp186
Rp187
aa(lp188
g28
(g32
S'U\x12\x1f:\xf8\xf3\x07?'
p189
tp190
Rp191
aa(lp192
g28
(g32
S'\xf0\x8bcn\xa2X\xd2>'
p193
tp194
Rp195
aasS'time'
p196
(lp197
F245.71553087234497
aF245.71553087234497
aF211.0851800441742
aF274.10805201530457
aF189.5752468109131
aF191.49358701705933
aF184.5479040145874
aF190.1567199230194
aF259.9977331161499
aF237.57517004013062
aF178.36430191993713
aF178.57573103904724
aF274.9501278400421
aF187.84458303451538
aF194.9411690235138
aF164.18453288078308
aF143.29771995544434
aF177.11731815338135
aF169.1710650920868
aF215.41039204597473
aF207.74372100830078
assS'SS-L'
p198
(dp199
g3
(lp200
(lp201
I51
aag201
a(lp202
I51
aa(lp203
I51
aa(lp204
I51
aa(lp205
I51
aa(lp206
I51
aa(lp207
I51
aa(lp208
I51
aa(lp209
I51
aa(lp210
I51
aa(lp211
I51
aa(lp212
I51
aa(lp213
I51
aa(lp214
I51
aa(lp215
I51
aa(lp216
I51
aa(lp217
I51
aa(lp218
I51
aa(lp219
I51
aa(lp220
I51
aasg25
(lp221
(lp222
g28
(g32
S'N\xc8WfR\xdb{?'
p223
tp224
Rp225
aag222
a(lp226
g28
(g32
S'\x89\xba_\xda!\x99y?'
p227
tp228
Rp229
aa(lp230
g28
(g32
S'7}\x9c\x99\x11\x10r?'
p231
tp232
Rp233
aa(lp234
g28
(g32
S'\x92\x1a3\xd3\xfe\x1d}?'
p235
tp236
Rp237
aa(lp238
g28
(g32
S'\xfe\x07^\xc5U\xb2|?'
p239
tp240
Rp241
aa(lp242
g28
(g32
S'\xb5\x9f\xa0\xe5VQo?'
p243
tp244
Rp245
aa(lp246
g28
(g32
S'\xce\x93O\x8d\x87"W?'
p247
tp248
Rp249
aa(lp250
g28
(g32
S'\x06\xe4\xa9=\x9bZg?'
p251
tp252
Rp253
aa(lp254
g28
(g32
S'\t\x12`\xe8v\x90q?'
p255
tp256
Rp257
aa(lp258
g28
(g32
S'\x8e\xca\xdf\xd4x^\xaa?'
p259
tp260
Rp261
aa(lp262
g28
(g32
S'e\xc9\x19\xc1\x13M\x85?'
p263
tp264
Rp265
aa(lp266
g28
(g32
S'\xd2\xe7\xba\xc6qKr?'
p267
tp268
Rp269
aa(lp270
g28
(g32
S'I\xb3\xbe\x92?\xe5\x81?'
p271
tp272
Rp273
aa(lp274
g28
(g32
S'\x98@\x1f\x8d4&G?'
p275
tp276
Rp277
aa(lp278
g28
(g32
S'\x9au\xb0\xc7\xf2Gy?'
p279
tp280
Rp281
aa(lp282
g28
(g32
S'i\x87\xc5\xec\x1b,y?'
p283
tp284
Rp285
aa(lp286
g28
(g32
S')*\xd9!\xca\xbaw?'
p287
tp288
Rp289
aa(lp290
g28
(g32
S'\xf6["(6\x03^?'
p291
tp292
Rp293
aa(lp294
g28
(g32
S'\xdf\xe2\xea\x14\xd5Yx?'
p295
tp296
Rp297
aa(lp298
g28
(g32
S'\x9c=\x91\xeb\x9d\x15\x83?'
p299
tp300
Rp301
aasg114
(lp302
(lp303
g28
(g32
S'\xa3\x9fR`\xa3\xd9\xa4?'
p304
tp305
Rp306
aag303
a(lp307
g28
(g32
S'\x1b\xa8\xd9Mv\x80~?'
p308
tp309
Rp310
aa(lp311
g28
(g32
S'\xa9\x91.F\xf5\xe0p?'
p312
tp313
Rp314
aa(lp315
g28
(g32
S'xc\xf7\x921\x9e\x7f?'
p316
tp317
Rp318
aa(lp319
g28
(g32
S'Js\xc6\xa3\xfc\x17\x87?'
p320
tp321
Rp322
aa(lp323
g28
(g32
S'\xa3Cm\x02)\xf0y?'
p324
tp325
Rp326
aa(lp327
g28
(g32
S'\xed)\x0e\x0f\xb56 ?'
p328
tp329
Rp330
aa(lp331
g28
(g32
S'\x02I\x92\xa3\xd1\xa4c?'
p332
tp333
Rp334
aa(lp335
g28
(g32
S'\xdc[:rg\xa8{?'
p336
tp337
Rp338
aa(lp339
g28
(g32
S'\xd3\xa3\xb5YI\x08\xb1?'
p340
tp341
Rp342
aa(lp343
g28
(g32
S'\xa3\x87$\x93D\x19\xab?'
p344
tp345
Rp346
aa(lp347
g28
(g32
S'T8w\xfd[&\xb0?'
p348
tp349
Rp350
aa(lp351
g28
(g32
S'\x13\xb0\xaa\xc6\xbc\xa3\x93?'
p352
tp353
Rp354
aa(lp355
g28
(g32
S'>\x15\xae1\xf1\x0cU?'
p356
tp357
Rp358
aa(lp359
g28
(g32
S'\x83\xf72\xb7\x8b\xb3x?'
p360
tp361
Rp362
aa(lp363
g28
(g32
S'=!\x1c\xcblM\x91?'
p364
tp365
Rp366
aa(lp367
g28
(g32
S'bDA|6=\x82?'
p368
tp369
Rp370
aa(lp371
g28
(g32
S'\xb8z\xd9!?\xbc\xa3?'
p372
tp373
Rp374
aa(lp375
g28
(g32
S'\xb5z\xed]\xab\xc8\x7f?'
p376
tp377
Rp378
aa(lp379
g28
(g32
S'\xd2tKH2\x0c\xa5?'
p380
tp381
Rp382
aasg196
(lp383
F2.028839111328125
aF2.028839111328125
aF1.976107120513916
aF1.8707869052886963
aF1.4841301441192627
aF1.5564608573913574
aF1.5012869834899902
aF1.621579885482788
aF1.7592041492462158
aF1.699713945388794
aF1.7058050632476807
aF1.640707015991211
aF0.8198819160461426
aF2.147791862487793
aF1.8181869983673096
aF2.120680809020996
aF2.0405139923095703
aF1.7485108375549316
aF2.1791269779205322
aF2.0264699459075928
aF2.0213840007781982
assS'SS-O'
p384
(dp385
g3
(lp386
(lp387
I51
aag387
a(lp388
I51
aa(lp389
I51
aa(lp390
I51
aa(lp391
I51
aa(lp392
I51
aa(lp393
I51
aa(lp394
I51
aa(lp395
I51
aa(lp396
I51
aa(lp397
I51
aa(lp398
I51
aa(lp399
I51
aa(lp400
I51
aa(lp401
I51
aa(lp402
I51
aa(lp403
I51
aa(lp404
I51
aa(lp405
I51
aa(lp406
I51
aasg25
(lp407
(lp408
g28
(g32
S'\xc7\x1e\xf5\xcbW\x17\xed?'
p409
tp410
Rp411
aag408
a(lp412
g28
(g32
S'Y!\xad\xb8~\xee\xc7>'
p413
tp414
Rp415
aa(lp416
g28
(g32
S'\xa9\xe0\x8e\xfe\x00\xa1\xc7>'
p417
tp418
Rp419
aa(lp420
g28
(g32
S'\xcfz\x15\xb1\x00pp>'
p421
tp422
Rp423
aa(lp424
g28
(g32
S'\xe1\xdeA\xf6\xc0\xdb\xb6>'
p425
tp426
Rp427
aa(lp428
g28
(g32
S'\xe5\x83\xa1\x92nf\x84>'
p429
tp430
Rp431
aa(lp432
g28
(g32
S'C\xa8\xdb\xfdg\xf5\xca>'
p433
tp434
Rp435
aa(lp436
g28
(g32
S'o\xe43\xc7\xaeG\xc9>'
p437
tp438
Rp439
aa(lp440
g28
(g32
S'\xd1\xcdIwZ\x17\xed?'
p441
tp442
Rp443
aa(lp444
g28
(g32
S'\xdf\x93S\xe0[\x17\xed?'
p445
tp446
Rp447
aa(lp448
g28
(g32
S'\xef\x8c\xa1\x05b\x17\xed?'
p449
tp450
Rp451
aa(lp452
g28
(g32
S'\xa3\xe5j_\x93\xd4\x89>'
p453
tp454
Rp455
aa(lp456
g28
(g32
S'\xa9\xe0\x8e\xfe\x00\xa1\xc7>'
p457
tp458
Rp459
aa(lp460
g28
(g32
S'g\x7f\xdb\xa17k\x92>'
p461
tp462
Rp463
aa(lp464
g28
(g32
S'j\xe2\xdb\x06Af\xc8>'
p465
tp466
Rp467
aa(lp468
g28
(g32
S'\x91g\xbdC\xea\xa7\xca>'
p469
tp470
Rp471
aa(lp472
g28
(g32
S'\xd1\xcdIwZ\x17\xed?'
p473
tp474
Rp475
aa(lp476
g28
(g32
S'\xa9\x12%!\xe1\xd6\xca>'
p477
tp478
Rp479
aa(lp480
g28
(g32
S'\xef\x86%3\x93\xb8u>'
p481
tp482
Rp483
aa(lp484
g28
(g32
S'\xb9\x8a\xca\xfb@_\xb7>'
p485
tp486
Rp487
aasg114
(lp488
(lp489
g28
(g32
S'\x00\x00\x00\x00\x00\x00\x00\x00'
p490
tp491
Rp492
aag489
a(lp493
g28
(g32
S'\xa4[\xae\x94C\xc6\xbe>'
p494
tp495
Rp496
aa(lp497
g28
(g32
S'\xe8}\x99Q%\xc2\xc1>'
p498
tp499
Rp500
aa(lp501
g28
(g32
S'x\xcf\xa2\x1b\xdc$\x80>'
p502
tp503
Rp504
aa(lp505
g28
(g32
S'\xb1\x1d\t\xc3\xbc\xae\xaf>'
p506
tp507
Rp508
aa(lp509
g28
(g32
S'\xf0\xcfYBD\xca\x9c>'
p510
tp511
Rp512
aa(lp513
g28
(g32
S'\x9f\x91\xfdIU\r\xc1>'
p514
tp515
Rp516
aa(lp517
g28
(g32
S'N\x1b\xa5w5J\xc5>'
p518
tp519
Rp520
aa(lp521
g28
(g32
S'R\xe5j_\x93\xd4i>'
p522
tp523
Rp524
aa(lp525
g28
(g32
S'3BX\xcb%\x0f}>'
p526
tp527
Rp528
aa(lp529
g28
(g32
S'\xcf\xd7\r\xd5\xc0\xc6\xa3>'
p530
tp531
Rp532
aa(lp533
g28
(g32
S'\x98\xe5j_\x93\xd4\x89>'
p534
tp535
Rp536
aa(lp537
g28
(g32
S'\t\x94a\x95\xdcq\xbb>'
p538
tp539
Rp540
aa(lp541
g28
(g32
S'\x03\x94a\x95\xdcq\x8b>'
p542
tp543
Rp544
aa(lp545
g28
(g32
S'\xb2SXx\xce\xf5\xc1>'
p546
tp547
Rp548
aa(lp549
g28
(g32
S'\xa5\xad\xcc\xfbi\xfa\xc3>'
p550
tp551
Rp552
aa(lp553
g28
(g32
S'R\xe5j_\x93\xd4i>'
p554
tp555
Rp556
aa(lp557
g28
(g32
S'\xa0\xcbH\xd2\x9d\xa6\xc4>'
p558
tp559
Rp560
aa(lp561
g28
(g32
S'9\x91\xe8\xac\xe5;\x9a>'
p562
tp563
Rp564
aa(lp565
g28
(g32
S'\xf6?\xf4\x7f\x9e\xaa\xb2>'
p566
tp567
Rp568
aasg196
(lp569
F98.60754704475403
aF98.60754704475403
aF96.18666982650757
aF115.94949078559875
aF111.61322689056396
aF124.04767203330994
aF127.37407207489014
aF121.37998294830322
aF124.0463981628418
aF108.2211651802063
aF102.65290188789368
aF97.42589402198792
aF94.97718501091003
aF93.3575439453125
aF90.55921196937561
aF86.37388706207275
aF90.14968705177307
aF89.86157703399658
aF92.76203393936157
aF100.24572801589966
aF109.85594201087952
assS'SS-N'
p570
(dp571
g3
(lp572
(lp573
I54
aag573
a(lp574
I51
aa(lp575
I51
aa(lp576
I51
aa(lp577
I51
aa(lp578
I51
aa(lp579
I52
aa(lp580
I51
aa(lp581
I51
aa(lp582
I51
aa(lp583
I52
aa(lp584
I54
aa(lp585
I51
aa(lp586
I52
aa(lp587
I51
aa(lp588
I53
aa(lp589
I52
aa(lp590
I51
aa(lp591
I52
aa(lp592
I51
aasg25
(lp593
(lp594
g28
(g32
S"\xa6\x9c\xdapf'\x9b?"
p595
tp596
Rp597
aag594
a(lp598
g28
(g32
S'\x9e\xfdS\xbbq\x17\x91?'
p599
tp600
Rp601
aa(lp602
g28
(g32
S'\xa0\xcf\n\x02\x90I\x90?'
p603
tp604
Rp605
aa(lp606
g28
(g32
S'\xc6_\r\xb1\xea\xa1r?'
p607
tp608
Rp609
aa(lp610
g28
(g32
S'\r@\x8b\x19\x94\xfb\x8d?'
p611
tp612
Rp613
aa(lp614
g28
(g32
S'\rQG-\t_\x91?'
p615
tp616
Rp617
aa(lp618
g28
(g32
S'\x8c\x82\x15\xca1:\x9d?'
p619
tp620
Rp621
aa(lp622
g28
(g32
S'\x9a\xf4f\xe0\xf74\xaa?'
p623
tp624
Rp625
aa(lp626
g28
(g32
S'P\xcd^\xc0\xb0\xa9\x92?'
p627
tp628
Rp629
aa(lp630
g28
(g32
S'G<t\x9d\x1aj\x83?'
p631
tp632
Rp633
aa(lp634
g28
(g32
S'\x00\x00\x00\x00\x00\x00\x00\x00'
p635
tp636
Rp637
aa(lp638
g28
(g32
S'\x00\x00\x00\x00\x00\x00\x00\x00'
p639
tp640
Rp641
aa(lp642
g28
(g32
S'\xda\xf84\t\nU\xa3?'
p643
tp644
Rp645
aa(lp646
g28
(g32
S'\x80\xd9\x85|\x06\x95\x8c?'
p647
tp648
Rp649
aa(lp650
g28
(g32
S'\xecj\xbf\xe7V\xb3\x95?'
p651
tp652
Rp653
aa(lp654
g28
(g32
S'r\x17OHc\xfb\x8d?'
p655
tp656
Rp657
aa(lp658
g28
(g32
S'\r@\x8b\x19\x94\xfb\x8d?'
p659
tp660
Rp661
aa(lp662
g28
(g32
S'\x97\xfbA%e\xde\xa4?'
p663
tp664
Rp665
aa(lp666
g28
(g32
S'2\x9c\x96\xe3\x0c\xe3\x8b?'
p667
tp668
Rp669
aa(lp670
g28
(g32
S'\xbcw\xc6K\xa0\xa1\x98?'
p671
tp672
Rp673
aasg114
(lp674
(lp675
g28
(g32
S'\xa26U\x99\x03\xe6\xc1?'
p676
tp677
Rp678
aag675
a(lp679
g28
(g32
S'@"\x02\xae\xe1r\x9e?'
p680
tp681
Rp682
aa(lp683
g28
(g32
S'\x08\xb7\xaa\x9b\xb6\x19\xd0?'
p684
tp685
Rp686
aa(lp687
g28
(g32
S';\xe3{\xaa\xf1g\xc7?'
p688
tp689
Rp690
aa(lp691
g28
(g32
S'w\x0f\xb70\xa4\t\xb1?'
p692
tp693
Rp694
aa(lp695
g28
(g32
S'\xf58\xeeS!\xbd\xa4?'
p696
tp697
Rp698
aa(lp699
g28
(g32
S'\xafL\x9f2\xce^\xcd?'
p700
tp701
Rp702
aa(lp703
g28
(g32
S']O*\xb8k\x13\xb3?'
p704
tp705
Rp706
aa(lp707
g28
(g32
S'\xafu\xf5T!:\x9a?'
p708
tp709
Rp710
aa(lp711
g28
(g32
S's;R04\xa6\x9a?'
p712
tp713
Rp714
aa(lp715
g28
(g32
S'\x00\x00\x00\x00\x00\x00\x00\x00'
p716
tp717
Rp718
aa(lp719
g28
(g32
S'\x00\x00\x00\x00\x00\x00\x00\x00'
p720
tp721
Rp722
aa(lp723
g28
(g32
S'?\xf4?(K\xaa\xa4?'
p724
tp725
Rp726
aa(lp727
g28
(g32
S'\xd4\xfd\xc2\xb3\xaax\xca?'
p728
tp729
Rp730
aa(lp731
g28
(g32
S'\x90\x04\x00\x95\xf8\xc1\xcd?'
p732
tp733
Rp734
aa(lp735
g28
(g32
S'\x83\xe0\x12j\xa1\xb5\xd3?'
p736
tp737
Rp738
aa(lp739
g28
(g32
S'\xe8\x86\xca\x94\x89\x03\xd3?'
p740
tp741
Rp742
aa(lp743
g28
(g32
S'\xf4:\xd9\xb2\xaa\xf3\xc5?'
p744
tp745
Rp746
aa(lp747
g28
(g32
S'\xd9\xa8\x9a\xe5+\x0c\xa8?'
p748
tp749
Rp750
aa(lp751
g28
(g32
S'\xb6\xe9\xa0\xd0\xce;\xc0?'
p752
tp753
Rp754
aasg196
(lp755
F45.840198040008545
aF45.840198040008545
aF43.0976037979126
aF61.46209907531738
aF64.13277316093445
aF75.2263491153717
aF57.792272090911865
aF60.68556308746338
aF53.62473106384277
aF48.13178586959839
aF53.32864308357239
aF53.22152090072632
aF58.158090114593506
aF47.24729108810425
aF55.3987250328064
aF63.43503713607788
aF60.18390202522278
aF56.81290102005005
aF55.9086639881134
aF64.42115783691406
aF69.99879908561707
assS'SS-I'
p756
(dp757
g3
(lp758
(lp759
I51
aag759
a(lp760
I51
aa(lp761
I51
aa(lp762
I51
aa(lp763
I51
aa(lp764
I51
aa(lp765
I51
aa(lp766
I51
aa(lp767
I51
aa(lp768
I51
aa(lp769
I51
aa(lp770
I51
aa(lp771
I51
aa(lp772
I51
aa(lp773
I51
aa(lp774
I51
aa(lp775
I51
aa(lp776
I51
aa(lp777
I51
aa(lp778
I51
aasg25
(lp779
(lp780
g28
(g32
S'\x00\x00\x00\x00\x00\x00\x00\x00'
p781
tp782
Rp783
aag780
a(lp784
g28
(g32
S'\x00\x00\x00\x00\x00\x00\x00\x00'
p785
tp786
Rp787
aa(lp788
g28
(g32
S'\\\xb0\xca\xf6\x08\x07\t?'
p789
tp790
Rp791
aa(lp792
g28
(g32
S'\x00\x00\x00\x00\x00\x00\x00\x00'
p793
tp794
Rp795
aa(lp796
g28
(g32
S'\x00\x00\x00\x00\x00\x00\x00\x00'
p797
tp798
Rp799
aa(lp800
g28
(g32
S'\x00\x00\x00\x00\x00\x00\x00\x00'
p801
tp802
Rp803
aa(lp804
g28
(g32
S'\x00\x00\x00\x00\x00\x00\x00\x00'
p805
tp806
Rp807
aa(lp808
g28
(g32
S'\x00\x00\x00\x00\x00\x00\x00\x00'
p809
tp810
Rp811
aa(lp812
g28
(g32
S'\x00\x00\x00\x00\x00\x00\x00\x00'
p813
tp814
Rp815
aa(lp816
g28
(g32
S'\xcbV\xfa\x7f\xad\xdb\xe2>'
p817
tp818
Rp819
aa(lp820
g28
(g32
S'\x00\x00\x00\x00\x00\x00\x00\x00'
p821
tp822
Rp823
aa(lp824
g28
(g32
S'\x00\x00\x00\x00\x00\x00\x00\x00'
p825
tp826
Rp827
aa(lp828
g28
(g32
S'\x00\x00\x00\x00\x00\x00\x00\x00'
p829
tp830
Rp831
aa(lp832
g28
(g32
S'\xcbV\xfa\x7f\xad\xdb\xe2>'
p833
tp834
Rp835
aa(lp836
g28
(g32
S'\xcbV\xfa\x7f\xad\xdb\xe2>'
p837
tp838
Rp839
aa(lp840
g28
(g32
S'\x00\x00\x00\x00\x00\x00\x00\x00'
p841
tp842
Rp843
aa(lp844
g28
(g32
S'\x00\x00\x00\x00\x00\x00\x00\x00'
p845
tp846
Rp847
aa(lp848
g28
(g32
S'\x00\x00\x00\x00\x00\x00\x00\x00'
p849
tp850
Rp851
aa(lp852
g28
(g32
S'\x00\x00\x00\x00\x00\x00\x00\x00'
p853
tp854
Rp855
aa(lp856
g28
(g32
S'\x00\x00\x00\x00\x00\x00\x00\x00'
p857
tp858
Rp859
aasg114
(lp860
(lp861
g28
(g32
S'\x00\x00\x00\x00\x00\x00\x00\x00'
p862
tp863
Rp864
aag861
a(lp865
g28
(g32
S'\x00\x00\x00\x00\x00\x00\x00\x00'
p866
tp867
Rp868
aa(lp869
g28
(g32
S'\xba\x1c\x8e\x16\xa7\xab\x10?'
p870
tp871
Rp872
aa(lp873
g28
(g32
S'\x00\x00\x00\x00\x00\x00\x00\x00'
p874
tp875
Rp876
aa(lp877
g28
(g32
S'\x00\x00\x00\x00\x00\x00\x00\x00'
p878
tp879
Rp880
aa(lp881
g28
(g32
S'\x00\x00\x00\x00\x00\x00\x00\x00'
p882
tp883
Rp884
aa(lp885
g28
(g32
S'\x00\x00\x00\x00\x00\x00\x00\x00'
p886
tp887
Rp888
aa(lp889
g28
(g32
S'\x00\x00\x00\x00\x00\x00\x00\x00'
p890
tp891
Rp892
aa(lp893
g28
(g32
S'\x00\x00\x00\x00\x00\x00\x00\x00'
p894
tp895
Rp896
aa(lp897
g28
(g32
S'\xcbV\xfa\x7f\xad\xdb\xe2>'
p898
tp899
Rp900
aa(lp901
g28
(g32
S'\x00\x00\x00\x00\x00\x00\x00\x00'
p902
tp903
Rp904
aa(lp905
g28
(g32
S'\x00\x00\x00\x00\x00\x00\x00\x00'
p906
tp907
Rp908
aa(lp909
g28
(g32
S'\x00\x00\x00\x00\x00\x00\x00\x00'
p910
tp911
Rp912
aa(lp913
g28
(g32
S'\xcbV\xfa\x7f\xad\xdb\xe2>'
p914
tp915
Rp916
aa(lp917
g28
(g32
S'\xcbV\xfa\x7f\xad\xdb\xe2>'
p918
tp919
Rp920
aa(lp921
g28
(g32
S'\x00\x00\x00\x00\x00\x00\x00\x00'
p922
tp923
Rp924
aa(lp925
g28
(g32
S'\x00\x00\x00\x00\x00\x00\x00\x00'
p926
tp927
Rp928
aa(lp929
g28
(g32
S'\x00\x00\x00\x00\x00\x00\x00\x00'
p930
tp931
Rp932
aa(lp933
g28
(g32
S'\x00\x00\x00\x00\x00\x00\x00\x00'
p934
tp935
Rp936
aa(lp937
g28
(g32
S'\x00\x00\x00\x00\x00\x00\x00\x00'
p938
tp939
Rp940
aasg196
(lp941
F1.680769920349121
aF1.680769920349121
aF1.6159470081329346
aF1.6261470317840576
aF1.5934739112854004
aF1.5357451438903809
aF1.5296199321746826
aF1.5252389907836914
aF1.524271011352539
aF1.5455870628356934
aF1.5947229862213135
aF1.5016770362854004
aF1.5261650085449219
aF1.5925428867340088
aF1.616943120956421
aF1.5491878986358643
aF1.5401129722595215
aF1.5231480598449707
aF1.5124528408050537
aF1.5347230434417725
aF1.5795249938964844
assS'SS-H'
p942
(dp943
g3
(lp944
(lp945
I51
aag945
a(lp946
I51
aa(lp947
I51
aa(lp948
I51
aa(lp949
I51
aa(lp950
I51
aa(lp951
I51
aa(lp952
I51
aa(lp953
I51
aa(lp954
I51
aa(lp955
I51
aa(lp956
I51
aa(lp957
I51
aa(lp958
I51
aa(lp959
I51
aa(lp960
I51
aa(lp961
I51
aa(lp962
I51
aa(lp963
I51
aa(lp964
I51
aasg25
(lp965
(lp966
g28
(g32
S'R\xeb\xaaF\xdbUO?'
p967
tp968
Rp969
aag966
a(lp970
g28
(g32
S'@\xec\x89i\xb8\xc1+?'
p971
tp972
Rp973
aa(lp974
g28
(g32
S'q_\xf2\xa9\xbc\xa1\xc6>'
p975
tp976
Rp977
aa(lp978
g28
(g32
S'\x01\xe3\x81\xf5Z\xa3_?'
p979
tp980
Rp981
aa(lp982
g28
(g32
S'\xd8\xb7\xedjA*O?'
p983
tp984
Rp985
aa(lp986
g28
(g32
S'\x04k\xa5\xdf.\xbb\x19?'
p987
tp988
Rp989
aa(lp990
g28
(g32
S'RgIN\x12\xe9N?'
p991
tp992
Rp993
aa(lp994
g28
(g32
S'\xa6\xfc\x80R\x17\xf9 ?'
p995
tp996
Rp997
aa(lp998
g28
(g32
S'\xc9!\xd2#\x16\x9b9?'
p999
tp1000
Rp1001
aa(lp1002
g28
(g32
S'\xc0\xc5\xb7=c\xcf-?'
p1003
tp1004
Rp1005
aa(lp1006
g28
(g32
S'\xc5\xc8\xa0V\x00t_?'
p1007
tp1008
Rp1009
aa(lp1010
g28
(g32
S'*@`o\x9buP?'
p1011
tp1012
Rp1013
aa(lp1014
g28
(g32
S'@\xec\x89i\xb8\xc1+?'
p1015
tp1016
Rp1017
aa(lp1018
g28
(g32
S'_\xc6\x94\xea\xd1\x04\x1d?'
p1019
tp1020
Rp1021
aa(lp1022
g28
(g32
S'\x00\x00\x00\x00\x00\x00\x00\x00'
p1023
tp1024
Rp1025
aa(lp1026
g28
(g32
S'\xc5\x06p\xda\x9b=_?'
p1027
tp1028
Rp1029
aa(lp1030
g28
(g32
S'@\xec\x89i\xb8\xc1+?'
p1031
tp1032
Rp1033
aa(lp1034
g28
(g32
S'\x01\xe3\x81\xf5Z\xa3_?'
p1035
tp1036
Rp1037
aa(lp1038
g28
(g32
S'\x98HO\xcf[\x93P?'
p1039
tp1040
Rp1041
aa(lp1042
g28
(g32
S"\x03\xc0\xc8\xd8\xa9\x14'?"
p1043
tp1044
Rp1045
aasg114
(lp1046
(lp1047
g28
(g32
S'\xb5\xbd\x0e\x8b\xdco\x10?'
p1048
tp1049
Rp1050
aag1047
a(lp1051
g28
(g32
S'\xe6<\xab\xcbH\xb4\xc2>'
p1052
tp1053
Rp1054
aa(lp1055
g28
(g32
S'\x00\x00\x00\x00\x00\x00\x00\x00'
p1056
tp1057
Rp1058
aa(lp1059
g28
(g32
S'\x00\x00\x00\x00\x00\x00\x00\x00'
p1060
tp1061
Rp1062
aa(lp1063
g28
(g32
S'mb\xe9\xe0It\xf3>'
p1064
tp1065
Rp1066
aa(lp1067
g28
(g32
S'\x00\x00\x00\x00\x00\x00\x00\x00'
p1068
tp1069
Rp1070
aa(lp1071
g28
(g32
S'\x9c\x17l\xd1~\x05\x11?'
p1072
tp1073
Rp1074
aa(lp1075
g28
(g32
S'\xe6<\xab\xcbH\xb4\xc2>'
p1076
tp1077
Rp1078
aa(lp1079
g28
(g32
S'\xe3\x85=\xefo\xa0\x99?'
p1080
tp1081
Rp1082
aa(lp1083
g28
(g32
S'\x00\x00\x00\x00\x00\x00\x00\x00'
p1084
tp1085
Rp1086
aa(lp1087
g28
(g32
S'\x00\x00\x00\x00\x00\x00\x00\x00'
p1088
tp1089
Rp1090
aa(lp1091
g28
(g32
S'\xe4[\x1b\xc4*\xa0\x1a?'
p1092
tp1093
Rp1094
aa(lp1095
g28
(g32
S'\xd5\xbarSy,\xcf>'
p1096
tp1097
Rp1098
aa(lp1099
g28
(g32
S"'s\x90%\x7f\xdc~?"
p1100
tp1101
Rp1102
aa(lp1103
g28
(g32
S'\x00\x00\x00\x00\x00\x00\x00\x00'
p1104
tp1105
Rp1106
aa(lp1107
g28
(g32
S'\xd5\xbarSy,\xcf>'
p1108
tp1109
Rp1110
aa(lp1111
g28
(g32
S' \x0c\x96\xfeZa\xc7>'
p1112
tp1113
Rp1114
aa(lp1115
g28
(g32
S'\x00\x00\x00\x00\x00\x00\x00\x00'
p1116
tp1117
Rp1118
aa(lp1119
g28
(g32
S'\xb5\x93\x00\xf9\x1a\xaa\x85?'
p1120
tp1121
Rp1122
aa(lp1123
g28
(g32
S'\x00\x00\x00\x00\x00\x00\x00\x00'
p1124
tp1125
Rp1126
aasg196
(lp1127
F0.45555996894836426
aF0.45555996894836426
aF0.4397389888763428
aF0.29747605323791504
aF0.30043792724609375
aF0.29573488235473633
aF0.27600789070129395
aF0.30425119400024414
aF0.29488706588745117
aF0.32297396659851074
aF0.3160359859466553
aF0.342850923538208
aF0.35592007637023926
aF0.443897008895874
aF0.4307899475097656
aF0.4073309898376465
aF0.43282389640808105
aF0.35893678665161133
aF0.3429911136627197
aF0.34397315979003906
aF0.3223280906677246
assS'SS-K'
p1128
(dp1129
g3
(lp1130
(lp1131
I51
aag1131
a(lp1132
I51
aa(lp1133
I51
aa(lp1134
I51
aa(lp1135
I51
aa(lp1136
I51
aa(lp1137
I51
aa(lp1138
I51
aa(lp1139
I51
aa(lp1140
I51
aa(lp1141
I51
aa(lp1142
I51
aa(lp1143
I51
aa(lp1144
I51
aa(lp1145
I51
aa(lp1146
I51
aa(lp1147
I51
aa(lp1148
I51
aa(lp1149
I51
aa(lp1150
I51
aasg25
(lp1151
(lp1152
g28
(g32
S'\\\x84}+\xdd\x00\x8d?'
p1153
tp1154
Rp1155
aag1152
a(lp1156
g28
(g32
S'\x8c\x1fq\xb2q\xf5c?'
p1157
tp1158
Rp1159
aa(lp1160
g28
(g32
S'CG\xae\xef\xf6gy?'
p1161
tp1162
Rp1163
aa(lp1164
g28
(g32
S'\xc7\xa8\xdd\x8e\xa2\xe6d?'
p1165
tp1166
Rp1167
aa(lp1168
g28
(g32
S'\x91\x8e\xa3A\x13\xfah?'
p1169
tp1170
Rp1171
aa(lp1172
g28
(g32
S'\x0c-o\xa7\x8c\xe2e?'
p1173
tp1174
Rp1175
aa(lp1176
g28
(g32
S'\xa1d\xd2\x8e\xadJV?'
p1177
tp1178
Rp1179
aa(lp1180
g28
(g32
S'\xad\xb2 \xb6s7p?'
p1181
tp1182
Rp1183
aa(lp1184
g28
(g32
S'fv\xd2\x81`ZZ?'
p1185
tp1186
Rp1187
aa(lp1188
g28
(g32
S'!\x85\x93\xe0\xad\x18s?'
p1189
tp1190
Rp1191
aa(lp1192
g28
(g32
S'\xd0\xee\xf20\xc6\x15h?'
p1193
tp1194
Rp1195
aa(lp1196
g28
(g32
S'\xd9l\xc0\xac\xda\x95e?'
p1197
tp1198
Rp1199
aa(lp1200
g28
(g32
S'\x91.V\xca\x8a`\x8f?'
p1201
tp1202
Rp1203
aa(lp1204
g28
(g32
S'\xfcb0\xb2Y\x90g?'
p1205
tp1206
Rp1207
aa(lp1208
g28
(g32
S'\xb3s\x0cdGE_?'
p1209
tp1210
Rp1211
aa(lp1212
g28
(g32
S'-\x91\xae\xca\xd7\xa1q?'
p1213
tp1214
Rp1215
aa(lp1216
g28
(g32
S'\x81yX3\xa6\xea\\?'
p1217
tp1218
Rp1219
aa(lp1220
g28
(g32
S'^.\xb8~\x8c\xd5P?'
p1221
tp1222
Rp1223
aa(lp1224
g28
(g32
S'A\xee\xbd\xf5\x00\x88W?'
p1225
tp1226
Rp1227
aa(lp1228
g28
(g32
S'\xd7\x97\xdf\xf2/\x83c?'
p1229
tp1230
Rp1231
aasg114
(lp1232
(lp1233
g28
(g32
S'\xa0_\xe5S\xbeAM?'
p1234
tp1235
Rp1236
aag1233
a(lp1237
g28
(g32
S'\x0b\xfeL\x14\xd8\xd4_?'
p1238
tp1239
Rp1240
aa(lp1241
g28
(g32
S'\x02\xdf\xa3X\xdd\x18`?'
p1242
tp1243
Rp1244
aa(lp1245
g28
(g32
S'5\xb9\xed\xf84\x07N?'
p1246
tp1247
Rp1248
aa(lp1249
g28
(g32
S'\x17\xd0\xd8\x14\x9d\x07S?'
p1250
tp1251
Rp1252
aa(lp1253
g28
(g32
S'\x0eOn\xb03T=?'
p1254
tp1255
Rp1256
aa(lp1257
g28
(g32
S'\xf2\xb4(nhE\\?'
p1258
tp1259
Rp1260
aa(lp1261
g28
(g32
S'\xea\x98\x91\xfc\x0c\xc6e?'
p1262
tp1263
Rp1264
aa(lp1265
g28
(g32
S':\xe2\x8e\x9a\xea\xf7F?'
p1266
tp1267
Rp1268
aa(lp1269
g28
(g32
S'3k\xd0\x9b\xd2QZ?'
p1270
tp1271
Rp1272
aa(lp1273
g28
(g32
S'z\xdf\xdes\xe1\xf92?'
p1274
tp1275
Rp1276
aa(lp1277
g28
(g32
S'Ur\xed\xf3\xb2\xec1?'
p1278
tp1279
Rp1280
aa(lp1281
g28
(g32
S'\xcf \x13&\xe3\xa3"?'
p1282
tp1283
Rp1284
aa(lp1285
g28
(g32
S'6\xff\xf3\x087\x8eM?'
p1286
tp1287
Rp1288
aa(lp1289
g28
(g32
S'b+\xe0\xdf\x96\xd2F?'
p1290
tp1291
Rp1292
aa(lp1293
g28
(g32
S"\rn\x88\x9d'\x07S?"
p1294
tp1295
Rp1296
aa(lp1297
g28
(g32
S'x\x04\xd5\x05z\x15V?'
p1298
tp1299
Rp1300
aa(lp1301
g28
(g32
S'i.\xaaH\x8a\xa9`?'
p1302
tp1303
Rp1304
aa(lp1305
g28
(g32
S'DLR"\\xA?'
p1306
tp1307
Rp1308
aa(lp1309
g28
(g32
S'\xdd\xefs^\xfa\x13O?'
p1310
tp1311
Rp1312
aasg196
(lp1313
F4.364964008331299
aF4.364964008331299
aF4.14340615272522
aF4.275253057479858
aF4.175933122634888
aF4.2016990184783936
aF4.197139024734497
aF4.439379930496216
aF4.19916296005249
aF4.397174119949341
aF4.169709920883179
aF4.295641899108887
aF4.311891078948975
aF4.264026880264282
aF4.460687160491943
aF4.269366025924683
aF4.395587921142578
aF4.130863904953003
aF4.2185680866241455
aF4.155331134796143
aF4.3158509731292725
assS'SS-J'
p1314
(dp1315
g3
(lp1316
(lp1317
I51
aag1317
a(lp1318
I51
aa(lp1319
I51
aa(lp1320
I51
aa(lp1321
I51
aa(lp1322
I51
aa(lp1323
I51
aa(lp1324
I51
aa(lp1325
I51
aa(lp1326
I51
aa(lp1327
I51
aa(lp1328
I51
aa(lp1329
I51
aa(lp1330
I51
aa(lp1331
I51
aa(lp1332
I51
aa(lp1333
I51
aa(lp1334
I51
aa(lp1335
I51
aa(lp1336
I51
aasg25
(lp1337
(lp1338
g28
(g32
S'I\xc1\xcb\xd2\x16\xfbN?'
p1339
tp1340
Rp1341
aag1338
a(lp1342
g28
(g32
S'\xac=k\x0b\x9a\xf4I?'
p1343
tp1344
Rp1345
aa(lp1346
g28
(g32
S'\x9a-\xbf\x11\xf90\x8b?'
p1347
tp1348
Rp1349
aa(lp1350
g28
(g32
S'\xc5\xa3\xa0B8\x81\x87?'
p1351
tp1352
Rp1353
aa(lp1354
g28
(g32
S'\x9a\xe8_\xbc\x04\xc5X?'
p1355
tp1356
Rp1357
aa(lp1358
g28
(g32
S'\xc4\xe9\x08\x1cn\xa0f?'
p1359
tp1360
Rp1361
aa(lp1362
g28
(g32
S'e\xc9\x99\xe2\xab\x1a`?'
p1363
tp1364
Rp1365
aa(lp1366
g28
(g32
S'3\xe3\xe7T\xf7\xe3S?'
p1367
tp1368
Rp1369
aa(lp1370
g28
(g32
S'E\x8d\xcd%\xca\x97R?'
p1371
tp1372
Rp1373
aa(lp1374
g28
(g32
S'\xc4OKy&\xc8c?'
p1375
tp1376
Rp1377
aa(lp1378
g28
(g32
S'\xdah\xeb\xa1`\xf7c?'
p1379
tp1380
Rp1381
aa(lp1382
g28
(g32
S'\xfa\xed\xc5\xaaQ\xceB?'
p1383
tp1384
Rp1385
aa(lp1386
g28
(g32
S'\xaeV\xe9\xbd\x87)\\?'
p1387
tp1388
Rp1389
aa(lp1390
g28
(g32
S'\x17\xaekz\xba\xd6a?'
p1391
tp1392
Rp1393
aa(lp1394
g28
(g32
S'HX\xb4\xabV#j?'
p1395
tp1396
Rp1397
aa(lp1398
g28
(g32
S'.\x85\xcf\x99E\xcdc?'
p1399
tp1400
Rp1401
aa(lp1402
g28
(g32
S'i\t|X{8b?'
p1403
tp1404
Rp1405
aa(lp1406
g28
(g32
S'Z\xb3\xf30 \t_?'
p1407
tp1408
Rp1409
aa(lp1410
g28
(g32
S'%p\xf61z1`?'
p1411
tp1412
Rp1413
aa(lp1414
g28
(g32
S'\x05(\x94\x80\xff\xf5c?'
p1415
tp1416
Rp1417
aasg114
(lp1418
(lp1419
g28
(g32
S'\xcb+B\xde\xf6\xa9+?'
p1420
tp1421
Rp1422
aag1419
a(lp1423
g28
(g32
S'\xd62}-\xc9\x1a\x1f?'
p1424
tp1425
Rp1426
aa(lp1427
g28
(g32
S'<+-Q\x0c\xf5\x00?'
p1428
tp1429
Rp1430
aa(lp1431
g28
(g32
S'\xe5\x93F\xb2\xfb\xef;?'
p1432
tp1433
Rp1434
aa(lp1435
g28
(g32
S'\xac-\xae\xa9\xcb\x93#?'
p1436
tp1437
Rp1438
aa(lp1439
g28
(g32
S'\x06\xac"\xe1\xc7yJ?'
p1440
tp1441
Rp1442
aa(lp1443
g28
(g32
S'\xe5k\xd2g&\xf4\x17?'
p1444
tp1445
Rp1446
aa(lp1447
g28
(g32
S'\xe4\x03H\xc5\xac2)?'
p1448
tp1449
Rp1450
aa(lp1451
g28
(g32
S'%\xd2\xa2SdB-?'
p1452
tp1453
Rp1454
aa(lp1455
g28
(g32
S'\x92s\xbb+\xdf\xeaO?'
p1456
tp1457
Rp1458
aa(lp1459
g28
(g32
S'\x8f\xe9\xbf\x9a\xa3\x8c1?'
p1460
tp1461
Rp1462
aa(lp1463
g28
(g32
S'1\xd5\xe9\xe5-l\x06?'
p1464
tp1465
Rp1466
aa(lp1467
g28
(g32
S'\xc4\xf2\x8f,\xbd\x83C?'
p1468
tp1469
Rp1470
aa(lp1471
g28
(g32
S'\xe9\xf0*\x0c\x84aB?'
p1472
tp1473
Rp1474
aa(lp1475
g28
(g32
S'z\xf8\xd6k\xf31\x00?'
p1476
tp1477
Rp1478
aa(lp1479
g28
(g32
S'\xb5\xaa=\xa4\x1d\xb5:?'
p1480
tp1481
Rp1482
aa(lp1483
g28
(g32
S'\x15\x00\xf6\x10\xbd\xc7\x05?'
p1484
tp1485
Rp1486
aa(lp1487
g28
(g32
S'\xa2~eV\x94:\n?'
p1488
tp1489
Rp1490
aa(lp1491
g28
(g32
S'\x1b\xda\xb2\xbe\x90\x1e\xf2>'
p1492
tp1493
Rp1494
aa(lp1495
g28
(g32
S'\xac\xe6\x13cFp\x16?'
p1496
tp1497
Rp1498
aasg196
(lp1499
F6.318679094314575
aF6.318679094314575
aF6.130115032196045
aF5.9100799560546875
aF6.004608869552612
aF6.227385997772217
aF6.296868801116943
aF6.34247612953186
aF6.433406114578247
aF6.118275880813599
aF5.823535919189453
aF6.029673099517822
aF6.069505929946899
aF6.036144971847534
aF6.698445081710815
aF6.498828887939453
aF5.920331001281738
aF6.193990230560303
aF6.121838808059692
aF6.343628883361816
aF6.227245092391968
assS'SS-E'
p1500
(dp1501
g3
(lp1502
(lp1503
I51
aag1503
a(lp1504
I51
aa(lp1505
I51
aa(lp1506
I51
aa(lp1507
I51
aa(lp1508
I51
aa(lp1509
I51
aa(lp1510
I51
aa(lp1511
I51
aa(lp1512
I51
aa(lp1513
I51
aa(lp1514
I51
aa(lp1515
I51
aa(lp1516
I51
aa(lp1517
I51
aa(lp1518
I51
aa(lp1519
I51
aa(lp1520
I51
aa(lp1521
I51
aa(lp1522
I51
aasg25
(lp1523
(lp1524
g28
(g32
S'\x7fgK\xb8f6\x83?'
p1525
tp1526
Rp1527
aag1524
a(lp1528
g28
(g32
S'\xa9A\xa9*\x86#\x80?'
p1529
tp1530
Rp1531
aa(lp1532
g28
(g32
S'\x178\x89\x0f\xe3\xde\x8b?'
p1533
tp1534
Rp1535
aa(lp1536
g28
(g32
S'D\x03\xf5\x86\xb2J\x89?'
p1537
tp1538
Rp1539
aa(lp1540
g28
(g32
S'D\xb3\xd7\xc1\xe7\x80\x8a?'
p1541
tp1542
Rp1543
aa(lp1544
g28
(g32
S'\xb3\x1a\xbd\x07Mx\x91?'
p1545
tp1546
Rp1547
aa(lp1548
g28
(g32
S'\x04S\xbd\x029\xdf\xa1?'
p1549
tp1550
Rp1551
aa(lp1552
g28
(g32
S"{'g\xb5\xc4m\x95?"
p1553
tp1554
Rp1555
aa(lp1556
g28
(g32
S'\x88R\x8a%\xbdu\x91?'
p1557
tp1558
Rp1559
aa(lp1560
g28
(g32
S'\x1f\xc1!\xf8\xc0\x80\x94?'
p1561
tp1562
Rp1563
aa(lp1564
g28
(g32
S'\xbe\xe1\xc4{G\x96\x89?'
p1565
tp1566
Rp1567
aa(lp1568
g28
(g32
S'`?&,=G\x7f?'
p1569
tp1570
Rp1571
aa(lp1572
g28
(g32
S'*\x98\xca\x9e\x12+\x91?'
p1573
tp1574
Rp1575
aa(lp1576
g28
(g32
S'\xf9\x9e@\x03\xf3/\x94?'
p1577
tp1578
Rp1579
aa(lp1580
g28
(g32
S'8p\xa7\xc6SNw?'
p1581
tp1582
Rp1583
aa(lp1584
g28
(g32
S'@\xb0F_D\xc7r?'
p1585
tp1586
Rp1587
aa(lp1588
g28
(g32
S"E'\x1c\xd7\xfb^\x87?"
p1589
tp1590
Rp1591
aa(lp1592
g28
(g32
S'\x94#S"X-\x85?'
p1593
tp1594
Rp1595
aa(lp1596
g28
(g32
S'\xd2\x9aYE\x8b\xed\xa1?'
p1597
tp1598
Rp1599
aa(lp1600
g28
(g32
S' e\xcd\x8fh7j?'
p1601
tp1602
Rp1603
aasg114
(lp1604
(lp1605
g28
(g32
S'\xbe\xc6\xb6\xdf\xbd\xa7o?'
p1606
tp1607
Rp1608
aag1605
a(lp1609
g28
(g32
S'o\x16\xca\x90^oh?'
p1610
tp1611
Rp1612
aa(lp1613
g28
(g32
S'\x97\xbd\xe3wG\x8d}?'
p1614
tp1615
Rp1616
aa(lp1617
g28
(g32
S'\x9cr\\6\x17.M?'
p1618
tp1619
Rp1620
aa(lp1621
g28
(g32
S'E\x86\xbd\xb8\xb6@N?'
p1622
tp1623
Rp1624
aa(lp1625
g28
(g32
S'\xd5\xf6\xfca\xa0BG?'
p1626
tp1627
Rp1628
aa(lp1629
g28
(g32
S'\x96Q\xf3\xb6\xee\xa3D?'
p1630
tp1631
Rp1632
aa(lp1633
g28
(g32
S'\xd0\xe9\xdcZ\xb8\xb1i?'
p1634
tp1635
Rp1636
aa(lp1637
g28
(g32
S'4/O\x03\xe7\x16`?'
p1638
tp1639
Rp1640
aa(lp1641
g28
(g32
S'\xce\xcdlI\x15\x84p?'
p1642
tp1643
Rp1644
aa(lp1645
g28
(g32
S'<\xcb\x9d\xf7t\x8aQ?'
p1646
tp1647
Rp1648
aa(lp1649
g28
(g32
S'\xf8u\xb3o\xe3Hm?'
p1650
tp1651
Rp1652
aa(lp1653
g28
(g32
S'\xfd\xf9\xa9\x91"/v?'
p1654
tp1655
Rp1656
aa(lp1657
g28
(g32
S'o"\xcf\\?\xd1!?'
p1658
tp1659
Rp1660
aa(lp1661
g28
(g32
S'\n&\xc1g\xfc Q?'
p1662
tp1663
Rp1664
aa(lp1665
g28
(g32
S'\xd2\x96t\x19\xa3ka?'
p1666
tp1667
Rp1668
aa(lp1669
g28
(g32
S'\x7fA\xe9\x98H;\x83?'
p1670
tp1671
Rp1672
aa(lp1673
g28
(g32
S'\xfaehvP\xcaR?'
p1674
tp1675
Rp1676
aa(lp1677
g28
(g32
S'\xbf\xb1O5\t$\x98?'
p1678
tp1679
Rp1680
aa(lp1681
g28
(g32
S'\x8d\xfb\x9f&\x11\x10\\?'
p1682
tp1683
Rp1684
aasg196
(lp1685
F1.2283298969268799
aF1.2283298969268799
aF1.179961919784546
aF0.7653720378875732
aF0.7585690021514893
aF0.7788019180297852
aF0.8096399307250977
aF0.8332018852233887
aF0.7632701396942139
aF0.7924408912658691
aF0.8370540142059326
aF0.8015501499176025
aF0.8121581077575684
aF1.1434621810913086
aF1.0951080322265625
aF0.7914400100708008
aF0.8366649150848389
aF0.7923810482025146
aF0.8264720439910889
aF0.8334040641784668
aF0.8301639556884766
assS'SS-D'
p1686
(dp1687
g3
(lp1688
(lp1689
I51
aag1689
a(lp1690
I51
aa(lp1691
I51
aa(lp1692
I51
aa(lp1693
I51
aa(lp1694
I51
aa(lp1695
I51
aa(lp1696
I51
aa(lp1697
I51
aa(lp1698
I51
aa(lp1699
I51
aa(lp1700
I51
aa(lp1701
I51
aa(lp1702
I51
aa(lp1703
I51
aa(lp1704
I51
aa(lp1705
I51
aa(lp1706
I51
aa(lp1707
I51
aa(lp1708
I51
aasg25
(lp1709
(lp1710
g28
(g32
S'\x06\xbd\x05\xd9_z\x8d?'
p1711
tp1712
Rp1713
aag1710
a(lp1714
g28
(g32
S'\xfb|\xba\x1d>\x9d\xa4?'
p1715
tp1716
Rp1717
aa(lp1718
g28
(g32
S'\x06\x00\x8ay\x13\xd6\xa1?'
p1719
tp1720
Rp1721
aa(lp1722
g28
(g32
S'\xe6_\xa4`\xaf\xa1\x8b?'
p1723
tp1724
Rp1725
aa(lp1726
g28
(g32
S'\xcbjl\x9c\xc8\xb5\x93?'
p1727
tp1728
Rp1729
aa(lp1730
g28
(g32
S'\x19\xb3\x07mPpq?'
p1731
tp1732
Rp1733
aa(lp1734
g28
(g32
S'\t\x9a\x95\xb5q\xc4\x8b?'
p1735
tp1736
Rp1737
aa(lp1738
g28
(g32
S'\x8d\xae\xa5\x85\t\xd1z?'
p1739
tp1740
Rp1741
aa(lp1742
g28
(g32
S'l\xf1!\x89\x99#\x8b?'
p1743
tp1744
Rp1745
aa(lp1746
g28
(g32
S'g\xde\x8e\x85\xea\xe3\x99?'
p1747
tp1748
Rp1749
aa(lp1750
g28
(g32
S'\x13[\xc1&\xd0\xc7\x89?'
p1751
tp1752
Rp1753
aa(lp1754
g28
(g32
S'i\xef\x07\x11_>c?'
p1755
tp1756
Rp1757
aa(lp1758
g28
(g32
S'\x11\x0f\xa5Yg\xf8\xa0?'
p1759
tp1760
Rp1761
aa(lp1762
g28
(g32
S'\x9a\x1eR\xf5n\xea\x8c?'
p1763
tp1764
Rp1765
aa(lp1766
g28
(g32
S'\x19\x86b\xd8)\x9f\xa8?'
p1767
tp1768
Rp1769
aa(lp1770
g28
(g32
S'+\x0f\xce\xd2\xb9X\x90?'
p1771
tp1772
Rp1773
aa(lp1774
g28
(g32
S'w&\xaf\xddL\xf2\x93?'
p1775
tp1776
Rp1777
aa(lp1778
g28
(g32
S'\xdc9hn\xd3\xdfw?'
p1779
tp1780
Rp1781
aa(lp1782
g28
(g32
S':\xd2kBn5\x9e?'
p1783
tp1784
Rp1785
aa(lp1786
g28
(g32
S'\xe6|\x86\xd6-\x02\x8d?'
p1787
tp1788
Rp1789
aasg114
(lp1790
(lp1791
g28
(g32
S'\xe7\xf26\x18k\xcb\x81?'
p1792
tp1793
Rp1794
aag1791
a(lp1795
g28
(g32
S'\xa7\xcd+\xc5\xe8|\x18?'
p1796
tp1797
Rp1798
aa(lp1799
g28
(g32
S'y\x80\xac\xf2s\x9a\xb2?'
p1800
tp1801
Rp1802
aa(lp1803
g28
(g32
S't\xff\x8c\xe7U\xbbO?'
p1804
tp1805
Rp1806
aa(lp1807
g28
(g32
S'\xaa~bBjC\x92?'
p1808
tp1809
Rp1810
aa(lp1811
g28
(g32
S'K\xc5\xed\x02\x9d\xf0\x14?'
p1812
tp1813
Rp1814
aa(lp1815
g28
(g32
S'\xe8\x89Q\xaa\xb7K\x7f?'
p1816
tp1817
Rp1818
aa(lp1819
g28
(g32
S'\x1d\\2y2\x1b\x8c?'
p1820
tp1821
Rp1822
aa(lp1823
g28
(g32
S'2l\x88\xaa\x89U\xa4?'
p1824
tp1825
Rp1826
aa(lp1827
g28
(g32
S'\x15\xa0\x9b\x1bR\xe9\x99?'
p1828
tp1829
Rp1830
aa(lp1831
g28
(g32
S'\xa2\xc3\x04\xcc\xb3\xf7\x92?'
p1832
tp1833
Rp1834
aa(lp1835
g28
(g32
S'\xd1\x8e=\xc1\xa2ZP?'
p1836
tp1837
Rp1838
aa(lp1839
g28
(g32
S'\xa1\x7f}\x94@\xe4\xaa?'
p1840
tp1841
Rp1842
aa(lp1843
g28
(g32
S'\xfbn=\xe2hG+?'
p1844
tp1845
Rp1846
aa(lp1847
g28
(g32
S'k\xba\x84\xc61\xb5\x06?'
p1848
tp1849
Rp1850
aa(lp1851
g28
(g32
S'\x06\xb6EZ\x18N\x9f?'
p1852
tp1853
Rp1854
aa(lp1855
g28
(g32
S'\t\x9e\xf21\xad|\x8e?'
p1856
tp1857
Rp1858
aa(lp1859
g28
(g32
S'\xb5$Sbi\x93\xfc>'
p1860
tp1861
Rp1862
aa(lp1863
g28
(g32
S'Y\xa0\xdd?\xca\x89o?'
p1864
tp1865
Rp1866
aa(lp1867
g28
(g32
S'\x97\xc3\x8f|,\x1c!?'
p1868
tp1869
Rp1870
aasg196
(lp1871
F0.45386791229248047
aF0.45386791229248047
aF0.40906596183776855
aF0.28675103187561035
aF0.33354997634887695
aF0.3225679397583008
aF0.3352339267730713
aF0.3968479633331299
aF0.3343508243560791
aF0.3169820308685303
aF0.34204697608947754
aF0.2935960292816162
aF0.5851058959960938
aF0.3562140464782715
aF0.32795214653015137
aF0.3292989730834961
aF0.34366297721862793
aF0.3004589080810547
aF0.3041229248046875
aF0.3101539611816406
aF0.28936004638671875
assS'SS-G'
p1872
(dp1873
g3
(lp1874
(lp1875
I51
aag1875
a(lp1876
I51
aa(lp1877
I51
aa(lp1878
I51
aa(lp1879
I51
aa(lp1880
I51
aa(lp1881
I51
aa(lp1882
I51
aa(lp1883
I51
aa(lp1884
I51
aa(lp1885
I51
aa(lp1886
I51
aa(lp1887
I51
aa(lp1888
I51
aa(lp1889
I51
aa(lp1890
I51
aa(lp1891
I51
aa(lp1892
I51
aa(lp1893
I51
aa(lp1894
I51
aasg25
(lp1895
(lp1896
g28
(g32
S'VU\xa1\xefT\xcd\x98?'
p1897
tp1898
Rp1899
aag1896
a(lp1900
g28
(g32
S'z\xa3`\x8b )\xbd?'
p1901
tp1902
Rp1903
aa(lp1904
g28
(g32
S'\xa1\x83\xcd\xe3\xe3b~?'
p1905
tp1906
Rp1907
aa(lp1908
g28
(g32
S'\x18\xf1\xf9\xc5\x190\xa1?'
p1909
tp1910
Rp1911
aa(lp1912
g28
(g32
S'ul#\x8cx\xc4\x9f?'
p1913
tp1914
Rp1915
aa(lp1916
g28
(g32
S'\xd5\xa4\x00_\xbeB\xa1?'
p1917
tp1918
Rp1919
aa(lp1920
g28
(g32
S'\x89\xa4\xd4\x90\xe5\x7f{?'
p1921
tp1922
Rp1923
aa(lp1924
g28
(g32
S'\x01\xc0\xa1\x95~~{?'
p1925
tp1926
Rp1927
aa(lp1928
g28
(g32
S'\xa3\xa1\xff\xf2fg\x81?'
p1929
tp1930
Rp1931
aa(lp1932
g28
(g32
S'\xc8sO\xa2\x96\xd0\xa1?'
p1933
tp1934
Rp1935
aa(lp1936
g28
(g32
S'w\xb5\x08\xa2A7i?'
p1937
tp1938
Rp1939
aa(lp1940
g28
(g32
S'\x9f$\xe3\xcef2\x97?'
p1941
tp1942
Rp1943
aa(lp1944
g28
(g32
S'\xf8?:#\xed\xacr?'
p1945
tp1946
Rp1947
aa(lp1948
g28
(g32
S'\xee8\x0f\xdd\x13A\x9e?'
p1949
tp1950
Rp1951
aa(lp1952
g28
(g32
S'\xc2\xd7\xa8\x8f]\xb1\x96?'
p1953
tp1954
Rp1955
aa(lp1956
g28
(g32
S')K\xeex\xbb\xc0\x96?'
p1957
tp1958
Rp1959
aa(lp1960
g28
(g32
S"'\x05\x12\x8cye\x94?"
p1961
tp1962
Rp1963
aa(lp1964
g28
(g32
S' \x9f6Uf\xben?'
p1965
tp1966
Rp1967
aa(lp1968
g28
(g32
S'\xa3\xe7K\x818/\xc0?'
p1969
tp1970
Rp1971
aa(lp1972
g28
(g32
S'\x07\x95\x15\xa1\xb4\x95\xa1?'
p1973
tp1974
Rp1975
aasg114
(lp1976
(lp1977
g28
(g32
S'\x97\x06:#g\xb5\x93?'
p1978
tp1979
Rp1980
aag1977
a(lp1981
g28
(g32
S'\x01\xbc\xd4Rg&F?'
p1982
tp1983
Rp1984
aa(lp1985
g28
(g32
S'\x8e\xa0\xd0%Eis?'
p1986
tp1987
Rp1988
aa(lp1989
g28
(g32
S'wLI\xf9\xd3\xac\xa2?'
p1990
tp1991
Rp1992
aa(lp1993
g28
(g32
S'\xc2\xb5\x02\x9e\xee\x98\x81?'
p1994
tp1995
Rp1996
aa(lp1997
g28
(g32
S'5\xcdMu\x8b\xe5F?'
p1998
tp1999
Rp2000
aa(lp2001
g28
(g32
S'\xccfS?2k\x8c?'
p2002
tp2003
Rp2004
aa(lp2005
g28
(g32
S'x&P\x1b\xe9\xf3q?'
p2006
tp2007
Rp2008
aa(lp2009
g28
(g32
S'\xe0V\x0ew\xeb\x11\x86?'
p2010
tp2011
Rp2012
aa(lp2013
g28
(g32
S'G\x0fN\x8a\xedM2?'
p2014
tp2015
Rp2016
aa(lp2017
g28
(g32
S'V\xe6l\x05\xd9\xa8\x17?'
p2018
tp2019
Rp2020
aa(lp2021
g28
(g32
S'\xe5\x0c\xad\xe0=\xa0H?'
p2022
tp2023
Rp2024
aa(lp2025
g28
(g32
S'\xf0\xaa(\x06\xdeum?'
p2026
tp2027
Rp2028
aa(lp2029
g28
(g32
S'"7\xd0~s\xa7\x8f?'
p2030
tp2031
Rp2032
aa(lp2033
g28
(g32
S'\x92\xb8\x98\xb7_ON?'
p2034
tp2035
Rp2036
aa(lp2037
g28
(g32
S'\xba\xde\xe5\xf6\xbe\x8cD?'
p2038
tp2039
Rp2040
aa(lp2041
g28
(g32
S'\x83\x16\xbf\x0ew\x8cM?'
p2042
tp2043
Rp2044
aa(lp2045
g28
(g32
S'\xae\r\x84\xe5>\xacr?'
p2046
tp2047
Rp2048
aa(lp2049
g28
(g32
S'@\xfc\x83\xc9\x87\x95\x19?'
p2050
tp2051
Rp2052
aa(lp2053
g28
(g32
S'\xf0\xd5\x7fa&\x86\x88?'
p2054
tp2055
Rp2056
aasg196
(lp2057
F0.20574617385864258
aF0.20574617385864258
aF0.2031879425048828
aF0.20074796676635742
aF0.1813678741455078
aF0.18581914901733398
aF0.20966696739196777
aF0.19747209548950195
aF0.19302606582641602
aF0.19073796272277832
aF0.1941699981689453
aF0.19667887687683105
aF0.19983911514282227
aF0.2085859775543213
aF0.2031102180480957
aF0.1946561336517334
aF0.1992628574371338
aF0.20864200592041016
aF0.2118079662322998
aF0.2068188190460205
aF0.20209598541259766
assS'SS-F'
p2058
(dp2059
g3
(lp2060
(lp2061
I51
aag2061
a(lp2062
I51
aa(lp2063
I51
aa(lp2064
I51
aa(lp2065
I51
aa(lp2066
I51
aa(lp2067
I51
aa(lp2068
I51
aa(lp2069
I51
aa(lp2070
I51
aa(lp2071
I51
aa(lp2072
I51
aa(lp2073
I51
aa(lp2074
I51
aa(lp2075
I51
aa(lp2076
I51
aa(lp2077
I51
aa(lp2078
I51
aa(lp2079
I51
aa(lp2080
I51
aasg25
(lp2081
(lp2082
g28
(g32
S'\xbbf\xab\xa1 \x8eU?'
p2083
tp2084
Rp2085
aag2082
a(lp2086
g28
(g32
S'x\xf3j-\x9bJv?'
p2087
tp2088
Rp2089
aa(lp2090
g28
(g32
S'\x80H\x1d.7\xfd\xa0?'
p2091
tp2092
Rp2093
aa(lp2094
g28
(g32
S'\x04\x0fi"\xe9r\x84?'
p2095
tp2096
Rp2097
aa(lp2098
g28
(g32
S'\xa8C\xfd\xf4\t\xb8\x8a?'
p2099
tp2100
Rp2101
aa(lp2102
g28
(g32
S'\x9e\x98\xdfUb\x00\xa2?'
p2103
tp2104
Rp2105
aa(lp2106
g28
(g32
S'\x1aw\xa8Ul\\o?'
p2107
tp2108
Rp2109
aa(lp2110
g28
(g32
S'\x00\x7f8Ad;u?'
p2111
tp2112
Rp2113
aa(lp2114
g28
(g32
S'\xa8\xe3\xae\xc6\xb6\xcbu?'
p2115
tp2116
Rp2117
aa(lp2118
g28
(g32
S'Q\xca\x8f/\xcc1d?'
p2119
tp2120
Rp2121
aa(lp2122
g28
(g32
S'?\r\xe0\xd7\xf2\xe3\x88?'
p2123
tp2124
Rp2125
aa(lp2126
g28
(g32
S' &\xb5p\x03)U?'
p2127
tp2128
Rp2129
aa(lp2130
g28
(g32
S'\x9f\x00\xd2\x98B\x0c\xb3?'
p2131
tp2132
Rp2133
aa(lp2134
g28
(g32
S'2N\x1f8\x97\x9f\x91?'
p2135
tp2136
Rp2137
aa(lp2138
g28
(g32
S'w\xfc\xfa\x92\xf0\xa8y?'
p2139
tp2140
Rp2141
aa(lp2142
g28
(g32
S'\xe2\xc3\xb0}o\r\x8b?'
p2143
tp2144
Rp2145
aa(lp2146
g28
(g32
S'\xc9\x0c\xb84\xd0\x04\x96?'
p2147
tp2148
Rp2149
aa(lp2150
g28
(g32
S'\x86\x83?j\xe7\x02\x80?'
p2151
tp2152
Rp2153
aa(lp2154
g28
(g32
S'?o\x86IJ\xc5\x8a?'
p2155
tp2156
Rp2157
aa(lp2158
g28
(g32
S'\xbe\xd3\xf3\xbew\xdfy?'
p2159
tp2160
Rp2161
aasg114
(lp2162
(lp2163
g28
(g32
S'\x02Y3\xb5\xfaO\x89?'
p2164
tp2165
Rp2166
aag2163
a(lp2167
g28
(g32
S'\x95d"O\x90\xf5x?'
p2168
tp2169
Rp2170
aa(lp2171
g28
(g32
S'r\x99\xdb\xbb\x97O\xae?'
p2172
tp2173
Rp2174
aa(lp2175
g28
(g32
S' c+\xd0\x12\t\x94?'
p2176
tp2177
Rp2178
aa(lp2179
g28
(g32
S'\xb1\xfb0\xbb9(\x92?'
p2180
tp2181
Rp2182
aa(lp2183
g28
(g32
S'ST\x18~\x02\xb2\xa3?'
p2184
tp2185
Rp2186
aa(lp2187
g28
(g32
S'P\xeb\xe0\xc727\x83?'
p2188
tp2189
Rp2190
aa(lp2191
g28
(g32
S'y-\xf4(\x15\xff\x8c?'
p2192
tp2193
Rp2194
aa(lp2195
g28
(g32
S'jb\xa1\xaco\x96\x8a?'
p2196
tp2197
Rp2198
aa(lp2199
g28
(g32
S'Q\x7f5[\x1c\xab\x81?'
p2200
tp2201
Rp2202
aa(lp2203
g28
(g32
S'\x0els\x7f$q\x9f?'
p2204
tp2205
Rp2206
aa(lp2207
g28
(g32
S'\xc9\xb9={\xdcr\x8c?'
p2208
tp2209
Rp2210
aa(lp2211
g28
(g32
S'.@\x8d\xe3  \x1a?'
p2212
tp2213
Rp2214
aa(lp2215
g28
(g32
S'\x03\xa8Wh\x82\xea\x96?'
p2216
tp2217
Rp2218
aa(lp2219
g28
(g32
S'\xd4(\xef\x11\x97\xea\x91?'
p2220
tp2221
Rp2222
aa(lp2223
g28
(g32
S'2\xfd\x96\x837\x12\xa6?'
p2224
tp2225
Rp2226
aa(lp2227
g28
(g32
S't%)\t\xa5\xa5\xa2?'
p2228
tp2229
Rp2230
aa(lp2231
g28
(g32
S'\xe6\x16\x86\xed&U\x98?'
p2232
tp2233
Rp2234
aa(lp2235
g28
(g32
S'\xa7\xf6\xa08m\\\x90?'
p2236
tp2237
Rp2238
aa(lp2239
g28
(g32
S'R\xed\xe0\xbf\xa5Xt?'
p2240
tp2241
Rp2242
aasg196
(lp2243
F0.3949739933013916
aF0.3949739933013916
aF0.41167306900024414
aF0.25915002822875977
aF0.3951120376586914
aF0.38165807723999023
aF0.37239813804626465
aF0.3273758888244629
aF0.21983885765075684
aF0.22811102867126465
aF0.24140501022338867
aF0.23766183853149414
aF0.3790578842163086
aF0.3768899440765381
aF0.330049991607666
aF0.32825303077697754
aF0.32803797721862793
aF0.30089879035949707
aF0.231950044631958
aF0.2174839973449707
aF0.21238398551940918
assS'SS-A'
p2244
(dp2245
g3
(lp2246
(lp2247
I51
aag2247
a(lp2248
I51
aa(lp2249
I51
aa(lp2250
I51
aa(lp2251
I51
aa(lp2252
I51
aa(lp2253
I51
aa(lp2254
I51
aa(lp2255
I51
aa(lp2256
I51
aa(lp2257
I51
aa(lp2258
I51
aa(lp2259
I51
aa(lp2260
I51
aa(lp2261
I51
aa(lp2262
I51
aa(lp2263
I51
aa(lp2264
I51
aa(lp2265
I51
aa(lp2266
I51
aasg25
(lp2267
(lp2268
g28
(g32
S'U\xe5"V\xa7\xd0\n?'
p2269
tp2270
Rp2271
aag2268
a(lp2272
g28
(g32
S'\x85\x94\xafm?@s?'
p2273
tp2274
Rp2275
aa(lp2276
g28
(g32
S'9\xb0\xa8\xa5C\x8f\x10?'
p2277
tp2278
Rp2279
aa(lp2280
g28
(g32
S'\x19Az =?7?'
p2281
tp2282
Rp2283
aa(lp2284
g28
(g32
S'\x08u7<A\xd7=?'
p2285
tp2286
Rp2287
aa(lp2288
g28
(g32
S'\xb0\x83\xa2\xe6F\xb69?'
p2289
tp2290
Rp2291
aa(lp2292
g28
(g32
S'\x00\x00\x00\x00\x00\x00\x00\x00'
p2293
tp2294
Rp2295
aa(lp2296
g28
(g32
S'\x83\xed\xb1\xf3\x145;?'
p2297
tp2298
Rp2299
aa(lp2300
g28
(g32
S'\xf3}\x86jc6\n?'
p2301
tp2302
Rp2303
aa(lp2304
g28
(g32
S'a\xee\x03\x08\xd7\x90:?'
p2305
tp2306
Rp2307
aa(lp2308
g28
(g32
S'\x00\x00\x00\x00\x00\x00\x00\x00'
p2309
tp2310
Rp2311
aa(lp2312
g28
(g32
S'\xd5x\x9cz\xca\xff\x14?'
p2313
tp2314
Rp2315
aa(lp2316
g28
(g32
S'\x00\x00\x00\x00\x00\x00\x00\x00'
p2317
tp2318
Rp2319
aa(lp2320
g28
(g32
S'\xd7c\xc0\xeb\x8e\xa5\t?'
p2321
tp2322
Rp2323
aa(lp2324
g28
(g32
S'\x906+\xce3\x19B?'
p2325
tp2326
Rp2327
aa(lp2328
g28
(g32
S'\x00\x00\x00\x00\x00\x00\x00\x00'
p2329
tp2330
Rp2331
aa(lp2332
g28
(g32
S'\x7f\x00X\xfd\xaf\xf4t?'
p2333
tp2334
Rp2335
aa(lp2336
g28
(g32
S'\x00\x00\x00\x00\x00\x00\x00\x00'
p2337
tp2338
Rp2339
aa(lp2340
g28
(g32
S'`D=\xf8\xf1\xef4?'
p2341
tp2342
Rp2343
aa(lp2344
g28
(g32
S'\xdf\x9bs\x16\x07\xbd\t?'
p2345
tp2346
Rp2347
aasg114
(lp2348
(lp2349
g28
(g32
S'\xa35h\x8d\xe4(Z?'
p2350
tp2351
Rp2352
aag2349
a(lp2353
g28
(g32
S'+]D;\xf9\xb8\x8e?'
p2354
tp2355
Rp2356
aa(lp2357
g28
(g32
S'\xd4\xf5\xb2\x1e\xe9j\xf6>'
p2358
tp2359
Rp2360
aa(lp2361
g28
(g32
S'\xc8[\xfb\x05\x11+P?'
p2362
tp2363
Rp2364
aa(lp2365
g28
(g32
S'\xf4\xf9\xf7\x8d\xc6\x8e6?'
p2366
tp2367
Rp2368
aa(lp2369
g28
(g32
S'+\xe2\x89>N\x19J?'
p2370
tp2371
Rp2372
aa(lp2373
g28
(g32
S'\x00\x00\x00\x00\x00\x00\x00\x00'
p2374
tp2375
Rp2376
aa(lp2377
g28
(g32
S'\xc4\xa2\xf53\xd2\xa4M?'
p2378
tp2379
Rp2380
aa(lp2381
g28
(g32
S'H\xa3f\x94\xaf@]?'
p2382
tp2383
Rp2384
aa(lp2385
g28
(g32
S'\xf1\xb9\x84[\xfa\xa5P?'
p2386
tp2387
Rp2388
aa(lp2389
g28
(g32
S'\x00\x00\x00\x00\x00\x00\x00\x00'
p2390
tp2391
Rp2392
aa(lp2393
g28
(g32
S'E\xeb\x81#.\xa7\x1d?'
p2394
tp2395
Rp2396
aa(lp2397
g28
(g32
S'\x00\x00\x00\x00\x00\x00\x00\x00'
p2398
tp2399
Rp2400
aa(lp2401
g28
(g32
S'\x00\x00\x00\x00\x00\x00\x00\x00'
p2402
tp2403
Rp2404
aa(lp2405
g28
(g32
S'.\x9c\xebfz\x96\x02?'
p2406
tp2407
Rp2408
aa(lp2409
g28
(g32
S'\x00\x00\x00\x00\x00\x00\x00\x00'
p2410
tp2411
Rp2412
aa(lp2413
g28
(g32
S'\xac\xd6\xbc&uFa?'
p2414
tp2415
Rp2416
aa(lp2417
g28
(g32
S'\x00\x00\x00\x00\x00\x00\x00\x00'
p2418
tp2419
Rp2420
aa(lp2421
g28
(g32
S'\x9ed\xcaB\xe9P\x14?'
p2422
tp2423
Rp2424
aa(lp2425
g28
(g32
S'lY\xc3\xb7l\xbfD?'
p2426
tp2427
Rp2428
aasg196
(lp2429
F1.594641923904419
aF1.594641923904419
aF1.5951390266418457
aF2.7000927925109863
aF2.7881109714508057
aF2.2235300540924072
aF2.1528730392456055
aF2.115506887435913
aF2.157202959060669
aF3.138463020324707
aF3.106549024581909
aF3.1736221313476562
aF3.179323196411133
aF1.435581922531128
aF1.647063970565796
aF2.178708076477051
aF2.1830780506134033
aF2.2426209449768066
aF2.222480058670044
aF2.6263179779052734
aF2.679979085922241
assS'SS-C'
p2430
(dp2431
g3
(lp2432
(lp2433
I51
aag2433
a(lp2434
I51
aa(lp2435
I51
aa(lp2436
I51
aa(lp2437
I51
aa(lp2438
I51
aa(lp2439
I51
aa(lp2440
I51
aa(lp2441
I51
aa(lp2442
I51
aa(lp2443
I51
aa(lp2444
I51
aa(lp2445
I51
aa(lp2446
I51
aa(lp2447
I51
aa(lp2448
I51
aa(lp2449
I51
aa(lp2450
I51
aa(lp2451
I51
aa(lp2452
I51
aasg25
(lp2453
(lp2454
g28
(g32
S'\x8b@\xf6N\xa8Wg?'
p2455
tp2456
Rp2457
aag2454
a(lp2458
g28
(g32
S'\xd0\xab\x06n\xe3He?'
p2459
tp2460
Rp2461
aa(lp2462
g28
(g32
S'R\xe2SN\xea4u?'
p2463
tp2464
Rp2465
aa(lp2466
g28
(g32
S'\x85\xf5D\x81\x07\xfed?'
p2467
tp2468
Rp2469
aa(lp2470
g28
(g32
S'<\xca\xe4\xac\xdd\x9a]?'
p2471
tp2472
Rp2473
aa(lp2474
g28
(g32
S'\xc0\x94\x90P\x9a\x15g?'
p2475
tp2476
Rp2477
aa(lp2478
g28
(g32
S'\x99\x04\x98\x8f\xbfr]?'
p2479
tp2480
Rp2481
aa(lp2482
g28
(g32
S'Y\x94\x86q\xe4\x15e?'
p2483
tp2484
Rp2485
aa(lp2486
g28
(g32
S'R\xea\xff\xd5E\x07n?'
p2487
tp2488
Rp2489
aa(lp2490
g28
(g32
S'\xa9jX\xd2\xb2xp?'
p2491
tp2492
Rp2493
aa(lp2494
g28
(g32
S'|\x08\r\xf6\xb9\x80p?'
p2495
tp2496
Rp2497
aa(lp2498
g28
(g32
S'\xa3Z\xa5O\x8d\x17n?'
p2499
tp2500
Rp2501
aa(lp2502
g28
(g32
S'=\x00\x1e\xe3\x8bQl?'
p2503
tp2504
Rp2505
aa(lp2506
g28
(g32
S'{\xab\xe0\x97k\xb2h?'
p2507
tp2508
Rp2509
aa(lp2510
g28
(g32
S'\x99\xddM\xf5I+e?'
p2511
tp2512
Rp2513
aa(lp2514
g28
(g32
S'\xd3\xc0\xe58\t?g?'
p2515
tp2516
Rp2517
aa(lp2518
g28
(g32
S'1P\x9a\xc0\xd9\xbde?'
p2519
tp2520
Rp2521
aa(lp2522
g28
(g32
S'\xfeH`_\xd44e?'
p2523
tp2524
Rp2525
aa(lp2526
g28
(g32
S'\x8f\x85\x8e\xa1#\x18e?'
p2527
tp2528
Rp2529
aa(lp2530
g28
(g32
S'\xa9jX\xd2\xb2xp?'
p2531
tp2532
Rp2533
aasg114
(lp2534
(lp2535
g28
(g32
S'"\xde\x1cv\xbb\xd18?'
p2536
tp2537
Rp2538
aag2535
a(lp2539
g28
(g32
S'o \x9b\xaaiw+?'
p2540
tp2541
Rp2542
aa(lp2543
g28
(g32
S'\xfc\x10\x11\xfc\x02\xb4V?'
p2544
tp2545
Rp2546
aa(lp2547
g28
(g32
S'1\xe5Uj6\x00+?'
p2548
tp2549
Rp2550
aa(lp2551
g28
(g32
S'\xdf~\xd3F\xe9\x9f;?'
p2552
tp2553
Rp2554
aa(lp2555
g28
(g32
S'?gLW\xa0\xb01?'
p2556
tp2557
Rp2558
aa(lp2559
g28
(g32
S'z:\x04\xdf\xaa\xfe5?'
p2560
tp2561
Rp2562
aa(lp2563
g28
(g32
S'\xb8\xd8\x11m\xc0\xfe+?'
p2564
tp2565
Rp2566
aa(lp2567
g28
(g32
S"3\xf9^\t\xb8E'?"
p2568
tp2569
Rp2570
aa(lp2571
g28
(g32
S'\x00\x00\x00\x00\x00\x00\x00\x00'
p2572
tp2573
Rp2574
aa(lp2575
g28
(g32
S'\xe5\xf1\r#\xe8\xc2\xf5>'
p2576
tp2577
Rp2578
aa(lp2579
g28
(g32
S'b9\x9b\xf8\xb1\x11\x1c?'
p2580
tp2581
Rp2582
aa(lp2583
g28
(g32
S';]\x15(\x8b\xfd!?'
p2584
tp2585
Rp2586
aa(lp2587
g28
(g32
S'Wko\x05&7*?'
p2588
tp2589
Rp2590
aa(lp2591
g28
(g32
S'\xf0N\xc4\xe3WS0?'
p2592
tp2593
Rp2594
aa(lp2595
g28
(g32
S'\xe6\xf4\xba\x8d\x90f)?'
p2596
tp2597
Rp2598
aa(lp2599
g28
(g32
S'\t}e\x07G.-?'
p2600
tp2601
Rp2602
aa(lp2603
g28
(g32
S'\xfe\xc8\rgP40?'
p2604
tp2605
Rp2606
aa(lp2607
g28
(g32
S'ED\x84\xd0\x8a\x042?'
p2608
tp2609
Rp2610
aa(lp2611
g28
(g32
S'\x00\x00\x00\x00\x00\x00\x00\x00'
p2612
tp2613
Rp2614
aasg196
(lp2615
F2.7618448734283447
aF2.7618448734283447
aF2.672776937484741
aF2.1786890029907227
aF2.1010448932647705
aF2.400969982147217
aF2.3990039825439453
aF2.3785128593444824
aF2.312624931335449
aF2.025001049041748
aF1.962857961654663
aF1.940290927886963
aF1.9235570430755615
aF2.743546962738037
aF3.0634400844573975
aF3.0996668338775635
aF3.1450319290161133
aF3.0599899291992188
aF2.702414035797119
aF2.0413448810577393
aF1.9961588382720947
assS'SS-B'
p2616
(dp2617
g3
(lp2618
(lp2619
I51
aag2619
a(lp2620
I51
aa(lp2621
I51
aa(lp2622
I51
aa(lp2623
I51
aa(lp2624
I51
aa(lp2625
I51
aa(lp2626
I51
aa(lp2627
I51
aa(lp2628
I51
aa(lp2629
I51
aa(lp2630
I51
aa(lp2631
I51
aa(lp2632
I51
aa(lp2633
I51
aa(lp2634
I51
aa(lp2635
I51
aa(lp2636
I51
aa(lp2637
I51
aa(lp2638
I51
aasg25
(lp2639
(lp2640
g28
(g32
S'\xa8[\x1f\x02\x06\xb4r?'
p2641
tp2642
Rp2643
aag2640
a(lp2644
g28
(g32
S'z\x11Zec4U?'
p2645
tp2646
Rp2647
aa(lp2648
g28
(g32
S'\xaa\xccG\x0c\xbd\\\x86?'
p2649
tp2650
Rp2651
aa(lp2652
g28
(g32
S'{\x8a\xdd:S\x94x?'
p2653
tp2654
Rp2655
aa(lp2656
g28
(g32
S'u6\xbe\xdc)$i?'
p2657
tp2658
Rp2659
aa(lp2660
g28
(g32
S'\xadt\xa6v\xa8lI?'
p2661
tp2662
Rp2663
aa(lp2664
g28
(g32
S'\xa7\x12\xd2\xa8l\xd5 ?'
p2665
tp2666
Rp2667
aa(lp2668
g28
(g32
S'\xdcZ\xe5\xb3\xd9/\x92?'
p2669
tp2670
Rp2671
aa(lp2672
g28
(g32
S'\x93\x8d\xa5\x08Y!N?'
p2673
tp2674
Rp2675
aa(lp2676
g28
(g32
S'u6\xbe\xdc)$i?'
p2677
tp2678
Rp2679
aa(lp2680
g28
(g32
S'\x855d\xfcy\xd8y?'
p2681
tp2682
Rp2683
aa(lp2684
g28
(g32
S'\x90\xc5\x89Z!4\x82?'
p2685
tp2686
Rp2687
aa(lp2688
g28
(g32
S'\x027oM9\x90\x87?'
p2689
tp2690
Rp2691
aa(lp2692
g28
(g32
S'\xfe1U\xc0\xa1\xa5s?'
p2693
tp2694
Rp2695
aa(lp2696
g28
(g32
S'\x855d\xfcy\xd8y?'
p2697
tp2698
Rp2699
aa(lp2700
g28
(g32
S'\xf5Z\xfa\xb5\x04]l?'
p2701
tp2702
Rp2703
aa(lp2704
g28
(g32
S'\xf4\x03\xaf\xfc\x0eaq?'
p2705
tp2706
Rp2707
aa(lp2708
g28
(g32
S'\xf5IK\xf47\xcf\x85?'
p2709
tp2710
Rp2711
aa(lp2712
g28
(g32
S'\xf5?\x01\x8e.\xb0\x98?'
p2713
tp2714
Rp2715
aa(lp2716
g28
(g32
S'.^\xc4\xbc\xf0\xf4p?'
p2717
tp2718
Rp2719
aasg114
(lp2720
(lp2721
g28
(g32
S'\x00\x00\x00\x00\x00\x00\x00\x00'
p2722
tp2723
Rp2724
aag2721
a(lp2725
g28
(g32
S'\x00\x00\x00\x00\x00\x00\x00\x00'
p2726
tp2727
Rp2728
aa(lp2729
g28
(g32
S'\xc9\xbd\xf6{\xc9X\x82?'
p2730
tp2731
Rp2732
aa(lp2733
g28
(g32
S'\xa1\xa9\xf5D-O!?'
p2734
tp2735
Rp2736
aa(lp2737
g28
(g32
S'\x00\x00\x00\x00\x00\x00\x00\x00'
p2738
tp2739
Rp2740
aa(lp2741
g28
(g32
S'\x00\x00\x00\x00\x00\x00\x00\x00'
p2742
tp2743
Rp2744
aa(lp2745
g28
(g32
S'^y\xd4\xc3\x96\x05\x1e?'
p2746
tp2747
Rp2748
aa(lp2749
g28
(g32
S'\x00\xe9\xde\x9f\xa4m\x95?'
p2750
tp2751
Rp2752
aa(lp2753
g28
(g32
S'>\xa8\xd2O\xb5\xc5=?'
p2754
tp2755
Rp2756
aa(lp2757
g28
(g32
S'\x00\x00\x00\x00\x00\x00\x00\x00'
p2758
tp2759
Rp2760
aa(lp2761
g28
(g32
S'\xf1 e\xc3\xf6\xcdq?'
p2762
tp2763
Rp2764
aa(lp2765
g28
(g32
S'\xa1\xa9\xf5D-O1?'
p2766
tp2767
Rp2768
aa(lp2769
g28
(g32
S'\xd11\x1dB\x8eN~?'
p2770
tp2771
Rp2772
aa(lp2773
g28
(g32
S'^y\xd4\xc3\x96\x05.?'
p2774
tp2775
Rp2776
aa(lp2777
g28
(g32
S'\xf1 e\xc3\xf6\xcdq?'
p2778
tp2779
Rp2780
aa(lp2781
g28
(g32
S'~|\xfb\xd9r\x877?'
p2782
tp2783
Rp2784
aa(lp2785
g28
(g32
S'\x80\x11e\x04b\xaa7?'
p2786
tp2787
Rp2788
aa(lp2789
g28
(g32
S'\x0bz\xf0\xbe\x93vv?'
p2790
tp2791
Rp2792
aa(lp2793
g28
(g32
S'\xa0\x0b\xff\xf4A\xbc\x99?'
p2794
tp2795
Rp2796
aa(lp2797
g28
(g32
S'\xe5\xc5d\x08ASR?'
p2798
tp2799
Rp2800
aasg196
(lp2801
F0.4134230613708496
aF0.4134230613708496
aF0.3781421184539795
aF0.37042999267578125
aF0.39352989196777344
aF0.3700740337371826
aF0.3750150203704834
aF0.4343600273132324
aF0.3798530101776123
aF0.4227128028869629
aF0.40877413749694824
aF0.37586402893066406
aF0.3920929431915283
aF0.44266700744628906
aF0.4204540252685547
aF0.40535998344421387
aF0.4048929214477539
aF0.3447589874267578
aF0.3861420154571533
aF0.38155198097229004
aF0.38396120071411133
ass.