(dp0
S'xomo_ground'
p1
(lp2
(lp3
I75
aI38
aa(lp4
I67
aI34
aa(lp5
I35
aI18
aa(lp6
I69
aI35
aa(lp7
I21
aI11
aa(lp8
I47
aI24
aa(lp9
I23
aI12
aa(lp10
I29
aI15
aa(lp11
I67
aI34
aa(lp12
I67
aI34
aa(lp13
I37
aI19
aa(lp14
I31
aI16
aa(lp15
I35
aI18
aa(lp16
I29
aI15
aa(lp17
I23
aI12
aa(lp18
I39
aI20
aa(lp19
I77
aI39
aa(lp20
I51
aI26
aa(lp21
I53
aI27
aa(lp22
I65
aI33
aasS'MONRP_50_4_5_0_90'
p23
(lp24
(lp25
I65
aI33
aa(lp26
I63
aI32
aa(lp27
I67
aI34
aa(lp28
I65
aI33
aa(lp29
I67
aI34
aa(lp30
I61
aI31
aa(lp31
I65
aI33
aa(lp32
I67
aI34
aa(lp33
I65
aI33
aa(lp34
I67
aI34
aa(lp35
I67
aI34
aa(lp36
I65
aI33
aa(lp37
I63
aI32
aa(lp38
I67
aI34
aa(lp39
I67
aI34
aa(lp40
I67
aI34
aa(lp41
I67
aI34
aa(lp42
I65
aI33
aa(lp43
I67
aI34
aa(lp44
I63
aI32
aasS'POM3D'
p45
(lp46
(lp47
I71
aI36
aa(lp48
I73
aI37
aa(lp49
I89
aI45
aa(lp50
I57
aI29
aa(lp51
I77
aI39
aa(lp52
I45
aI23
aa(lp53
I55
aI28
aa(lp54
I67
aI34
aa(lp55
I53
aI27
aa(lp56
I63
aI32
aa(lp57
I77
aI39
aa(lp58
I31
aI16
aa(lp59
I47
aI24
aa(lp60
I29
aI15
aa(lp61
I65
aI33
aa(lp62
I69
aI35
aa(lp63
I35
aI18
aa(lp64
I43
aI22
aa(lp65
I47
aI24
aa(lp66
I37
aI19
aasS'xomo_flight'
p67
(lp68
(lp69
I35
aI18
aa(lp70
I55
aI28
aa(lp71
I49
aI25
aa(lp72
I23
aI12
aa(lp73
I31
aI16
aa(lp74
I75
aI38
aa(lp75
I49
aI25
aa(lp76
I45
aI23
aa(lp77
I45
aI23
aa(lp78
I49
aI25
aa(lp79
I59
aI30
aa(lp80
I39
aI20
aa(lp81
I31
aI16
aa(lp82
I61
aI31
aa(lp83
I75
aI38
aa(lp84
I59
aI30
aa(lp85
I67
aI34
aa(lp86
I67
aI34
aa(lp87
I67
aI34
aa(lp88
I73
aI37
aasS'MONRP_50_4_5_4_90'
p89
(lp90
(lp91
I67
aI34
aa(lp92
I63
aI32
aa(lp93
I63
aI32
aa(lp94
I61
aI31
aa(lp95
I61
aI31
aa(lp96
I71
aI36
aa(lp97
I65
aI33
aa(lp98
I67
aI34
aa(lp99
I63
aI32
aa(lp100
I65
aI33
aa(lp101
I65
aI33
aa(lp102
I67
aI34
aa(lp103
I69
aI35
aa(lp104
I65
aI33
aa(lp105
I65
aI33
aa(lp106
I71
aI36
aa(lp107
I67
aI34
aa(lp108
I65
aI33
aa(lp109
I65
aI33
aa(lp110
I65
aI33
aasS'POM3B'
p111
(lp112
(lp113
I27
aI14
aa(lp114
I47
aI24
aa(lp115
I75
aI38
aa(lp116
I25
aI13
aa(lp117
I73
aI37
aa(lp118
I67
aI34
aa(lp119
I65
aI33
aa(lp120
I57
aI29
aa(lp121
I51
aI26
aa(lp122
I45
aI23
aa(lp123
I63
aI32
aa(lp124
I27
aI14
aa(lp125
I25
aI13
aa(lp126
I69
aI35
aa(lp127
I83
aI42
aa(lp128
I67
aI34
aa(lp129
I31
aI16
aa(lp130
I43
aI22
aa(lp131
I69
aI35
aa(lp132
I51
aI26
aasS'POM3A'
p133
(lp134
(lp135
I65
aI33
aa(lp136
I51
aI26
aa(lp137
I69
aI35
aa(lp138
I81
aI41
aa(lp139
I61
aI31
aa(lp140
I91
aI46
aa(lp141
I65
aI33
aa(lp142
I59
aI30
aa(lp143
I31
aI16
aa(lp144
I49
aI25
aa(lp145
I57
aI29
aa(lp146
I25
aI13
aa(lp147
I31
aI16
aa(lp148
I51
aI26
aa(lp149
I77
aI39
aa(lp150
I69
aI35
aa(lp151
I65
aI33
aa(lp152
I67
aI34
aa(lp153
I51
aI26
aa(lp154
I71
aI36
aasS'xomo_all'
p155
(lp156
(lp157
I47
aI24
aa(lp158
I25
aI13
aa(lp159
I27
aI14
aa(lp160
I69
aI35
aa(lp161
I51
aI26
aa(lp162
I65
aI33
aa(lp163
I67
aI34
aa(lp164
I83
aI42
aa(lp165
I35
aI18
aa(lp166
I69
aI35
aa(lp167
I61
aI31
aa(lp168
I65
aI33
aa(lp169
I51
aI26
aa(lp170
I49
aI25
aa(lp171
I81
aI41
aa(lp172
I47
aI24
aa(lp173
I33
aI17
aa(lp174
I79
aI40
aa(lp175
I45
aI23
aa(lp176
I61
aI31
aasS'xomo_osp'
p177
(lp178
(lp179
I49
aI25
aa(lp180
I33
aI17
aa(lp181
I19
aI10
aa(lp182
I75
aI38
aa(lp183
I31
aI16
aa(lp184
I63
aI32
aa(lp185
I67
aI34
aa(lp186
I49
aI25
aa(lp187
I47
aI24
aa(lp188
I51
aI26
aa(lp189
I49
aI25
aa(lp190
I49
aI25
aa(lp191
I27
aI14
aa(lp192
I59
aI30
aa(lp193
I79
aI40
aa(lp194
I31
aI16
aa(lp195
I47
aI24
aa(lp196
I61
aI31
aa(lp197
I21
aI11
aa(lp198
I73
aI37
aasS'MONRP_50_4_5_0_110'
p199
(lp200
(lp201
I69
aI35
aa(lp202
I69
aI35
aa(lp203
I69
aI35
aa(lp204
I61
aI31
aa(lp205
I65
aI33
aa(lp206
I67
aI34
aa(lp207
I65
aI33
aa(lp208
I65
aI33
aa(lp209
I67
aI34
aa(lp210
I65
aI33
aa(lp211
I67
aI34
aa(lp212
I65
aI33
aa(lp213
I71
aI36
aa(lp214
I67
aI34
aa(lp215
I65
aI33
aa(lp216
I65
aI33
aa(lp217
I71
aI36
aa(lp218
I63
aI32
aa(lp219
I63
aI32
aa(lp220
I69
aI35
aasS'xomoo2'
p221
(lp222
(lp223
I51
aI26
aa(lp224
I65
aI33
aa(lp225
I63
aI32
aa(lp226
I65
aI33
aa(lp227
I47
aI24
aa(lp228
I61
aI31
aa(lp229
I65
aI33
aa(lp230
I59
aI30
aa(lp231
I49
aI25
aa(lp232
I79
aI40
aa(lp233
I41
aI21
aa(lp234
I67
aI34
aa(lp235
I23
aI12
aa(lp236
I57
aI29
aa(lp237
I23
aI12
aa(lp238
I75
aI38
aa(lp239
I73
aI37
aa(lp240
I45
aI23
aa(lp241
I23
aI12
aa(lp242
I67
aI34
aasS'POM3C'
p243
(lp244
(lp245
I51
aI26
aa(lp246
I33
aI17
aa(lp247
I53
aI27
aa(lp248
I59
aI30
aa(lp249
I39
aI20
aa(lp250
I69
aI35
aa(lp251
I49
aI25
aa(lp252
I43
aI22
aa(lp253
I27
aI14
aa(lp254
I51
aI26
aa(lp255
I57
aI29
aa(lp256
I63
aI32
aa(lp257
I51
aI26
aa(lp258
I75
aI38
aa(lp259
I65
aI33
aa(lp260
I77
aI39
aa(lp261
I81
aI41
aa(lp262
I49
aI25
aa(lp263
I65
aI33
aa(lp264
I63
aI32
aasS'MONRP_50_4_5_4_110'
p265
(lp266
(lp267
I65
aI33
aa(lp268
I69
aI35
aa(lp269
I63
aI32
aa(lp270
I63
aI32
aa(lp271
I61
aI31
aa(lp272
I63
aI32
aa(lp273
I65
aI33
aa(lp274
I65
aI33
aa(lp275
I65
aI33
aa(lp276
I65
aI33
aa(lp277
I67
aI34
aa(lp278
I63
aI32
aa(lp279
I63
aI32
aa(lp280
I63
aI32
aa(lp281
I67
aI34
aa(lp282
I65
aI33
aa(lp283
I69
aI35
aa(lp284
I67
aI34
aa(lp285
I65
aI33
aa(lp286
I69
aI35
aas.