(dp0
S'SS-A'
p1
(dp2
S'evals'
p3
(lp4
I51
asS'igd'
p5
(lp6
cnumpy.core.multiarray
scalar
p7
(cnumpy
dtype
p8
(S'f8'
p9
I0
I1
tp10
Rp11
(I3
S'<'
p12
NNNI-1
I-1
I0
tp13
bS'\x89`\xb1\xb2\x01\xa4D?'
p14
tp15
Rp16
asS'gen_dist'
p17
(lp18
g7
(g11
S'h\x1a\xba\xb2\r2S?'
p19
tp20
Rp21
asS'time'
p22
F0.16503500938415527
ss.