(dp0
S'SS-C'
p1
(dp2
S'evals'
p3
(lp4
I51
asS'igd'
p5
(lp6
cnumpy.core.multiarray
scalar
p7
(cnumpy
dtype
p8
(S'f8'
p9
I0
I1
tp10
Rp11
(I3
S'<'
p12
NNNI-1
I-1
I0
tp13
bS'\xf7\xbbNi\x90xg?'
p14
tp15
Rp16
asS'gen_dist'
p17
(lp18
g7
(g11
S"\x02\xd7\xec)\xe2\xa5'?"
p19
tp20
Rp21
asS'time'
p22
F0.1842038631439209
ss.