(dp0
S'SS-J'
p1
(dp2
S'evals'
p3
(lp4
I51
asS'igd'
p5
(lp6
cnumpy.core.multiarray
scalar
p7
(cnumpy
dtype
p8
(S'f8'
p9
I0
I1
tp10
Rp11
(I3
S'<'
p12
NNNI-1
I-1
I0
tp13
bS'\xd8\xe2f\xe1\x9e\x1e\\?'
p14
tp15
Rp16
asS'gen_dist'
p17
(lp18
g7
(g11
S'\xb5\xf43\xd9\x1d\x8e ?'
p19
tp20
Rp21
asS'time'
p22
F1.9319021701812744
ss.