(dp0
S'SS-L'
p1
(dp2
S'evals'
p3
(lp4
I51
asS'igd'
p5
(lp6
cnumpy.core.multiarray
scalar
p7
(cnumpy
dtype
p8
(S'f8'
p9
I0
I1
tp10
Rp11
(I3
S'<'
p12
NNNI-1
I-1
I0
tp13
bS'\xf4\xd0Y\x02/;{?'
p14
tp15
Rp16
asS'gen_dist'
p17
(lp18
g7
(g11
S'W\x10u\xb2y\xde\x92?'
p19
tp20
Rp21
asS'time'
p22
F0.23687100410461426
ss.