(dp0
S'SS-B'
p1
(dp2
S'evals'
p3
(lp4
I31
asS'igd'
p5
(lp6
cnumpy.core.multiarray
scalar
p7
(cnumpy
dtype
p8
(S'f8'
p9
I0
I1
tp10
Rp11
(I3
S'<'
p12
NNNI-1
I-1
I0
tp13
bS'D\xb1\xc2\xa3S-\x80?'
p14
tp15
Rp16
asS'gen_dist'
p17
(lp18
g7
(g11
S'\x00\x9a\x90\xb1\x88\xb3o?'
p19
tp20
Rp21
asS'time'
p22
F0.21852898597717285
ss.