(dp0
S'SS-B'
p1
(dp2
S'evals'
p3
(lp4
I31
asS'igd'
p5
(lp6
cnumpy.core.multiarray
scalar
p7
(cnumpy
dtype
p8
(S'f8'
p9
I0
I1
tp10
Rp11
(I3
S'<'
p12
NNNI-1
I-1
I0
tp13
bS'\x02\xeb\xd8\x97\xeb\xd8\x86?'
p14
tp15
Rp16
asS'gen_dist'
p17
(lp18
g7
(g11
S'\x06\x8e\xfe\x8ba^}?'
p19
tp20
Rp21
asS'time'
p22
F0.19707083702087402
ss.