(dp0
S'SS-D'
p1
(dp2
S'evals'
p3
(lp4
I31
asS'igd'
p5
(lp6
cnumpy.core.multiarray
scalar
p7
(cnumpy
dtype
p8
(S'f8'
p9
I0
I1
tp10
Rp11
(I3
S'<'
p12
NNNI-1
I-1
I0
tp13
bS'On\x7f\xaf\xf4$\xa9?'
p14
tp15
Rp16
asS'gen_dist'
p17
(lp18
g7
(g11
S'\x82\xd4Kc<\x95\x19?'
p19
tp20
Rp21
asS'time'
p22
F0.4321169853210449
ss.