(dp0
S'SS-D'
p1
(dp2
S'evals'
p3
(lp4
I31
asS'igd'
p5
(lp6
cnumpy.core.multiarray
scalar
p7
(cnumpy
dtype
p8
(S'f8'
p9
I0
I1
tp10
Rp11
(I3
S'<'
p12
NNNI-1
I-1
I0
tp13
bS'o\x8e/\xd5V\xc3\xa4?'
p14
tp15
Rp16
asS'gen_dist'
p17
(lp18
g7
(g11
S'\n|\x14\xe3\x90/\xa0?'
p19
tp20
Rp21
asS'time'
p22
F0.25101304054260254
ss.