(dp0
S'SS-F'
p1
(dp2
S'evals'
p3
(lp4
I31
asS'igd'
p5
(lp6
cnumpy.core.multiarray
scalar
p7
(cnumpy
dtype
p8
(S'f8'
p9
I0
I1
tp10
Rp11
(I3
S'<'
p12
NNNI-1
I-1
I0
tp13
bS'$\xe8\xd6\xae\xed\xa6\xb0?'
p14
tp15
Rp16
asS'gen_dist'
p17
(lp18
g7
(g11
S'Q0:\n\xfdp\x8c?'
p19
tp20
Rp21
asS'time'
p22
F0.16988182067871094
ss.