(dp0
S'SS-H'
p1
(dp2
S'evals'
p3
(lp4
I31
asS'igd'
p5
(lp6
cnumpy.core.multiarray
scalar
p7
(cnumpy
dtype
p8
(S'f8'
p9
I0
I1
tp10
Rp11
(I3
S'<'
p12
NNNI-1
I-1
I0
tp13
bS'D\xdf&\x00\x8f\xa35?'
p14
tp15
Rp16
asS'gen_dist'
p17
(lp18
g7
(g11
S'\x90v\xf1q\x1e)\x8b?'
p19
tp20
Rp21
asS'time'
p22
F0.22525405883789062
ss.