(dp0
S'SS-L'
p1
(dp2
S'evals'
p3
(lp4
I31
asS'igd'
p5
(lp6
cnumpy.core.multiarray
scalar
p7
(cnumpy
dtype
p8
(S'f8'
p9
I0
I1
tp10
Rp11
(I3
S'<'
p12
NNNI-1
I-1
I0
tp13
bS'\x1b\xb9\xc4}\xd1\x1e{?'
p14
tp15
Rp16
asS'gen_dist'
p17
(lp18
g7
(g11
S'\xb3\x00\x8b\xfb\x94\x0b}?'
p19
tp20
Rp21
asS'time'
p22
F0.8637979030609131
ss.