(dp0
S'SS-M'
p1
(dp2
S'evals'
p3
(lp4
I31
asS'igd'
p5
(lp6
cnumpy.core.multiarray
scalar
p7
(cnumpy
dtype
p8
(S'f8'
p9
I0
I1
tp10
Rp11
(I3
S'<'
p12
NNNI-1
I-1
I0
tp13
bS'\xe5\x13\x19eg\xf7\xf3>'
p14
tp15
Rp16
asS'gen_dist'
p17
(lp18
g7
(g11
S'e\n\xa1\xbf\xe5\xa6\x17?'
p19
tp20
Rp21
asS'time'
p22
F224.21679997444153
ss.