(dp0
S'SS-L'
p1
(dp2
S'evals'
p3
(lp4
(lp5
I51
aag5
a(lp6
I51
aa(lp7
I51
aa(lp8
I51
aa(lp9
I51
aa(lp10
I51
aa(lp11
I51
aa(lp12
I51
aa(lp13
I51
aa(lp14
I51
aa(lp15
I51
aa(lp16
I51
aa(lp17
I51
aa(lp18
I51
aa(lp19
I51
aa(lp20
I51
aa(lp21
I51
aa(lp22
I51
aa(lp23
I51
aa(lp24
I51
aasS'igd'
p25
(lp26
(lp27
cnumpy.core.multiarray
scalar
p28
(cnumpy
dtype
p29
(S'f8'
p30
I0
I1
tp31
Rp32
(I3
S'<'
p33
NNNI-1
I-1
I0
tp34
bS'q\xb7dT\x1aXZ?'
p35
tp36
Rp37
aag27
a(lp38
g28
(g32
S'\x0e\xde\xd4|8/q?'
p39
tp40
Rp41
aa(lp42
g28
(g32
S'b\xdc\x0f\xbe\x03\x86q?'
p43
tp44
Rp45
aa(lp46
g28
(g32
S'?X\xd6k\xc6^v?'
p47
tp48
Rp49
aa(lp50
g28
(g32
S'\xcf\x16|O\x93{i?'
p51
tp52
Rp53
aa(lp54
g28
(g32
S'\xdbUQ\xc4\x11.{?'
p55
tp56
Rp57
aa(lp58
g28
(g32
S'\xe8\xf5\x03\x1e\x81\x12c?'
p59
tp60
Rp61
aa(lp62
g28
(g32
S'\xf8\xdf\xf1>,"\x9b?'
p63
tp64
Rp65
aa(lp66
g28
(g32
S'\xe8\xf5\x03\x1e\x81\x12c?'
p67
tp68
Rp69
aa(lp70
g28
(g32
S'\x84i\xfb\xcb\xd7\x83w?'
p71
tp72
Rp73
aa(lp74
g28
(g32
S'\xe5\x05\x8e:~\xa0\x81?'
p75
tp76
Rp77
aa(lp78
g28
(g32
S'?\xba\xacO[\x19v?'
p79
tp80
Rp81
aa(lp82
g28
(g32
S'\x99\xb1\xd4Nt\x00x?'
p83
tp84
Rp85
aa(lp86
g28
(g32
S'\x8c\xae\x7fQ\xdf\xc0\x80?'
p87
tp88
Rp89
aa(lp90
g28
(g32
S'\xff#\x80d\xa1\xf0V?'
p91
tp92
Rp93
aa(lp94
g28
(g32
S't8\x94\xa5!\x84Z?'
p95
tp96
Rp97
aa(lp98
g28
(g32
S'\x8c\x0b`^\\\xfc\x82?'
p99
tp100
Rp101
aa(lp102
g28
(g32
S'\xf1\xcc\xcd\xd9rfz?'
p103
tp104
Rp105
aa(lp106
g28
(g32
S'\xe4\xae\x01`)7\x88?'
p107
tp108
Rp109
aa(lp110
g28
(g32
S':\xd9U\xcf\x8b\xdaf?'
p111
tp112
Rp113
aasS'gen_dist'
p114
(lp115
(lp116
g28
(g32
S'A\x1b\xf0\xea\xf4\x04Q?'
p117
tp118
Rp119
aag116
a(lp120
g28
(g32
S'\xd5\xbd\t\xc7\xc2\x1bm?'
p121
tp122
Rp123
aa(lp124
g28
(g32
S'b\xdc\x0f\xbe\x03\x86q?'
p125
tp126
Rp127
aa(lp128
g28
(g32
S'\x93 \xe9u\x95\xcd\x81?'
p129
tp130
Rp131
aa(lp132
g28
(g32
S'zC\xd4`\x96 \xa2?'
p133
tp134
Rp135
aa(lp136
g28
(g32
S'\x1a\x057\x87\xe3\xf7\x83?'
p137
tp138
Rp139
aa(lp140
g28
(g32
S'\xb5o\x90\xa9\xbf\x07W?'
p141
tp142
Rp143
aa(lp144
g28
(g32
S'\x12\xe9B~\xbe\x91\xae?'
p145
tp146
Rp147
aa(lp148
g28
(g32
S'\x90\x7f\x13\xb8\xc9S\x83?'
p149
tp150
Rp151
aa(lp152
g28
(g32
S'\x14\xbdz\x08r"y?'
p153
tp154
Rp155
aa(lp156
g28
(g32
S'\xc0\x90Q\x10@\x86x?'
p157
tp158
Rp159
aa(lp160
g28
(g32
S'~\xd9\x81\xc3\x86\xa8\x8b?'
p161
tp162
Rp163
aa(lp164
g28
(g32
S'\x9f\xce\xc8\x11GAz?'
p165
tp166
Rp167
aa(lp168
g28
(g32
S'V\xdeO\xd9\xf4l\x85?'
p169
tp170
Rp171
aa(lp172
g28
(g32
S'!g\xedU\x19\x01!?'
p173
tp174
Rp175
aa(lp176
g28
(g32
S'4\x02.\xd9P\x1a>?'
p177
tp178
Rp179
aa(lp180
g28
(g32
S']#\x8e\xa8\xca9\x80?'
p181
tp182
Rp183
aa(lp184
g28
(g32
S'\xb0\xcf\x9e\x92\x0c\xda\xa5?'
p185
tp186
Rp187
aa(lp188
g28
(g32
S'\xee\x88\xb7\xb1R\xa5\x8a?'
p189
tp190
Rp191
aa(lp192
g28
(g32
S'\x8c\xd8\xa3j\xfcxc?'
p193
tp194
Rp195
aasS'time'
p196
(lp197
F2.311405897140503
aF2.311405897140503
aF2.2755050659179688
aF2.9668099880218506
aF3.4569969177246094
aF3.3555870056152344
aF3.314091920852661
aF3.3311879634857178
aF3.1335182189941406
aF3.1067140102386475
aF3.1103320121765137
aF3.3596529960632324
aF3.1996262073516846
aF2.4006130695343018
aF3.4835622310638428
aF3.491894006729126
aF3.4907450675964355
aF3.449772834777832
aF2.749191999435425
aF2.9379730224609375
aF2.892702102661133
assS'SS-I'
p198
(dp199
g3
(lp200
(lp201
I51
aag201
a(lp202
I51
aa(lp203
I51
aa(lp204
I51
aa(lp205
I51
aa(lp206
I51
aa(lp207
I51
aa(lp208
I51
aa(lp209
I51
aa(lp210
I51
aa(lp211
I51
aa(lp212
I51
aa(lp213
I51
aa(lp214
I51
aa(lp215
I51
aa(lp216
I51
aa(lp217
I51
aa(lp218
I51
aa(lp219
I51
aa(lp220
I51
aasg25
(lp221
(lp222
g28
(g32
S'\x00\x00\x00\x00\x00\x00\x00\x00'
p223
tp224
Rp225
aag222
a(lp226
g28
(g32
S'\x00\x00\x00\x00\x00\x00\x00\x00'
p227
tp228
Rp229
aa(lp230
g28
(g32
S'\x00\x00\x00\x00\x00\x00\x00\x00'
p231
tp232
Rp233
aa(lp234
g28
(g32
S'\x00\x00\x00\x00\x00\x00\x00\x00'
p235
tp236
Rp237
aa(lp238
g28
(g32
S'\x00\x00\x00\x00\x00\x00\x00\x00'
p239
tp240
Rp241
aa(lp242
g28
(g32
S'\x00\x00\x00\x00\x00\x00\x00\x00'
p243
tp244
Rp245
aa(lp246
g28
(g32
S'\x00\x00\x00\x00\x00\x00\x00\x00'
p247
tp248
Rp249
aa(lp250
g28
(g32
S'\x00\x00\x00\x00\x00\x00\x00\x00'
p251
tp252
Rp253
aa(lp254
g28
(g32
S'\x00\x00\x00\x00\x00\x00\x00\x00'
p255
tp256
Rp257
aa(lp258
g28
(g32
S'\x00\x00\x00\x00\x00\x00\x00\x00'
p259
tp260
Rp261
aa(lp262
g28
(g32
S'\x00\x00\x00\x00\x00\x00\x00\x00'
p263
tp264
Rp265
aa(lp266
g28
(g32
S'\x00\x00\x00\x00\x00\x00\x00\x00'
p267
tp268
Rp269
aa(lp270
g28
(g32
S'\x00\x00\x00\x00\x00\x00\x00\x00'
p271
tp272
Rp273
aa(lp274
g28
(g32
S'\x00\x00\x00\x00\x00\x00\x00\x00'
p275
tp276
Rp277
aa(lp278
g28
(g32
S'\x00\x00\x00\x00\x00\x00\x00\x00'
p279
tp280
Rp281
aa(lp282
g28
(g32
S'\x00\x00\x00\x00\x00\x00\x00\x00'
p283
tp284
Rp285
aa(lp286
g28
(g32
S'\x00\x00\x00\x00\x00\x00\x00\x00'
p287
tp288
Rp289
aa(lp290
g28
(g32
S'\x00\x00\x00\x00\x00\x00\x00\x00'
p291
tp292
Rp293
aa(lp294
g28
(g32
S'\x00\x00\x00\x00\x00\x00\x00\x00'
p295
tp296
Rp297
aa(lp298
g28
(g32
S'\x00\x00\x00\x00\x00\x00\x00\x00'
p299
tp300
Rp301
aasg114
(lp302
(lp303
g28
(g32
S'\x00\x00\x00\x00\x00\x00\x00\x00'
p304
tp305
Rp306
aag303
a(lp307
g28
(g32
S'\x00\x00\x00\x00\x00\x00\x00\x00'
p308
tp309
Rp310
aa(lp311
g28
(g32
S'\x00\x00\x00\x00\x00\x00\x00\x00'
p312
tp313
Rp314
aa(lp315
g28
(g32
S'\x00\x00\x00\x00\x00\x00\x00\x00'
p316
tp317
Rp318
aa(lp319
g28
(g32
S'\x00\x00\x00\x00\x00\x00\x00\x00'
p320
tp321
Rp322
aa(lp323
g28
(g32
S'\x00\x00\x00\x00\x00\x00\x00\x00'
p324
tp325
Rp326
aa(lp327
g28
(g32
S'\x00\x00\x00\x00\x00\x00\x00\x00'
p328
tp329
Rp330
aa(lp331
g28
(g32
S'\x00\x00\x00\x00\x00\x00\x00\x00'
p332
tp333
Rp334
aa(lp335
g28
(g32
S'\x00\x00\x00\x00\x00\x00\x00\x00'
p336
tp337
Rp338
aa(lp339
g28
(g32
S'\x00\x00\x00\x00\x00\x00\x00\x00'
p340
tp341
Rp342
aa(lp343
g28
(g32
S'\x00\x00\x00\x00\x00\x00\x00\x00'
p344
tp345
Rp346
aa(lp347
g28
(g32
S'\x00\x00\x00\x00\x00\x00\x00\x00'
p348
tp349
Rp350
aa(lp351
g28
(g32
S'\x00\x00\x00\x00\x00\x00\x00\x00'
p352
tp353
Rp354
aa(lp355
g28
(g32
S'\x00\x00\x00\x00\x00\x00\x00\x00'
p356
tp357
Rp358
aa(lp359
g28
(g32
S'\x00\x00\x00\x00\x00\x00\x00\x00'
p360
tp361
Rp362
aa(lp363
g28
(g32
S'\x00\x00\x00\x00\x00\x00\x00\x00'
p364
tp365
Rp366
aa(lp367
g28
(g32
S'\x00\x00\x00\x00\x00\x00\x00\x00'
p368
tp369
Rp370
aa(lp371
g28
(g32
S'\x00\x00\x00\x00\x00\x00\x00\x00'
p372
tp373
Rp374
aa(lp375
g28
(g32
S'\x00\x00\x00\x00\x00\x00\x00\x00'
p376
tp377
Rp378
aa(lp379
g28
(g32
S'\x00\x00\x00\x00\x00\x00\x00\x00'
p380
tp381
Rp382
aasg196
(lp383
F3.387892007827759
aF3.387892007827759
aF3.739192008972168
aF3.3048501014709473
aF3.2974228858947754
aF2.605959177017212
aF2.6210169792175293
aF2.5726428031921387
aF2.556812047958374
aF2.3869130611419678
aF2.3069541454315186
aF2.298687219619751
aF2.3247249126434326
aF3.804661989212036
aF3.8641719818115234
aF3.9677698612213135
aF3.920405149459839
aF3.91290283203125
aF3.84607195854187
aF3.742295980453491
aF3.518974781036377
assS'SS-H'
p384
(dp385
g3
(lp386
(lp387
I51
aag387
a(lp388
I51
aa(lp389
I51
aa(lp390
I51
aa(lp391
I51
aa(lp392
I51
aa(lp393
I51
aa(lp394
I51
aa(lp395
I51
aa(lp396
I51
aa(lp397
I51
aa(lp398
I51
aa(lp399
I51
aa(lp400
I51
aa(lp401
I51
aa(lp402
I51
aa(lp403
I51
aa(lp404
I51
aa(lp405
I51
aa(lp406
I51
aasg25
(lp407
(lp408
g28
(g32
S'\x9b\x11\xfaEN\xe8\x1c?'
p409
tp410
Rp411
aag408
a(lp412
g28
(g32
S'\xfd\xafB\xf7\x85a%?'
p413
tp414
Rp415
aa(lp416
g28
(g32
S'\xfcJ\x99\x1c\xe7T\x16?'
p417
tp418
Rp419
aa(lp420
g28
(g32
S'v\x13`R\x08\xddO?'
p421
tp422
Rp423
aa(lp424
g28
(g32
S'zzJ\xf2\x81[\x06?'
p425
tp426
Rp427
aa(lp428
g28
(g32
S'RJ\n5\x05Z$?'
p429
tp430
Rp431
aa(lp432
g28
(g32
S'\x84\xf6[\xdb\x83\x06+?'
p433
tp434
Rp435
aa(lp436
g28
(g32
S'%6\xd9\xbd[\xa37?'
p437
tp438
Rp439
aa(lp440
g28
(g32
S'_\xc6\x94\xea\xd1\x04\x1d?'
p441
tp442
Rp443
aa(lp444
g28
(g32
S'\xa0\x85c\xf1[\x96X?'
p445
tp446
Rp447
aa(lp448
g28
(g32
S'(\xd6\xae&\xc2\x06#?'
p449
tp450
Rp451
aa(lp452
g28
(g32
S':{\x8c[\xea{\xf3>'
p453
tp454
Rp455
aa(lp456
g28
(g32
S'X\xba~\xb9\x0cQ$?'
p457
tp458
Rp459
aa(lp460
g28
(g32
S'zzJ\xf2\x81[\x06?'
p461
tp462
Rp463
aa(lp464
g28
(g32
S'\xc5\xc8\xa0V\x00t_?'
p465
tp466
Rp467
aa(lp468
g28
(g32
S'\xef\xa9\x87\xd0\xad\x19/?'
p469
tp470
Rp471
aa(lp472
g28
(g32
S'\xa7\xfc\x80R\x17\xf9 ?'
p473
tp474
Rp475
aa(lp476
g28
(g32
S'Q\x847\xc7\xddqP?'
p477
tp478
Rp479
aa(lp480
g28
(g32
S'\x14+\x19[;{\x15?'
p481
tp482
Rp483
aa(lp484
g28
(g32
S'\xe8~1\xd0z\xfc!?'
p485
tp486
Rp487
aasg114
(lp488
(lp489
g28
(g32
S'\xd5\xbarSy,\xbf>'
p490
tp491
Rp492
aag489
a(lp493
g28
(g32
S'\xd5\xbarSy,\xcf>'
p494
tp495
Rp496
aa(lp497
g28
(g32
S'\xd5\xbarSy,\xbf>'
p498
tp499
Rp500
aa(lp501
g28
(g32
S'\x00\x00\x00\x00\x00\x00\x00\x00'
p502
tp503
Rp504
aa(lp505
g28
(g32
S'\x83\x91\x18=\x1ae\x1b?'
p506
tp507
Rp508
aa(lp509
g28
(g32
S'\x00\x00\x00\x00\x00\x00\x00\x00'
p510
tp511
Rp512
aa(lp513
g28
(g32
S'\xe3\xfb\xb5\xf0B/\x1f?'
p514
tp515
Rp516
aa(lp517
g28
(g32
S'\x00\x00\x00\x00\x00\x00\x00\x00'
p518
tp519
Rp520
aa(lp521
g28
(g32
S'?bra\x9e\xad\x81?'
p522
tp523
Rp524
aa(lp525
g28
(g32
S'\xed\xe7\xbc\x82\x1c\xc0!?'
p526
tp527
Rp528
aa(lp529
g28
(g32
S'\x00\x00\x00\x00\x00\x00\x00\x00'
p530
tp531
Rp532
aa(lp533
g28
(g32
S'\x00\x00\x00\x00\x00\x00\x00\x00'
p534
tp535
Rp536
aa(lp537
g28
(g32
S'L\xa3K\x92\xb8#v?'
p538
tp539
Rp540
aa(lp541
g28
(g32
S'\x00\x00\x00\x00\x00\x00\x00\x00'
p542
tp543
Rp544
aa(lp545
g28
(g32
S'\x00\x00\x00\x00\x00\x00\x00\x00'
p546
tp547
Rp548
aa(lp549
g28
(g32
S'V>|Y\x18z\x93?'
p550
tp551
Rp552
aa(lp553
g28
(g32
S'\xd5\xbarSy,\xbf>'
p554
tp555
Rp556
aa(lp557
g28
(g32
S'P\x16I\x03\xefL\x15?'
p558
tp559
Rp560
aa(lp561
g28
(g32
S'\x83\xab&\xec\x1f\xe5\t?'
p562
tp563
Rp564
aa(lp565
g28
(g32
S'"m\xd2\xad\xd3\x8b\x14?'
p566
tp567
Rp568
aasg196
(lp569
F0.38273096084594727
aF0.38273096084594727
aF0.3720359802246094
aF0.37781715393066406
aF0.34951186180114746
aF0.3540501594543457
aF0.3561100959777832
aF0.4830751419067383
aF0.4553380012512207
aF0.695749044418335
aF0.7661750316619873
aF0.7504148483276367
aF0.7506728172302246
aF0.34238100051879883
aF0.3557901382446289
aF0.363724946975708
aF0.3824279308319092
aF0.3788628578186035
aF0.3763258457183838
aF0.3796861171722412
aF0.36815810203552246
assS'SS-K'
p570
(dp571
g3
(lp572
(lp573
I51
aag573
a(lp574
I51
aa(lp575
I51
aa(lp576
I51
aa(lp577
I51
aa(lp578
I51
aa(lp579
I51
aa(lp580
I51
aa(lp581
I51
aa(lp582
I51
aa(lp583
I51
aa(lp584
I51
aa(lp585
I51
aa(lp586
I51
aa(lp587
I51
aa(lp588
I51
aa(lp589
I51
aa(lp590
I51
aa(lp591
I51
aa(lp592
I51
aasg25
(lp593
(lp594
g28
(g32
S'\xa8,\x12\xcd3\xa9v?'
p595
tp596
Rp597
aag594
a(lp598
g28
(g32
S'\xfe\xb1B\xf3c\x06a?'
p599
tp600
Rp601
aa(lp602
g28
(g32
S'Ts\xfd\xa36g\x7f?'
p603
tp604
Rp605
aa(lp606
g28
(g32
S'`\x87Lt\x9a\xae\x87?'
p607
tp608
Rp609
aa(lp610
g28
(g32
S'3\xf6\xe9\x0c\xeb\x14\x86?'
p611
tp612
Rp613
aa(lp614
g28
(g32
S'x\xb7\xf6\xcff\xff`?'
p615
tp616
Rp617
aa(lp618
g28
(g32
S'&\xdc\xe6\x0e=\xf8~?'
p619
tp620
Rp621
aa(lp622
g28
(g32
S'g \x13\xaa\x85Xy?'
p623
tp624
Rp625
aa(lp626
g28
(g32
S'\xa1\xb7\xb4\xac\x01\xbe\x90?'
p627
tp628
Rp629
aa(lp630
g28
(g32
S'\xb3\xb8R\xbf\x91fr?'
p631
tp632
Rp633
aa(lp634
g28
(g32
S'\xc9\x9ak\xdbE\xfd\x89?'
p635
tp636
Rp637
aa(lp638
g28
(g32
S':W\xaa4F;z?'
p639
tp640
Rp641
aa(lp642
g28
(g32
S'"\x9d\xf6ug\x04\x84?'
p643
tp644
Rp645
aa(lp646
g28
(g32
S'\x89\x0b\x0f\xd4\x15\xc5l?'
p647
tp648
Rp649
aa(lp650
g28
(g32
S'\xc7\x94+\x03\n\x97\x86?'
p651
tp652
Rp653
aa(lp654
g28
(g32
S'\xe0t\xf0\x9e\x7f\x87e?'
p655
tp656
Rp657
aa(lp658
g28
(g32
S'z,v\xb6\x1c\x13Z?'
p659
tp660
Rp661
aa(lp662
g28
(g32
S'\x17\xf4.\x9b\xb8\xf1`?'
p663
tp664
Rp665
aa(lp666
g28
(g32
S'\xfa\x87\xfd3\x05\xf9x?'
p667
tp668
Rp669
aa(lp670
g28
(g32
S' \x03\x0e\xd6<\x93{?'
p671
tp672
Rp673
aasg114
(lp674
(lp675
g28
(g32
S'>\xbb\x87\x93\xd2sb?'
p676
tp677
Rp678
aag675
a(lp679
g28
(g32
S'\xd7\x8db\xa8\xd5\xaed?'
p680
tp681
Rp682
aa(lp683
g28
(g32
S'\x02\x82\xca\xfb\x13\xeeY?'
p684
tp685
Rp686
aa(lp687
g28
(g32
S'0K\xc0v\xb4\nH?'
p688
tp689
Rp690
aa(lp691
g28
(g32
S'\xd1M\xd1\x82\x07-h?'
p692
tp693
Rp694
aa(lp695
g28
(g32
S'\xe0#\xdc\xef\xb9mU?'
p696
tp697
Rp698
aa(lp699
g28
(g32
S'P\xc2\xc0\xd5\xf0HR?'
p700
tp701
Rp702
aa(lp703
g28
(g32
S'\x84/G\xaa\xa5\x19\\?'
p704
tp705
Rp706
aa(lp707
g28
(g32
S't\xc9\xa6\x95\xac\xde\x1d?'
p708
tp709
Rp710
aa(lp711
g28
(g32
S'\xe4J\xddV\x98\x0cE?'
p712
tp713
Rp714
aa(lp715
g28
(g32
S'\xdb\xac\x86\xe7c\xae@?'
p716
tp717
Rp718
aa(lp719
g28
(g32
S'-\x06\xdf\x17:\xad]?'
p720
tp721
Rp722
aa(lp723
g28
(g32
S'\xab\xcc\x19\x90]\x815?'
p724
tp725
Rp726
aa(lp727
g28
(g32
S'=\xdap\xe7\xab\x03H?'
p728
tp729
Rp730
aa(lp731
g28
(g32
S'\xf80\x14\xc5\x97\xd4]?'
p732
tp733
Rp734
aa(lp735
g28
(g32
S'.5\xc3\xba\x9c\x97A?'
p736
tp737
Rp738
aa(lp739
g28
(g32
S'\xf2\xd6ui\x9aI ?'
p740
tp741
Rp742
aa(lp743
g28
(g32
S'q\x99g\x84h\xa6:?'
p744
tp745
Rp746
aa(lp747
g28
(g32
S'm&\xecI\xd4\x0fR?'
p748
tp749
Rp750
aa(lp751
g28
(g32
S'U\xe7\xf7\xa3\x1asK?'
p752
tp753
Rp754
aasg196
(lp755
F6.28153395652771
aF6.28153395652771
aF6.262446165084839
aF6.000094890594482
aF5.826501846313477
aF6.2645769119262695
aF6.103625059127808
aF5.927845001220703
aF5.958170175552368
aF6.272991895675659
aF5.875578880310059
aF5.711850881576538
aF6.0105531215667725
aF6.179895877838135
aF6.1174421310424805
aF6.031101942062378
aF5.784902095794678
aF6.1816627979278564
aF5.7655229568481445
aF5.81977105140686
aF6.038378000259399
assS'SS-J'
p756
(dp757
g3
(lp758
(lp759
I51
aag759
a(lp760
I51
aa(lp761
I51
aa(lp762
I51
aa(lp763
I51
aa(lp764
I51
aa(lp765
I51
aa(lp766
I51
aa(lp767
I51
aa(lp768
I51
aa(lp769
I51
aa(lp770
I51
aa(lp771
I51
aa(lp772
I51
aa(lp773
I51
aa(lp774
I51
aa(lp775
I51
aa(lp776
I51
aa(lp777
I51
aa(lp778
I51
aasg25
(lp779
(lp780
g28
(g32
S'\x86Q\xe302\xe5b?'
p781
tp782
Rp783
aag780
a(lp784
g28
(g32
S'\xafn/\xb6&\xcdf?'
p785
tp786
Rp787
aa(lp788
g28
(g32
S'1\xd6B\xbe\xf8\xb4h?'
p789
tp790
Rp791
aa(lp792
g28
(g32
S'\xb8\x8b\xa9\xef<\xd6t?'
p793
tp794
Rp795
aa(lp796
g28
(g32
S'i<1}\x9ek\x9d?'
p797
tp798
Rp799
aa(lp800
g28
(g32
S'\x9d\\~V\xef\xa6f?'
p801
tp802
Rp803
aa(lp804
g28
(g32
S'\xb8\x16:?\xfbw]?'
p805
tp806
Rp807
aa(lp808
g28
(g32
S'\x96\xcb7[\xff\xf4`?'
p809
tp810
Rp811
aa(lp812
g28
(g32
S'\xa2\xc7\xf5\x8d\xdb\xd9r?'
p813
tp814
Rp815
aa(lp816
g28
(g32
S'f\xf5\xd1+\xd7\x93h?'
p817
tp818
Rp819
aa(lp820
g28
(g32
S'\xc0.\xde\x98\xf8\xe4n?'
p821
tp822
Rp823
aa(lp824
g28
(g32
S'\xab\xc7\xda\x96\xe4\x0es?'
p825
tp826
Rp827
aa(lp828
g28
(g32
S'\xa1\xf4-\xfb\r}\x81?'
p829
tp830
Rp831
aa(lp832
g28
(g32
S'v\x16\x8a\xbff)\\?'
p833
tp834
Rp835
aa(lp836
g28
(g32
S'\x979x\x8d\xc0\xc6k?'
p837
tp838
Rp839
aa(lp840
g28
(g32
S'\x11b\xff^B\x9eh?'
p841
tp842
Rp843
aa(lp844
g28
(g32
S'&PA.\xf7\x12\x80?'
p845
tp846
Rp847
aa(lp848
g28
(g32
S'/j\x90\x89\xa1\x92k?'
p849
tp850
Rp851
aa(lp852
g28
(g32
S'\x05\x0e\xb3\xb8\x9bdP?'
p853
tp854
Rp855
aa(lp856
g28
(g32
S'\x1c%q\x1b\xe0\x87v?'
p857
tp858
Rp859
aasg114
(lp860
(lp861
g28
(g32
S'\xfb|\x03\rd0A?'
p862
tp863
Rp864
aag861
a(lp865
g28
(g32
S'm\xaa\x04B\xa2\xc3\x0e?'
p866
tp867
Rp868
aa(lp869
g28
(g32
S'i\xc1\n\x88\x91\xa6(?'
p870
tp871
Rp872
aa(lp873
g28
(g32
S'J\xc1\xb5\x1b\xe6/6?'
p874
tp875
Rp876
aa(lp877
g28
(g32
S'\xdbM\x9ez\xde\xde\xe9>'
p878
tp879
Rp880
aa(lp881
g28
(g32
S'L3\xf9U\xcb\x8b\xf9>'
p882
tp883
Rp884
aa(lp885
g28
(g32
S')\xdb\xfc\x8d!\xc2\xf5>'
p886
tp887
Rp888
aa(lp889
g28
(g32
S':\xb1pu\xe0\xfa8?'
p890
tp891
Rp892
aa(lp893
g28
(g32
S'\xb6\x8b\xba\xbd\xb71\xed>'
p894
tp895
Rp896
aa(lp897
g28
(g32
S'\xcf\xe8Z\x05p\x8bI?'
p898
tp899
Rp900
aa(lp901
g28
(g32
S')\xec\x7ff\xa4v\x15?'
p902
tp903
Rp904
aa(lp905
g28
(g32
S'\xbf\x05\x0b\xafM\x03Y?'
p906
tp907
Rp908
aa(lp909
g28
(g32
S'v\xc0n=\xf2+\xfb>'
p910
tp911
Rp912
aa(lp913
g28
(g32
S'\xee\xe5f\x8f\x13\xdd\xf6>'
p914
tp915
Rp916
aa(lp917
g28
(g32
S'\xc9\xd9\x15z;d#?'
p918
tp919
Rp920
aa(lp921
g28
(g32
S'wDd?+b\xf8>'
p922
tp923
Rp924
aa(lp925
g28
(g32
S'\xb3\xa2\x95\xd1\x8f\xa06?'
p926
tp927
Rp928
aa(lp929
g28
(g32
S'h\xbc\x02\x0e]\x1e??'
p930
tp931
Rp932
aa(lp933
g28
(g32
S"\xfc5O\xcfy5'?"
p934
tp935
Rp936
aa(lp937
g28
(g32
S'hi\x8d\xdcdeL?'
p938
tp939
Rp940
aasg196
(lp941
F9.066012144088745
aF9.066012144088745
aF8.13725996017456
aF7.9235100746154785
aF8.346333980560303
aF7.75196099281311
aF8.213366031646729
aF7.968857049942017
aF7.706110954284668
aF7.782753944396973
aF7.830773115158081
aF7.868816137313843
aF7.708682060241699
aF8.224146842956543
aF8.529131889343262
aF7.78057599067688
aF7.845156908035278
aF7.831930875778198
aF8.043138980865479
aF7.678714990615845
aF7.841767072677612
assS'SS-E'
p942
(dp943
g3
(lp944
(lp945
I51
aag945
a(lp946
I51
aa(lp947
I51
aa(lp948
I51
aa(lp949
I51
aa(lp950
I51
aa(lp951
I51
aa(lp952
I51
aa(lp953
I51
aa(lp954
I51
aa(lp955
I51
aa(lp956
I51
aa(lp957
I51
aa(lp958
I51
aa(lp959
I51
aa(lp960
I51
aa(lp961
I51
aa(lp962
I51
aa(lp963
I51
aa(lp964
I51
aasg25
(lp965
(lp966
g28
(g32
S'\xcf\x05\x14`0\xdd\x9f?'
p967
tp968
Rp969
aag966
a(lp970
g28
(g32
S'\xfbDw\x7fn\x0c\xa4?'
p971
tp972
Rp973
aa(lp974
g28
(g32
S'\x88\xe2]?\xdd\xc8\xa2?'
p975
tp976
Rp977
aa(lp978
g28
(g32
S'\xb0\xff\x9d\x19zl\x96?'
p979
tp980
Rp981
aa(lp982
g28
(g32
S"*,\x07'\xa0,\x87?"
p983
tp984
Rp985
aa(lp986
g28
(g32
S'\xa0\xac[c\xdd2\xa7?'
p987
tp988
Rp989
aa(lp990
g28
(g32
S'\x13\xac|L\xd0J\x9b?'
p991
tp992
Rp993
aa(lp994
g28
(g32
S'\x07\xa4\xc5\xfe\x9a\xab\x99?'
p995
tp996
Rp997
aa(lp998
g28
(g32
S'\xed\x05\xd8\xf5|+\x95?'
p999
tp1000
Rp1001
aa(lp1002
g28
(g32
S'tI\xc7;\xa93\x87?'
p1003
tp1004
Rp1005
aa(lp1006
g28
(g32
S'\x9b\xe4H\xc0[6\x93?'
p1007
tp1008
Rp1009
aa(lp1010
g28
(g32
S'\x93\x02IS\x04\x8d\xa0?'
p1011
tp1012
Rp1013
aa(lp1014
g28
(g32
S'@Y\xb3g\xef\xff\xa3?'
p1015
tp1016
Rp1017
aa(lp1018
g28
(g32
S'_*\x0c4\xe4,\x94?'
p1019
tp1020
Rp1021
aa(lp1022
g28
(g32
S'\xdfw\xe5NU!\x84?'
p1023
tp1024
Rp1025
aa(lp1026
g28
(g32
S'H7\xb4|yp\x99?'
p1027
tp1028
Rp1029
aa(lp1030
g28
(g32
S'\xa5\xd0\x0c{?O\x87?'
p1031
tp1032
Rp1033
aa(lp1034
g28
(g32
S'\x16\x8d\xd57\xdf&\x8b?'
p1035
tp1036
Rp1037
aa(lp1038
g28
(g32
S'\x9c\xb7\xf44\xde\xad\xa0?'
p1039
tp1040
Rp1041
aa(lp1042
g28
(g32
S'z\xb6\xe9\x87\x1ah\xa1?'
p1043
tp1044
Rp1045
aasg114
(lp1046
(lp1047
g28
(g32
S'\xe4\xaa\xfa\xeb \xc42?'
p1048
tp1049
Rp1050
aag1047
a(lp1051
g28
(g32
S'\xcb\xec\x1f\x06\xe6\xd5@?'
p1052
tp1053
Rp1054
aa(lp1055
g28
(g32
S'lO\x7fa)\x0bo?'
p1056
tp1057
Rp1058
aa(lp1059
g28
(g32
S'\xa8\xc0\xe6\t\x1b(H?'
p1060
tp1061
Rp1062
aa(lp1063
g28
(g32
S'\xf3b1c\xf2AB?'
p1064
tp1065
Rp1066
aa(lp1067
g28
(g32
S'\xee<v\xa4\x9b\x8c>?'
p1068
tp1069
Rp1070
aa(lp1071
g28
(g32
S'\x95\xe4\x17A\x8b\xfd\x84?'
p1072
tp1073
Rp1074
aa(lp1075
g28
(g32
S'\xd1\xdb\xc6\xa6\xc3\x10%?'
p1076
tp1077
Rp1078
aa(lp1079
g28
(g32
S'\x1a=\xc8\xb79IC?'
p1080
tp1081
Rp1082
aa(lp1083
g28
(g32
S'\xf7\xcb!\x89\xf2c7?'
p1084
tp1085
Rp1086
aa(lp1087
g28
(g32
S'\xe4T0\x8d\xcaX4?'
p1088
tp1089
Rp1090
aa(lp1091
g28
(g32
S'P7\x87\xa8K\xfc[?'
p1092
tp1093
Rp1094
aa(lp1095
g28
(g32
S'\xc8\xbcd\xd8\x95\x9c<?'
p1096
tp1097
Rp1098
aa(lp1099
g28
(g32
S'c\x10\xcb\x0f\xa2\x870?'
p1100
tp1101
Rp1102
aa(lp1103
g28
(g32
S'0\x9e\\xL\xa42?'
p1104
tp1105
Rp1106
aa(lp1107
g28
(g32
S'+\\\x18#\xd4xk?'
p1108
tp1109
Rp1110
aa(lp1111
g28
(g32
S'\xeaV\xdf\x80\x03\x03n?'
p1112
tp1113
Rp1114
aa(lp1115
g28
(g32
S'\xd1:\x05G\x928\x88?'
p1116
tp1117
Rp1118
aa(lp1119
g28
(g32
S'\x8b\x80\x0e5\xf6\xded?'
p1120
tp1121
Rp1122
aa(lp1123
g28
(g32
S'\x08\xe0\xb8\x8f\xe0g\xaa?'
p1124
tp1125
Rp1126
aasg196
(lp1127
F1.6885850429534912
aF1.6885850429534912
aF1.6972100734710693
aF1.6382379531860352
aF1.6326279640197754
aF2.1808249950408936
aF1.9848551750183105
aF1.9097809791564941
aF1.9230470657348633
aF1.63344407081604
aF1.624885082244873
aF1.6436998844146729
aF1.6393229961395264
aF1.7157478332519531
aF1.4486792087554932
aF1.5445799827575684
aF1.4785740375518799
aF1.452934980392456
aF1.4779667854309082
aF1.6744599342346191
aF1.3663649559020996
assS'SS-D'
p1128
(dp1129
g3
(lp1130
(lp1131
I51
aag1131
a(lp1132
I51
aa(lp1133
I51
aa(lp1134
I51
aa(lp1135
I51
aa(lp1136
I51
aa(lp1137
I51
aa(lp1138
I51
aa(lp1139
I51
aa(lp1140
I51
aa(lp1141
I51
aa(lp1142
I51
aa(lp1143
I51
aa(lp1144
I51
aa(lp1145
I51
aa(lp1146
I51
aa(lp1147
I51
aa(lp1148
I51
aa(lp1149
I51
aa(lp1150
I51
aasg25
(lp1151
(lp1152
g28
(g32
S'\x8f<$D\xb7\xbf\x9d?'
p1153
tp1154
Rp1155
aag1152
a(lp1156
g28
(g32
S'g\xa7B\xe9"\xa1\x8f?'
p1157
tp1158
Rp1159
aa(lp1160
g28
(g32
S'\xde\x98\xdcH\xbe\n\x7f?'
p1161
tp1162
Rp1163
aa(lp1164
g28
(g32
S'lJ\x97U\x00\xc9\x88?'
p1165
tp1166
Rp1167
aa(lp1168
g28
(g32
S'=#\xf4r\x87X\x95?'
p1169
tp1170
Rp1171
aa(lp1172
g28
(g32
S'g=.\xcfhl\x98?'
p1173
tp1174
Rp1175
aa(lp1176
g28
(g32
S'\xd3\xba\x8dz\xedU\xa8?'
p1177
tp1178
Rp1179
aa(lp1180
g28
(g32
S'f\xda\x18y\x17\xc0\xa6?'
p1181
tp1182
Rp1183
aa(lp1184
g28
(g32
S'V\xa9H\xf29k\x96?'
p1185
tp1186
Rp1187
aa(lp1188
g28
(g32
S's\xc9\x8a\x18\xa7\xd3\x9b?'
p1189
tp1190
Rp1191
aa(lp1192
g28
(g32
S'f\xc5\x0ff\xd7\x1e\x8a?'
p1193
tp1194
Rp1195
aa(lp1196
g28
(g32
S'\xf0\xedz\x12\xc2\x07\x9a?'
p1197
tp1198
Rp1199
aa(lp1200
g28
(g32
S'\x1emQ\x81\x92v\x8b?'
p1201
tp1202
Rp1203
aa(lp1204
g28
(g32
S"'\xb9tbPz\x9a?"
p1205
tp1206
Rp1207
aa(lp1208
g28
(g32
S'\xba\x92\xe7H\xdd\xa8\x92?'
p1209
tp1210
Rp1211
aa(lp1212
g28
(g32
S'"\xb8\xf3\xb6N}\xa2?'
p1213
tp1214
Rp1215
aa(lp1216
g28
(g32
S')$\xf1\xe7%\xb1\x9e?'
p1217
tp1218
Rp1219
aa(lp1220
g28
(g32
S'\xb34\x1c"\xc5\xbd\x9d?'
p1221
tp1222
Rp1223
aa(lp1224
g28
(g32
S'\x14\xfe\xe1\xf4~\xeb\x90?'
p1225
tp1226
Rp1227
aa(lp1228
g28
(g32
S'k\xdf\xed\xf9\x11{\x83?'
p1229
tp1230
Rp1231
aasg114
(lp1232
(lp1233
g28
(g32
S'o\x8fl\x1d\xc0l\x8b?'
p1234
tp1235
Rp1236
aag1233
a(lp1237
g28
(g32
S'\x94h\x86\xb0Z\x86\xa7?'
p1238
tp1239
Rp1240
aa(lp1241
g28
(g32
S'\x8fz\xdb\xa4\xc7\xccx?'
p1242
tp1243
Rp1244
aa(lp1245
g28
(g32
S'\xae\xd4\x0f|\x1a\xff\x83?'
p1246
tp1247
Rp1248
aa(lp1249
g28
(g32
S'\x82=h\x8e?\xdc\x8a?'
p1250
tp1251
Rp1252
aa(lp1253
g28
(g32
S'\x95t\xf2\x11\x9e\xaf\x9b?'
p1254
tp1255
Rp1256
aa(lp1257
g28
(g32
S'\x00\x00\x00\x00\x00\x00\x00\x00'
p1258
tp1259
Rp1260
aa(lp1261
g28
(g32
S'|s\xae\x87\xbf\xc4K?'
p1262
tp1263
Rp1264
aa(lp1265
g28
(g32
S'}\x84z\x1c\xf9k\xa4?'
p1266
tp1267
Rp1268
aa(lp1269
g28
(g32
S'\xa6%u\x93O\\\x9c?'
p1270
tp1271
Rp1272
aa(lp1273
g28
(g32
S'\x12[\x81\x834\xbc\x10?'
p1274
tp1275
Rp1276
aa(lp1277
g28
(g32
S'\x9f\x03\xbb\x9d\xff\xcc\xda>'
p1278
tp1279
Rp1280
aa(lp1281
g28
(g32
S'\x82\xddu\x16\x1f\xab\xef>'
p1282
tp1283
Rp1284
aa(lp1285
g28
(g32
S'\xd8\xf4y\xb2\x8dD\xb3>'
p1286
tp1287
Rp1288
aa(lp1289
g28
(g32
S'J<\x83\xd29,\x8d?'
p1290
tp1291
Rp1292
aa(lp1293
g28
(g32
S'\x7f\xb6\x80\xdeb\x7f\xa3?'
p1294
tp1295
Rp1296
aa(lp1297
g28
(g32
S'\xb6\xe4e\xfb\xd5 \x8a?'
p1298
tp1299
Rp1300
aa(lp1301
g28
(g32
S'k\xeex\x94k\xef\x90?'
p1302
tp1303
Rp1304
aa(lp1305
g28
(g32
S'~/\x82~\xfaX\x96?'
p1306
tp1307
Rp1308
aa(lp1309
g28
(g32
S'E\x91\xe2\x8ci\x85\x98?'
p1310
tp1311
Rp1312
aasg196
(lp1313
F0.40047192573547363
aF0.40047192573547363
aF0.38008999824523926
aF0.44643688201904297
aF0.4225130081176758
aF0.42222094535827637
aF0.4281740188598633
aF0.40612101554870605
aF0.41065001487731934
aF0.45679402351379395
aF0.4615969657897949
aF0.7221441268920898
aF0.7565329074859619
aF0.39821314811706543
aF0.4070470333099365
aF0.552253007888794
aF0.5928809642791748
aF0.673792839050293
aF0.7406518459320068
aF0.5753109455108643
aF0.5194268226623535
assS'SS-G'
p1314
(dp1315
g3
(lp1316
(lp1317
I51
aag1317
a(lp1318
I51
aa(lp1319
I51
aa(lp1320
I51
aa(lp1321
I51
aa(lp1322
I51
aa(lp1323
I51
aa(lp1324
I51
aa(lp1325
I51
aa(lp1326
I51
aa(lp1327
I51
aa(lp1328
I51
aa(lp1329
I51
aa(lp1330
I51
aa(lp1331
I51
aa(lp1332
I51
aa(lp1333
I51
aa(lp1334
I51
aa(lp1335
I51
aa(lp1336
I51
aasg25
(lp1337
(lp1338
g28
(g32
S'\xf5t7T\x0f\xc6\xa5?'
p1339
tp1340
Rp1341
aag1338
a(lp1342
g28
(g32
S'\x9e\xf6g\x00jL\xa1?'
p1343
tp1344
Rp1345
aa(lp1346
g28
(g32
S'\x0fs\x82\xca\x05\x80\x97?'
p1347
tp1348
Rp1349
aa(lp1350
g28
(g32
S'\xf8\xf3?S~\x89\xa1?'
p1351
tp1352
Rp1353
aa(lp1354
g28
(g32
S'\xc5R \xe0:K\x99?'
p1355
tp1356
Rp1357
aa(lp1358
g28
(g32
S'\x90G\xcd\xd6I\xc0\xc0?'
p1359
tp1360
Rp1361
aa(lp1362
g28
(g32
S'\xd9\xa6\xdfd\xdeV\x9f?'
p1363
tp1364
Rp1365
aa(lp1366
g28
(g32
S'sU0\xd3B!\x92?'
p1367
tp1368
Rp1369
aa(lp1370
g28
(g32
S'\xc7\xb9\x83L\xdc\xdc\xc0?'
p1371
tp1372
Rp1373
aa(lp1374
g28
(g32
S'v7 \xa4\x12\xc7\x93?'
p1375
tp1376
Rp1377
aa(lp1378
g28
(g32
S'"\x81-g\xb6i\xbc?'
p1379
tp1380
Rp1381
aa(lp1382
g28
(g32
S'\xbf\x9b*\x95\x18\x02y?'
p1383
tp1384
Rp1385
aa(lp1386
g28
(g32
S'\xf9\x1c\xd9\xb9\x1e#\xbd?'
p1387
tp1388
Rp1389
aa(lp1390
g28
(g32
S'_fS\xc7\xee\x11\x85?'
p1391
tp1392
Rp1393
aa(lp1394
g28
(g32
S'\xa0=0]?\xda\xa1?'
p1395
tp1396
Rp1397
aa(lp1398
g28
(g32
S'`O\xbd\xa2\xc5a\x9f?'
p1399
tp1400
Rp1401
aa(lp1402
g28
(g32
S'\x9e\xc1\xa2\x96\xael\xa5?'
p1403
tp1404
Rp1405
aa(lp1406
g28
(g32
S'\xbb\xb8w5\xba\x89\xa1?'
p1407
tp1408
Rp1409
aa(lp1410
g28
(g32
S'A\xf21\xc0\x8a \x92?'
p1411
tp1412
Rp1413
aa(lp1414
g28
(g32
S'\xa7\xbc\x80n\x81/\x9b?'
p1415
tp1416
Rp1417
aasg114
(lp1418
(lp1419
g28
(g32
S'\x06\xbe]\x9f\xceF\xa2?'
p1420
tp1421
Rp1422
aag1419
a(lp1423
g28
(g32
S'\x85\xac\xa0\xfd\xfe.\x8a?'
p1424
tp1425
Rp1426
aa(lp1427
g28
(g32
S'!\xf1z\x07\x1a\xd15?'
p1428
tp1429
Rp1430
aa(lp1431
g28
(g32
S'8q\xea\x88\x861\x1a?'
p1432
tp1433
Rp1434
aa(lp1435
g28
(g32
S';\xb7X\xd2\x97U\x1f?'
p1436
tp1437
Rp1438
aa(lp1439
g28
(g32
S'\x00\x00\x00\x00\x00\x00\x00\x00'
p1440
tp1441
Rp1442
aa(lp1443
g28
(g32
S'}\xc7\x87\xd4]S\x8b?'
p1444
tp1445
Rp1446
aa(lp1447
g28
(g32
S'\xbc\xe6\xe9\x1bu!\x87?'
p1448
tp1449
Rp1450
aa(lp1451
g28
(g32
S'\xfd\xc3q\x0c|Q\x19?'
p1452
tp1453
Rp1454
aa(lp1455
g28
(g32
S'_]\xbd\x90[\xf8C?'
p1456
tp1457
Rp1458
aa(lp1459
g28
(g32
S'r(\xa1~ \xd7K?'
p1460
tp1461
Rp1462
aa(lp1463
g28
(g32
S'O\xd3\x1c\r\x95\xfdr?'
p1464
tp1465
Rp1466
aa(lp1467
g28
(g32
S'\xaaT\x19q\xa1n\x1f?'
p1468
tp1469
Rp1470
aa(lp1471
g28
(g32
S'=\x03\x96+\x1d\x99r?'
p1472
tp1473
Rp1474
aa(lp1475
g28
(g32
S'W\xb9\x03\x12-\xb5\x00?'
p1476
tp1477
Rp1478
aa(lp1479
g28
(g32
S'8A\xb0\xb3\xdf\x80\xa1?'
p1480
tp1481
Rp1482
aa(lp1483
g28
(g32
S"\xf1\x8d'\xf35\x02\x9b?"
p1484
tp1485
Rp1486
aa(lp1487
g28
(g32
S'8q\xea\x88\x861\x1a?'
p1488
tp1489
Rp1490
aa(lp1491
g28
(g32
S')\x90D\x1f\xcb;\x84?'
p1492
tp1493
Rp1494
aa(lp1495
g28
(g32
S'\xffG=\xcd\xc2\xdf\x9a?'
p1496
tp1497
Rp1498
aasg196
(lp1499
F0.28282999992370605
aF0.28282999992370605
aF0.2688930034637451
aF0.29611778259277344
aF0.2853820323944092
aF0.2807281017303467
aF0.2849421501159668
aF0.2868010997772217
aF0.3024468421936035
aF0.31195497512817383
aF0.3050999641418457
aF0.3068089485168457
aF0.4538600444793701
aF0.2837679386138916
aF0.2801549434661865
aF0.305095911026001
aF0.3093128204345703
aF0.298861026763916
aF0.295759916305542
aF0.2860739231109619
aF0.2824668884277344
assS'SS-F'
p1500
(dp1501
g3
(lp1502
(lp1503
I51
aag1503
a(lp1504
I51
aa(lp1505
I51
aa(lp1506
I51
aa(lp1507
I51
aa(lp1508
I51
aa(lp1509
I51
aa(lp1510
I51
aa(lp1511
I51
aa(lp1512
I51
aa(lp1513
I51
aa(lp1514
I51
aa(lp1515
I51
aa(lp1516
I51
aa(lp1517
I51
aa(lp1518
I51
aa(lp1519
I51
aa(lp1520
I51
aa(lp1521
I51
aa(lp1522
I51
aasg25
(lp1523
(lp1524
g28
(g32
S'\xcf)/\x17N\x86\xb4?'
p1525
tp1526
Rp1527
aag1524
a(lp1528
g28
(g32
S'\xb8\x9eb\xa1.\x0f\xb3?'
p1529
tp1530
Rp1531
aa(lp1532
g28
(g32
S'\xb7\x08\xf7Y\xb9p\xad?'
p1533
tp1534
Rp1535
aa(lp1536
g28
(g32
S'\xe1\x88\xcfZ\xb9\x06\xaa?'
p1537
tp1538
Rp1539
aa(lp1540
g28
(g32
S'rzdB:A\x92?'
p1541
tp1542
Rp1543
aa(lp1544
g28
(g32
S'L\xa9#\x9fMh\x9d?'
p1545
tp1546
Rp1547
aa(lp1548
g28
(g32
S'\xfc\xb4O8\xd9f\x88?'
p1549
tp1550
Rp1551
aa(lp1552
g28
(g32
S'\xd9\xbe\xbdko\xac\x96?'
p1553
tp1554
Rp1555
aa(lp1556
g28
(g32
S'\x1c*@\xdbEPM?'
p1557
tp1558
Rp1559
aa(lp1560
g28
(g32
S'm\x9a07\xe1 \x94?'
p1561
tp1562
Rp1563
aa(lp1564
g28
(g32
S'\xa0\xaa\xa0\xd0z\xc6\x98?'
p1565
tp1566
Rp1567
aa(lp1568
g28
(g32
S'\x10\xc6\x8f\xad:\x92|?'
p1569
tp1570
Rp1571
aa(lp1572
g28
(g32
S'\xef\x96\xfb\xa8\xc0\x15z?'
p1573
tp1574
Rp1575
aa(lp1576
g28
(g32
S'^&\x97\xb6r\x88\x8c?'
p1577
tp1578
Rp1579
aa(lp1580
g28
(g32
S'\n\xba_8\xbd\xfd\x8e?'
p1581
tp1582
Rp1583
aa(lp1584
g28
(g32
S'\xd4&B\x87\xdb\x83M?'
p1585
tp1586
Rp1587
aa(lp1588
g28
(g32
S'd\xc3\xb1\xef\x8a\x16\x96?'
p1589
tp1590
Rp1591
aa(lp1592
g28
(g32
S'\x10W\xb0\x1f\xa2#\x98?'
p1593
tp1594
Rp1595
aa(lp1596
g28
(g32
S'o\xf3\x06\xa6y\xdf\xa4?'
p1597
tp1598
Rp1599
aa(lp1600
g28
(g32
S"'\xbe1\xa0\x02;\x90?"
p1601
tp1602
Rp1603
aasg114
(lp1604
(lp1605
g28
(g32
S'C\xc0\xbc0T\x97-?'
p1606
tp1607
Rp1608
aag1605
a(lp1609
g28
(g32
S'9%\x16\xd1\r\xde$?'
p1610
tp1611
Rp1612
aa(lp1613
g28
(g32
S'PG\xf2=\xc0\x9f\x8a?'
p1614
tp1615
Rp1616
aa(lp1617
g28
(g32
S'\x96\x00"\xf2\r\x85\x83?'
p1618
tp1619
Rp1620
aa(lp1621
g28
(g32
S'=Y\x89\xfa\xe6\x84\xad?'
p1622
tp1623
Rp1624
aa(lp1625
g28
(g32
S'Sc\xa6\xd2F\xdf\xaa?'
p1626
tp1627
Rp1628
aa(lp1629
g28
(g32
S'\\/\x0e$*\x0e\x9d?'
p1630
tp1631
Rp1632
aa(lp1633
g28
(g32
S'\xba\x00\xc2\x90L\x85\xa1?'
p1634
tp1635
Rp1636
aa(lp1637
g28
(g32
S'\x9c\x9e\x13\x90\x05\x90\x93>'
p1638
tp1639
Rp1640
aa(lp1641
g28
(g32
S'\x10\x01\xf9\xf1\x88\xb0\x9d?'
p1642
tp1643
Rp1644
aa(lp1645
g28
(g32
S'\x14ad\xb7\xd6\x1b\xa9?'
p1646
tp1647
Rp1648
aa(lp1649
g28
(g32
S'%\xf0z,\xcfV\x90?'
p1650
tp1651
Rp1652
aa(lp1653
g28
(g32
S']Md\xef\x9e"}?'
p1654
tp1655
Rp1656
aa(lp1657
g28
(g32
S'\x0f\xc0\xf7\xeb\x19\xdc\x91?'
p1658
tp1659
Rp1660
aa(lp1661
g28
(g32
S'NM\xba\xd5\x04\x81\x8f?'
p1662
tp1663
Rp1664
aa(lp1665
g28
(g32
S'd\x15\x9f)\xc3\x93%?'
p1666
tp1667
Rp1668
aa(lp1669
g28
(g32
S'\x84\x13\xfd\xe7w\xac\x9c?'
p1670
tp1671
Rp1672
aa(lp1673
g28
(g32
S'%\xd0R\xb3n.\xaa?'
p1674
tp1675
Rp1676
aa(lp1677
g28
(g32
S'\x10\x15\\\xa4\xc4\x90\xa7?'
p1678
tp1679
Rp1680
aa(lp1681
g28
(g32
S'\xf2\xdc\xd3\xc2\xb2P\x9c?'
p1682
tp1683
Rp1684
aasg196
(lp1685
F0.27386999130249023
aF0.27386999130249023
aF0.27593302726745605
aF0.2889289855957031
aF0.29885005950927734
aF0.46596288681030273
aF0.4955630302429199
aF0.5099399089813232
aF0.5135140419006348
aF0.3866870403289795
aF0.3709871768951416
aF0.3417789936065674
aF0.34965085983276367
aF0.2764759063720703
aF0.27185702323913574
aF0.2985649108886719
aF0.26605892181396484
aF0.27153587341308594
aF0.27657079696655273
aF0.2809000015258789
aF0.289121150970459
assS'SS-A'
p1686
(dp1687
g3
(lp1688
(lp1689
I51
aag1689
a(lp1690
I51
aa(lp1691
I51
aa(lp1692
I51
aa(lp1693
I51
aa(lp1694
I51
aa(lp1695
I51
aa(lp1696
I51
aa(lp1697
I51
aa(lp1698
I51
aa(lp1699
I51
aa(lp1700
I51
aa(lp1701
I51
aa(lp1702
I51
aa(lp1703
I51
aa(lp1704
I51
aa(lp1705
I51
aa(lp1706
I51
aa(lp1707
I51
aa(lp1708
I51
aasg25
(lp1709
(lp1710
g28
(g32
S'\x00\x00\x00\x00\x00\x00\x00\x00'
p1711
tp1712
Rp1713
aag1710
a(lp1714
g28
(g32
S'\x00\x00\x00\x00\x00\x00\x00\x00'
p1715
tp1716
Rp1717
aa(lp1718
g28
(g32
S'9\xb0\xa8\xa5C\x8f\x10?'
p1719
tp1720
Rp1721
aa(lp1722
g28
(g32
S'\xd7c\xc0\xeb\x8e\xa5\t?'
p1723
tp1724
Rp1725
aa(lp1726
g28
(g32
S'\xb8{\xf9\xfbP\xacB?'
p1727
tp1728
Rp1729
aa(lp1730
g28
(g32
S'\x00\x00\x00\x00\x00\x00\x00\x00'
p1731
tp1732
Rp1733
aa(lp1734
g28
(g32
S'\xa3\x19\xd6\xc5\x08A\x80?'
p1735
tp1736
Rp1737
aa(lp1738
g28
(g32
S'\xd7c\xc0\xeb\x8e\xa5\t?'
p1739
tp1740
Rp1741
aa(lp1742
g28
(g32
S'\xd7c\xc0\xeb\x8e\xa5\t?'
p1743
tp1744
Rp1745
aa(lp1746
g28
(g32
S'`D=\xf8\xf1\xef4?'
p1747
tp1748
Rp1749
aa(lp1750
g28
(g32
S'\x0b\xa1\x01\xe3\x06J8?'
p1751
tp1752
Rp1753
aa(lp1754
g28
(g32
S'\xd5x\x9cz\xca\xff\x14?'
p1755
tp1756
Rp1757
aa(lp1758
g28
(g32
S'\x00\x00\x00\x00\x00\x00\x00\x00'
p1759
tp1760
Rp1761
aa(lp1762
g28
(g32
S'\x00\x00\x00\x00\x00\x00\x00\x00'
p1763
tp1764
Rp1765
aa(lp1766
g28
(g32
S'MW\x82\x80\x00\xf6L?'
p1767
tp1768
Rp1769
aa(lp1770
g28
(g32
S'K\x9c\x01\xe8\xa2\x12_?'
p1771
tp1772
Rp1773
aa(lp1774
g28
(g32
S'W\xb1\x9c\xb3\x92\x05\xff>'
p1775
tp1776
Rp1777
aa(lp1778
g28
(g32
S'\x00\x00\x00\x00\x00\x00\x00\x00'
p1779
tp1780
Rp1781
aa(lp1782
g28
(g32
S'\xf4c/\x04\x11\xdf5?'
p1783
tp1784
Rp1785
aa(lp1786
g28
(g32
S'\xf8\x85\xbe\x05\x86\xcc9?'
p1787
tp1788
Rp1789
aasg114
(lp1790
(lp1791
g28
(g32
S'\x00\x00\x00\x00\x00\x00\x00\x00'
p1792
tp1793
Rp1794
aag1791
a(lp1795
g28
(g32
S'\x00\x00\x00\x00\x00\x00\x00\x00'
p1796
tp1797
Rp1798
aa(lp1799
g28
(g32
S'\xd4\xf5\xb2\x1e\xe9j\xf6>'
p1800
tp1801
Rp1802
aa(lp1803
g28
(g32
S'\x00\x00\x00\x00\x00\x00\x00\x00'
p1804
tp1805
Rp1806
aa(lp1807
g28
(g32
S'9\t\xf4\n\xf62[?'
p1808
tp1809
Rp1810
aa(lp1811
g28
(g32
S'\x00\x00\x00\x00\x00\x00\x00\x00'
p1812
tp1813
Rp1814
aa(lp1815
g28
(g32
S'\x07\xca\x009\x96\xa6\x7f?'
p1816
tp1817
Rp1818
aa(lp1819
g28
(g32
S'\x00\x00\x00\x00\x00\x00\x00\x00'
p1820
tp1821
Rp1822
aa(lp1823
g28
(g32
S'\x00\x00\x00\x00\x00\x00\x00\x00'
p1824
tp1825
Rp1826
aa(lp1827
g28
(g32
S'\x8d\x89\x07Qx+\x1d?'
p1828
tp1829
Rp1830
aa(lp1831
g28
(g32
S'J\xa1\xf5\xdf*\x0cb?'
p1832
tp1833
Rp1834
aa(lp1835
g28
(g32
S'\x9d\x9a\x92a\x8fi"?'
p1836
tp1837
Rp1838
aa(lp1839
g28
(g32
S'\x00\x00\x00\x00\x00\x00\x00\x00'
p1840
tp1841
Rp1842
aa(lp1843
g28
(g32
S'\x00\x00\x00\x00\x00\x00\x00\x00'
p1844
tp1845
Rp1846
aa(lp1847
g28
(g32
S'\x90\xccYJ\xe6\xa9K?'
p1848
tp1849
Rp1850
aa(lp1851
g28
(g32
S'\xcd2G2zP[?'
p1852
tp1853
Rp1854
aa(lp1855
g28
(g32
S'\xf7\xc0G\xd4A#@?'
p1856
tp1857
Rp1858
aa(lp1859
g28
(g32
S'\x00\x00\x00\x00\x00\x00\x00\x00'
p1860
tp1861
Rp1862
aa(lp1863
g28
(g32
S'(\xe9\x02\xe4\xf3\x88#?'
p1864
tp1865
Rp1866
aa(lp1867
g28
(g32
S'\x18\x04\x0f\x1fo\x91r?'
p1868
tp1869
Rp1870
aasg196
(lp1871
F2.3224501609802246
aF2.3224501609802246
aF2.3141350746154785
aF2.8755180835723877
aF2.796799898147583
aF2.336519956588745
aF2.328317880630493
aF2.3251709938049316
aF2.2985141277313232
aF2.1973729133605957
aF2.2659640312194824
aF2.2431271076202393
aF2.2819108963012695
aF2.3672850131988525
aF2.3551290035247803
aF2.207943916320801
aF2.2568209171295166
aF2.2534830570220947
aF2.2766151428222656
aF2.8800439834594727
aF2.9146018028259277
assS'SS-C'
p1872
(dp1873
g3
(lp1874
(lp1875
I51
aag1875
a(lp1876
I51
aa(lp1877
I51
aa(lp1878
I51
aa(lp1879
I51
aa(lp1880
I51
aa(lp1881
I51
aa(lp1882
I51
aa(lp1883
I51
aa(lp1884
I51
aa(lp1885
I51
aa(lp1886
I51
aa(lp1887
I51
aa(lp1888
I51
aa(lp1889
I51
aa(lp1890
I51
aa(lp1891
I51
aa(lp1892
I51
aa(lp1893
I51
aa(lp1894
I51
aasg25
(lp1895
(lp1896
g28
(g32
S'\xe9\x1dx0\xd3H]?'
p1897
tp1898
Rp1899
aag1896
a(lp1900
g28
(g32
S'\x12\xb0\xf7\xa6\x01\x11d?'
p1901
tp1902
Rp1903
aa(lp1904
g28
(g32
S'\x94\xd2\xbb+\\\x05g?'
p1905
tp1906
Rp1907
aa(lp1908
g28
(g32
S'*,\x8eW\xc2#f?'
p1909
tp1910
Rp1911
aa(lp1912
g28
(g32
S'\x8ac\x92f\x01Yp?'
p1913
tp1914
Rp1915
aa(lp1916
g28
(g32
S'\r\xaa\xfe\xdb\xd6r]?'
p1917
tp1918
Rp1919
aa(lp1920
g28
(g32
S'\x00\x00\x00\x00\x00\x00\x00\x00'
p1921
tp1922
Rp1923
aa(lp1924
g28
(g32
S'[f-_\xe3\x05h?'
p1925
tp1926
Rp1927
aa(lp1928
g28
(g32
S'\x8aBr\x0b@\xebf?'
p1929
tp1930
Rp1931
aa(lp1932
g28
(g32
S'_\x1a\xa5\t\xaaZb?'
p1933
tp1934
Rp1935
aa(lp1936
g28
(g32
S'\x19n\xb2\x92\xfd>g?'
p1937
tp1938
Rp1939
aa(lp1940
g28
(g32
S'\xf5\xb5k\x83Mpl?'
p1941
tp1942
Rp1943
aa(lp1944
g28
(g32
S'\xfeH`_\xd44e?'
p1945
tp1946
Rp1947
aa(lp1948
g28
(g32
S'\x80\x0e\x00\x94yH]?'
p1949
tp1950
Rp1951
aa(lp1952
g28
(g32
S'\x05\xb2\xa7C\x02\x9au?'
p1953
tp1954
Rp1955
aa(lp1956
g28
(g32
S'\x81j/1\xb7Xo?'
p1957
tp1958
Rp1959
aa(lp1960
g28
(g32
S'*,\x8eW\xc2#f?'
p1961
tp1962
Rp1963
aa(lp1964
g28
(g32
S'*,\x8eW\xc2#f?'
p1965
tp1966
Rp1967
aa(lp1968
g28
(g32
S'3\xb9\xe6\xf9\x86rb?'
p1969
tp1970
Rp1971
aa(lp1972
g28
(g32
S'&zO\xb2qJ]?'
p1973
tp1974
Rp1975
aasg114
(lp1976
(lp1977
g28
(g32
S'\xfa\x90Ffn\xf0@?'
p1978
tp1979
Rp1980
aag1977
a(lp1981
g28
(g32
S'\xaa\x03^\x94mO2?'
p1982
tp1983
Rp1984
aa(lp1985
g28
(g32
S'w\xc6Rh[^/?'
p1986
tp1987
Rp1988
aa(lp1989
g28
(g32
S'"Er\x1e\xc1C$?'
p1990
tp1991
Rp1992
aa(lp1993
g28
(g32
S'\xce\x0e\xdc(\xb5\xa4"?'
p1994
tp1995
Rp1996
aa(lp1997
g28
(g32
S'\xf6\xa8\xfc\xc7\x85\x1cX?'
p1998
tp1999
Rp2000
aa(lp2001
g28
(g32
S'\x00\x00\x00\x00\x00\x00\x00\x00'
p2002
tp2003
Rp2004
aa(lp2005
g28
(g32
S'\xbd\xc3\x82\x98rT5?'
p2006
tp2007
Rp2008
aa(lp2009
g28
(g32
S'\x03\xc6\xec\x0f\xdaG.?'
p2010
tp2011
Rp2012
aa(lp2013
g28
(g32
S'\x1b\x8a\xaf\xaf`\xb10?'
p2014
tp2015
Rp2016
aa(lp2017
g28
(g32
S'\x9aim[\x1f\xe3\x1e?'
p2018
tp2019
Rp2020
aa(lp2021
g28
(g32
S'\x8c$\x87\xa2\xbdO\x06?'
p2022
tp2023
Rp2024
aa(lp2025
g28
(g32
S'\x863\xb9Qj\xd1/?'
p2026
tp2027
Rp2028
aa(lp2029
g28
(g32
S'\xbd6\xf8\x00\xd0`8?'
p2030
tp2031
Rp2032
aa(lp2033
g28
(g32
S'(p8\xc0X\\1?'
p2034
tp2035
Rp2036
aa(lp2037
g28
(g32
S'\xa8/\x97\xec\xbc\xbb&?'
p2038
tp2039
Rp2040
aa(lp2041
g28
(g32
S'"Er\x1e\xc1C$?'
p2042
tp2043
Rp2044
aa(lp2045
g28
(g32
S'"Er\x1e\xc1C$?'
p2046
tp2047
Rp2048
aa(lp2049
g28
(g32
S'V\x07\x1f\xbem-2?'
p2050
tp2051
Rp2052
aa(lp2053
g28
(g32
S'\xa8\xb4\xa1\xcb\x97x\\?'
p2054
tp2055
Rp2056
aasg196
(lp2057
F3.3000869750976562
aF3.3000869750976562
aF3.2843399047851562
aF3.4956960678100586
aF4.032889127731323
aF5.3921730518341064
aF5.5274739265441895
aF5.3305511474609375
aF4.796602010726929
aF3.545538902282715
aF3.561885118484497
aF3.584285020828247
aF3.5734920501708984
aF3.2798900604248047
aF3.5172948837280273
aF4.287310838699341
aF4.2546751499176025
aF4.227880001068115
aF4.062972068786621
aF3.369143009185791
aF3.466618061065674
assS'SS-B'
p2058
(dp2059
g3
(lp2060
(lp2061
I51
aag2061
a(lp2062
I51
aa(lp2063
I51
aa(lp2064
I51
aa(lp2065
I51
aa(lp2066
I51
aa(lp2067
I51
aa(lp2068
I51
aa(lp2069
I51
aa(lp2070
I51
aa(lp2071
I51
aa(lp2072
I51
aa(lp2073
I51
aa(lp2074
I51
aa(lp2075
I51
aa(lp2076
I51
aa(lp2077
I51
aa(lp2078
I51
aa(lp2079
I51
aa(lp2080
I51
aasg25
(lp2081
(lp2082
g28
(g32
S'\xd1n\nZ\xfd\x99T?'
p2083
tp2084
Rp2085
aag2082
a(lp2086
g28
(g32
S':t\xb7d\xf4)\x9b?'
p2087
tp2088
Rp2089
aa(lp2090
g28
(g32
S'\xda0>_\xbfdz?'
p2091
tp2092
Rp2093
aa(lp2094
g28
(g32
S'\xfa\xe4\x0f\x92,\x8c\x9e?'
p2095
tp2096
Rp2097
aa(lp2098
g28
(g32
S'\x19;\xe4\xe0\xfa\xc4\x86?'
p2099
tp2100
Rp2101
aa(lp2102
g28
(g32
S'\xadt\xa6v\xa8lI?'
p2103
tp2104
Rp2105
aa(lp2106
g28
(g32
S'\x08\xa3\x07\xa7\x01R=?'
p2107
tp2108
Rp2109
aa(lp2110
g28
(g32
S'f\xdai\x8a\x9a\xf7p?'
p2111
tp2112
Rp2113
aa(lp2114
g28
(g32
S'\xfa0\r\x9dt\x00\x80?'
p2115
tp2116
Rp2117
aa(lp2118
g28
(g32
S'pf\x17\xb3`\x01l?'
p2119
tp2120
Rp2121
aa(lp2122
g28
(g32
S'\x93\x8b\x96h\x00f\x81?'
p2123
tp2124
Rp2125
aa(lp2126
g28
(g32
S'\x829\x0e5\xd0\xd2r?'
p2127
tp2128
Rp2129
aa(lp2130
g28
(g32
S'u6\xbe\xdc)$i?'
p2131
tp2132
Rp2133
aa(lp2134
g28
(g32
S'\xc4j\xf5\x15u\xdd\x87?'
p2135
tp2136
Rp2137
aa(lp2138
g28
(g32
S'\x9f\xc6r\r[n\x82?'
p2139
tp2140
Rp2141
aa(lp2142
g28
(g32
S'jI{\xa3\xa4\xd6p?'
p2143
tp2144
Rp2145
aa(lp2146
g28
(g32
S'\xf5Z\xfa\xb5\x04]l?'
p2147
tp2148
Rp2149
aa(lp2150
g28
(g32
S'.\xa7[n\xab\x96\x94?'
p2151
tp2152
Rp2153
aa(lp2154
g28
(g32
S'\xa6\x9f\xfa{\xcc\xd0\x9b?'
p2155
tp2156
Rp2157
aa(lp2158
g28
(g32
S'E\x87!d*\xd5p?'
p2159
tp2160
Rp2161
aasg114
(lp2162
(lp2163
g28
(g32
S'\x00\x00\x00\x00\x00\x00\x00\x00'
p2164
tp2165
Rp2166
aag2163
a(lp2167
g28
(g32
S'\x00\x00\x00\x00\x00\x00\x00\x00'
p2168
tp2169
Rp2170
aa(lp2171
g28
(g32
S'\xcb\xa4$\x88>8z?'
p2172
tp2173
Rp2174
aa(lp2175
g28
(g32
S'\xc1h\x02t\xbfW\xaa?'
p2176
tp2177
Rp2178
aa(lp2179
g28
(g32
S'`\x9cJg9\x95\x93?'
p2180
tp2181
Rp2182
aa(lp2183
g28
(g32
S'\x00\x00\x00\x00\x00\x00\x00\x00'
p2184
tp2185
Rp2186
aa(lp2187
g28
(g32
S'\x08\xa3\x07\xa7\x01R=?'
p2188
tp2189
Rp2190
aa(lp2191
g28
(g32
S'\xff7q.\xa5\x028?'
p2192
tp2193
Rp2194
aa(lp2195
g28
(g32
S'\xf4\xccY\xdb\x00\xc5x?'
p2196
tp2197
Rp2198
aa(lp2199
g28
(g32
S'\xe4Z1\rA\x02A?'
p2200
tp2201
Rp2202
aa(lp2203
g28
(g32
S'\x06\x8e\xfe\x8ba^}?'
p2204
tp2205
Rp2206
aa(lp2207
g28
(g32
S'\xff\xe9\xd4\xe2\xfb\x01B?'
p2208
tp2209
Rp2210
aa(lp2211
g28
(g32
S'\x00\x00\x00\x00\x00\x00\x00\x00'
p2212
tp2213
Rp2214
aa(lp2215
g28
(g32
S'\r\x92gf\xe5\xccv?'
p2216
tp2217
Rp2218
aa(lp2219
g28
(g32
S'u\xf2\xb2\xd0\xc2\xa6o?'
p2220
tp2221
Rp2222
aa(lp2223
g28
(g32
S'!\xa4\x04\xec\x88QK?'
p2224
tp2225
Rp2226
aa(lp2227
g28
(g32
S'~|\xfb\xd9r\x877?'
p2228
tp2229
Rp2230
aa(lp2231
g28
(g32
S'g\xdc\xf2\xe0\xad\xb7\x99?'
p2232
tp2233
Rp2234
aa(lp2235
g28
(g32
S'D\x19b?\xb5$\xa1?'
p2236
tp2237
Rp2238
aa(lp2239
g28
(g32
S'\xa8PO\xcdC_/?'
p2240
tp2241
Rp2242
aasg196
(lp2243
F0.6398909091949463
aF0.6398909091949463
aF0.6147358417510986
aF0.7770218849182129
aF0.6229608058929443
aF0.5634009838104248
aF0.6165890693664551
aF0.5527210235595703
aF0.5482149124145508
aF0.5661599636077881
aF0.574368953704834
aF0.5347108840942383
aF0.541755199432373
aF0.6049361228942871
aF0.9294931888580322
aF0.9702291488647461
aF0.995811939239502
aF1.016556978225708
aF0.8667230606079102
aF0.8390829563140869
aF0.7068638801574707
ass.